

Microchip MPLAB XC8 Assembler V2.40 build 20220703182018 
                                                                                               Tue Oct 18 18:12:21 2022

Microchip MPLAB XC8 C Compiler v2.40 (Free license) build 20220703182018 Og1 
     1                           	processor	16F877A
     2                           	pagewidth 120
     3                           	opt	flic
     4                           	psect	idataBANK0,global,class=CODE,delta=2,noexec
     5                           	psect	idataBANK1,global,class=CODE,delta=2,noexec
     6                           	psect	strings,global,class=STRING,delta=2,noexec
     7                           	psect	stringtext,global,reloc=256,class=STRCODE,delta=2,noexec
     8                           	psect	cinit,global,class=CODE,merge=1,delta=2
     9                           	psect	bssCOMMON,global,class=COMMON,space=1,delta=1,noexec
    10                           	psect	bssBANK0,global,class=BANK0,space=1,delta=1,noexec
    11                           	psect	dataBANK0,global,class=BANK0,space=1,delta=1,noexec
    12                           	psect	bssBANK1,global,class=BANK1,space=1,delta=1,noexec
    13                           	psect	dataBANK1,global,class=BANK1,space=1,delta=1,noexec
    14                           	psect	inittext,global,class=CODE,delta=2
    15                           	psect	clrtext,global,class=CODE,delta=2
    16                           	psect	cstackBANK1,global,class=BANK1,space=1,delta=1,noexec
    17                           	psect	cstackCOMMON,global,class=COMMON,space=1,delta=1,noexec
    18                           	psect	cstackBANK0,global,class=BANK0,space=1,delta=1,noexec
    19                           	psect	maintext,global,class=CODE,split=1,delta=2
    20                           	psect	text1,local,class=CODE,merge=1,delta=2
    21                           	psect	text2,local,class=CODE,merge=1,delta=2,group=2
    22                           	psect	text3,local,class=CODE,merge=1,delta=2
    23                           	psect	text4,local,class=CODE,merge=1,delta=2,group=1
    24                           	psect	text5,local,class=CODE,merge=1,delta=2,group=1
    25                           	psect	text6,local,class=CODE,merge=1,delta=2,group=1
    26                           	psect	text7,local,class=CODE,merge=1,delta=2
    27                           	psect	text8,local,class=CODE,merge=1,delta=2
    28                           	psect	text9,local,class=CODE,merge=1,delta=2
    29                           	psect	text10,local,class=CODE,merge=1,delta=2
    30                           	psect	text11,local,class=CODE,merge=1,delta=2
    31                           	psect	text12,local,class=CODE,merge=1,delta=2
    32                           	psect	text13,local,class=CODE,merge=1,delta=2
    33                           	psect	text14,local,class=CODE,merge=1,delta=2
    34                           	psect	text15,local,class=CODE,merge=1,delta=2
    35                           	psect	text16,local,class=CODE,merge=1,delta=2
    36                           	psect	text17,local,class=CODE,merge=1,delta=2,group=1
    37                           	psect	text18,local,class=CODE,merge=1,delta=2
    38                           	psect	text19,local,class=CODE,merge=1,delta=2
    39                           	psect	text20,local,class=CODE,merge=1,delta=2
    40                           	psect	text21,local,class=CODE,merge=1,delta=2
    41                           	psect	text22,local,class=CODE,merge=1,delta=2
    42                           	psect	text23,local,class=CODE,merge=1,delta=2
    43                           	psect	text24,local,class=CODE,merge=1,delta=2
    44                           	psect	text25,local,class=CODE,merge=1,delta=2
    45                           	psect	text26,local,class=CODE,merge=1,delta=2
    46                           	psect	text27,local,class=CODE,merge=1,delta=2
    47                           	psect	text28,local,class=CODE,merge=1,delta=2,group=1
    48                           	psect	text29,local,class=CODE,merge=1,delta=2
    49                           	psect	text30,local,class=CODE,merge=1,delta=2
    50                           	psect	text31,local,class=CODE,merge=1,delta=2
    51                           	psect	text32,local,class=CODE,merge=1,delta=2
    52                           	psect	text33,local,class=CODE,merge=1,delta=2
    53                           	psect	text34,local,class=CODE,merge=1,delta=2
    54                           	psect	text35,local,class=CODE,merge=1,delta=2,group=1
    55                           	psect	text36,local,class=CODE,merge=1,delta=2,group=1
    56                           	psect	text37,local,class=CODE,merge=1,delta=2
    57                           	psect	text38,local,class=CODE,merge=1,delta=2
    58                           	psect	text39,local,class=CODE,merge=1,delta=2,group=2
    59                           	psect	text40,local,class=CODE,merge=1,delta=2,group=2
    60                           	psect	text41,local,class=CODE,merge=1,delta=2
    61                           	psect	text42,local,class=CODE,merge=1,delta=2
    62                           	psect	text43,local,class=CODE,merge=1,delta=2
    63                           	psect	text44,local,class=CODE,merge=1,delta=2
    64                           	psect	text45,local,class=CODE,merge=1,delta=2
    65                           	psect	text46,local,class=CODE,merge=1,delta=2
    66                           	psect	text47,local,class=CODE,merge=1,delta=2
    67                           	psect	text48,local,class=CODE,merge=1,delta=2
    68                           	psect	text49,local,class=CODE,merge=1,delta=2
    69                           	psect	text50,local,class=CODE,merge=1,delta=2
    70                           	psect	text51,local,class=CODE,merge=1,delta=2
    71                           	psect	intentry,global,class=CODE,delta=2
    72                           	psect	config,global,abs,ovrld,class=CONFIG,space=4,delta=2,noexec
    73                           	dabs	1,0x7E,2
    74     0000                     
    75                           ; Version 2.20
    76                           ; Generated 12/02/2020 GMT
    77                           ; 
    78                           ; Copyright © 2020, Microchip Technology Inc. and its subsidiaries ("Microchip")
    79                           ; All rights reserved.
    80                           ; 
    81                           ; This software is developed by Microchip Technology Inc. and its subsidiaries ("Microch
      +                          ip").
    82                           ; 
    83                           ; Redistribution and use in source and binary forms, with or without modification, are
    84                           ; permitted provided that the following conditions are met:
    85                           ; 
    86                           ;     1. Redistributions of source code must retain the above copyright notice, this lis
      +                          t of
    87                           ;        conditions and the following disclaimer.
    88                           ; 
    89                           ;     2. Redistributions in binary form must reproduce the above copyright notice, this 
      +                          list
    90                           ;        of conditions and the following disclaimer in the documentation and/or other
    91                           ;        materials provided with the distribution.
    92                           ; 
    93                           ;     3. Microchip's name may not be used to endorse or promote products derived from th
      +                          is
    94                           ;        software without specific prior written permission.
    95                           ; 
    96                           ; THIS SOFTWARE IS PROVIDED BY MICROCHIP "AS IS" AND ANY EXPRESS OR IMPLIED WARRANTIES,
    97                           ; INCLUDING, BUT NOT LIMITED TO, THE IMPLIED WARRANTIES OF MERCHANTABILITY AND FITNESS F
      +                          OR
    98                           ; PURPOSE ARE DISCLAIMED.  IN NO EVENT SHALL MICROCHIP BE LIABLE FOR ANY DIRECT, INDIREC
      +                          T,
    99                           ; INCIDENTAL, SPECIAL, EXEMPLARY, OR CONSEQUENTIAL DAMAGES (INCLUDING BUT NOT LIMITED TO
   100                           ; PROCUREMENT OF SUBSTITUTE GOODS OR SERVICES; LOSS OF USE, DATA OR PROFITS; OR BUSINESS
   101                           ; INTERRUPTION) HOWSOEVER CAUSED AND ON ANY THEORY OF LIABILITY, WHETHER IN CONTRACT, ST
      +                          RICT
   102                           ; LIABILITY, OR TORT (INCLUDING NEGLIGENCE OR OTHERWISE) ARISING IN ANY WAY OUT OF THE U
      +                          SE OF
   103                           ; THIS SOFTWARE, EVEN IF ADVISED OF THE POSSIBILITY OF SUCH DAMAGE.
   104                           ; 
   105                           ; 
   106                           ; Code-generator required, PIC16F877A Definitions
   107                           ; 
   108                           ; SFR Addresses
   109     0000                     	;# 
   110     0001                     	;# 
   111     0002                     	;# 
   112     0003                     	;# 
   113     0004                     	;# 
   114     0005                     	;# 
   115     0006                     	;# 
   116     0007                     	;# 
   117     0008                     	;# 
   118     0009                     	;# 
   119     000A                     	;# 
   120     000B                     	;# 
   121     000C                     	;# 
   122     000D                     	;# 
   123     000E                     	;# 
   124     000E                     	;# 
   125     000F                     	;# 
   126     0010                     	;# 
   127     0011                     	;# 
   128     0012                     	;# 
   129     0013                     	;# 
   130     0014                     	;# 
   131     0015                     	;# 
   132     0015                     	;# 
   133     0016                     	;# 
   134     0017                     	;# 
   135     0018                     	;# 
   136     0019                     	;# 
   137     001A                     	;# 
   138     001B                     	;# 
   139     001B                     	;# 
   140     001C                     	;# 
   141     001D                     	;# 
   142     001E                     	;# 
   143     001F                     	;# 
   144     0081                     	;# 
   145     0085                     	;# 
   146     0086                     	;# 
   147     0087                     	;# 
   148     0088                     	;# 
   149     0089                     	;# 
   150     008C                     	;# 
   151     008D                     	;# 
   152     008E                     	;# 
   153     0091                     	;# 
   154     0092                     	;# 
   155     0093                     	;# 
   156     0094                     	;# 
   157     0098                     	;# 
   158     0099                     	;# 
   159     009C                     	;# 
   160     009D                     	;# 
   161     009E                     	;# 
   162     009F                     	;# 
   163     010C                     	;# 
   164     010D                     	;# 
   165     010E                     	;# 
   166     010F                     	;# 
   167     018C                     	;# 
   168     018D                     	;# 
   169     0000                     	;# 
   170     0001                     	;# 
   171     0002                     	;# 
   172     0003                     	;# 
   173     0004                     	;# 
   174     0005                     	;# 
   175     0006                     	;# 
   176     0007                     	;# 
   177     0008                     	;# 
   178     0009                     	;# 
   179     000A                     	;# 
   180     000B                     	;# 
   181     000C                     	;# 
   182     000D                     	;# 
   183     000E                     	;# 
   184     000E                     	;# 
   185     000F                     	;# 
   186     0010                     	;# 
   187     0011                     	;# 
   188     0012                     	;# 
   189     0013                     	;# 
   190     0014                     	;# 
   191     0015                     	;# 
   192     0015                     	;# 
   193     0016                     	;# 
   194     0017                     	;# 
   195     0018                     	;# 
   196     0019                     	;# 
   197     001A                     	;# 
   198     001B                     	;# 
   199     001B                     	;# 
   200     001C                     	;# 
   201     001D                     	;# 
   202     001E                     	;# 
   203     001F                     	;# 
   204     0081                     	;# 
   205     0085                     	;# 
   206     0086                     	;# 
   207     0087                     	;# 
   208     0088                     	;# 
   209     0089                     	;# 
   210     008C                     	;# 
   211     008D                     	;# 
   212     008E                     	;# 
   213     0091                     	;# 
   214     0092                     	;# 
   215     0093                     	;# 
   216     0094                     	;# 
   217     0098                     	;# 
   218     0099                     	;# 
   219     009C                     	;# 
   220     009D                     	;# 
   221     009E                     	;# 
   222     009F                     	;# 
   223     010C                     	;# 
   224     010D                     	;# 
   225     010E                     	;# 
   226     010F                     	;# 
   227     018C                     	;# 
   228     018D                     	;# 
   229     0000                     	;# 
   230     0001                     	;# 
   231     0002                     	;# 
   232     0003                     	;# 
   233     0004                     	;# 
   234     0005                     	;# 
   235     0006                     	;# 
   236     0007                     	;# 
   237     0008                     	;# 
   238     0009                     	;# 
   239     000A                     	;# 
   240     000B                     	;# 
   241     000C                     	;# 
   242     000D                     	;# 
   243     000E                     	;# 
   244     000E                     	;# 
   245     000F                     	;# 
   246     0010                     	;# 
   247     0011                     	;# 
   248     0012                     	;# 
   249     0013                     	;# 
   250     0014                     	;# 
   251     0015                     	;# 
   252     0015                     	;# 
   253     0016                     	;# 
   254     0017                     	;# 
   255     0018                     	;# 
   256     0019                     	;# 
   257     001A                     	;# 
   258     001B                     	;# 
   259     001B                     	;# 
   260     001C                     	;# 
   261     001D                     	;# 
   262     001E                     	;# 
   263     001F                     	;# 
   264     0081                     	;# 
   265     0085                     	;# 
   266     0086                     	;# 
   267     0087                     	;# 
   268     0088                     	;# 
   269     0089                     	;# 
   270     008C                     	;# 
   271     008D                     	;# 
   272     008E                     	;# 
   273     0091                     	;# 
   274     0092                     	;# 
   275     0093                     	;# 
   276     0094                     	;# 
   277     0098                     	;# 
   278     0099                     	;# 
   279     009C                     	;# 
   280     009D                     	;# 
   281     009E                     	;# 
   282     009F                     	;# 
   283     010C                     	;# 
   284     010D                     	;# 
   285     010E                     	;# 
   286     010F                     	;# 
   287     018C                     	;# 
   288     018D                     	;# 
   289     0000                     	;# 
   290     0001                     	;# 
   291     0002                     	;# 
   292     0003                     	;# 
   293     0004                     	;# 
   294     0005                     	;# 
   295     0006                     	;# 
   296     0007                     	;# 
   297     0008                     	;# 
   298     0009                     	;# 
   299     000A                     	;# 
   300     000B                     	;# 
   301     000C                     	;# 
   302     000D                     	;# 
   303     000E                     	;# 
   304     000E                     	;# 
   305     000F                     	;# 
   306     0010                     	;# 
   307     0011                     	;# 
   308     0012                     	;# 
   309     0013                     	;# 
   310     0014                     	;# 
   311     0015                     	;# 
   312     0015                     	;# 
   313     0016                     	;# 
   314     0017                     	;# 
   315     0018                     	;# 
   316     0019                     	;# 
   317     001A                     	;# 
   318     001B                     	;# 
   319     001B                     	;# 
   320     001C                     	;# 
   321     001D                     	;# 
   322     001E                     	;# 
   323     001F                     	;# 
   324     0081                     	;# 
   325     0085                     	;# 
   326     0086                     	;# 
   327     0087                     	;# 
   328     0088                     	;# 
   329     0089                     	;# 
   330     008C                     	;# 
   331     008D                     	;# 
   332     008E                     	;# 
   333     0091                     	;# 
   334     0092                     	;# 
   335     0093                     	;# 
   336     0094                     	;# 
   337     0098                     	;# 
   338     0099                     	;# 
   339     009C                     	;# 
   340     009D                     	;# 
   341     009E                     	;# 
   342     009F                     	;# 
   343     010C                     	;# 
   344     010D                     	;# 
   345     010E                     	;# 
   346     010F                     	;# 
   347     018C                     	;# 
   348     018D                     	;# 
   349     0000                     	;# 
   350     0001                     	;# 
   351     0002                     	;# 
   352     0003                     	;# 
   353     0004                     	;# 
   354     0005                     	;# 
   355     0006                     	;# 
   356     0007                     	;# 
   357     0008                     	;# 
   358     0009                     	;# 
   359     000A                     	;# 
   360     000B                     	;# 
   361     000C                     	;# 
   362     000D                     	;# 
   363     000E                     	;# 
   364     000E                     	;# 
   365     000F                     	;# 
   366     0010                     	;# 
   367     0011                     	;# 
   368     0012                     	;# 
   369     0013                     	;# 
   370     0014                     	;# 
   371     0015                     	;# 
   372     0015                     	;# 
   373     0016                     	;# 
   374     0017                     	;# 
   375     0018                     	;# 
   376     0019                     	;# 
   377     001A                     	;# 
   378     001B                     	;# 
   379     001B                     	;# 
   380     001C                     	;# 
   381     001D                     	;# 
   382     001E                     	;# 
   383     001F                     	;# 
   384     0081                     	;# 
   385     0085                     	;# 
   386     0086                     	;# 
   387     0087                     	;# 
   388     0088                     	;# 
   389     0089                     	;# 
   390     008C                     	;# 
   391     008D                     	;# 
   392     008E                     	;# 
   393     0091                     	;# 
   394     0092                     	;# 
   395     0093                     	;# 
   396     0094                     	;# 
   397     0098                     	;# 
   398     0099                     	;# 
   399     009C                     	;# 
   400     009D                     	;# 
   401     009E                     	;# 
   402     009F                     	;# 
   403     010C                     	;# 
   404     010D                     	;# 
   405     010E                     	;# 
   406     010F                     	;# 
   407     018C                     	;# 
   408     018D                     	;# 
   409     0000                     	;# 
   410     0001                     	;# 
   411     0002                     	;# 
   412     0003                     	;# 
   413     0004                     	;# 
   414     0005                     	;# 
   415     0006                     	;# 
   416     0007                     	;# 
   417     0008                     	;# 
   418     0009                     	;# 
   419     000A                     	;# 
   420     000B                     	;# 
   421     000C                     	;# 
   422     000D                     	;# 
   423     000E                     	;# 
   424     000E                     	;# 
   425     000F                     	;# 
   426     0010                     	;# 
   427     0011                     	;# 
   428     0012                     	;# 
   429     0013                     	;# 
   430     0014                     	;# 
   431     0015                     	;# 
   432     0015                     	;# 
   433     0016                     	;# 
   434     0017                     	;# 
   435     0018                     	;# 
   436     0019                     	;# 
   437     001A                     	;# 
   438     001B                     	;# 
   439     001B                     	;# 
   440     001C                     	;# 
   441     001D                     	;# 
   442     001E                     	;# 
   443     001F                     	;# 
   444     0081                     	;# 
   445     0085                     	;# 
   446     0086                     	;# 
   447     0087                     	;# 
   448     0088                     	;# 
   449     0089                     	;# 
   450     008C                     	;# 
   451     008D                     	;# 
   452     008E                     	;# 
   453     0091                     	;# 
   454     0092                     	;# 
   455     0093                     	;# 
   456     0094                     	;# 
   457     0098                     	;# 
   458     0099                     	;# 
   459     009C                     	;# 
   460     009D                     	;# 
   461     009E                     	;# 
   462     009F                     	;# 
   463     010C                     	;# 
   464     010D                     	;# 
   465     010E                     	;# 
   466     010F                     	;# 
   467     018C                     	;# 
   468     018D                     	;# 
   469     0000                     	;# 
   470     0001                     	;# 
   471     0002                     	;# 
   472     0003                     	;# 
   473     0004                     	;# 
   474     0005                     	;# 
   475     0006                     	;# 
   476     0007                     	;# 
   477     0008                     	;# 
   478     0009                     	;# 
   479     000A                     	;# 
   480     000B                     	;# 
   481     000C                     	;# 
   482     000D                     	;# 
   483     000E                     	;# 
   484     000E                     	;# 
   485     000F                     	;# 
   486     0010                     	;# 
   487     0011                     	;# 
   488     0012                     	;# 
   489     0013                     	;# 
   490     0014                     	;# 
   491     0015                     	;# 
   492     0015                     	;# 
   493     0016                     	;# 
   494     0017                     	;# 
   495     0018                     	;# 
   496     0019                     	;# 
   497     001A                     	;# 
   498     001B                     	;# 
   499     001B                     	;# 
   500     001C                     	;# 
   501     001D                     	;# 
   502     001E                     	;# 
   503     001F                     	;# 
   504     0081                     	;# 
   505     0085                     	;# 
   506     0086                     	;# 
   507     0087                     	;# 
   508     0088                     	;# 
   509     0089                     	;# 
   510     008C                     	;# 
   511     008D                     	;# 
   512     008E                     	;# 
   513     0091                     	;# 
   514     0092                     	;# 
   515     0093                     	;# 
   516     0094                     	;# 
   517     0098                     	;# 
   518     0099                     	;# 
   519     009C                     	;# 
   520     009D                     	;# 
   521     009E                     	;# 
   522     009F                     	;# 
   523     010C                     	;# 
   524     010D                     	;# 
   525     010E                     	;# 
   526     010F                     	;# 
   527     018C                     	;# 
   528     018D                     	;# 
   529     0000                     	;# 
   530     0001                     	;# 
   531     0002                     	;# 
   532     0003                     	;# 
   533     0004                     	;# 
   534     0005                     	;# 
   535     0006                     	;# 
   536     0007                     	;# 
   537     0008                     	;# 
   538     0009                     	;# 
   539     000A                     	;# 
   540     000B                     	;# 
   541     000C                     	;# 
   542     000D                     	;# 
   543     000E                     	;# 
   544     000E                     	;# 
   545     000F                     	;# 
   546     0010                     	;# 
   547     0011                     	;# 
   548     0012                     	;# 
   549     0013                     	;# 
   550     0014                     	;# 
   551     0015                     	;# 
   552     0015                     	;# 
   553     0016                     	;# 
   554     0017                     	;# 
   555     0018                     	;# 
   556     0019                     	;# 
   557     001A                     	;# 
   558     001B                     	;# 
   559     001B                     	;# 
   560     001C                     	;# 
   561     001D                     	;# 
   562     001E                     	;# 
   563     001F                     	;# 
   564     0081                     	;# 
   565     0085                     	;# 
   566     0086                     	;# 
   567     0087                     	;# 
   568     0088                     	;# 
   569     0089                     	;# 
   570     008C                     	;# 
   571     008D                     	;# 
   572     008E                     	;# 
   573     0091                     	;# 
   574     0092                     	;# 
   575     0093                     	;# 
   576     0094                     	;# 
   577     0098                     	;# 
   578     0099                     	;# 
   579     009C                     	;# 
   580     009D                     	;# 
   581     009E                     	;# 
   582     009F                     	;# 
   583     010C                     	;# 
   584     010D                     	;# 
   585     010E                     	;# 
   586     010F                     	;# 
   587     018C                     	;# 
   588     018D                     	;# 
   589     0000                     	;# 
   590     0001                     	;# 
   591     0002                     	;# 
   592     0003                     	;# 
   593     0004                     	;# 
   594     0005                     	;# 
   595     0006                     	;# 
   596     0007                     	;# 
   597     0008                     	;# 
   598     0009                     	;# 
   599     000A                     	;# 
   600     000B                     	;# 
   601     000C                     	;# 
   602     000D                     	;# 
   603     000E                     	;# 
   604     000E                     	;# 
   605     000F                     	;# 
   606     0010                     	;# 
   607     0011                     	;# 
   608     0012                     	;# 
   609     0013                     	;# 
   610     0014                     	;# 
   611     0015                     	;# 
   612     0015                     	;# 
   613     0016                     	;# 
   614     0017                     	;# 
   615     0018                     	;# 
   616     0019                     	;# 
   617     001A                     	;# 
   618     001B                     	;# 
   619     001B                     	;# 
   620     001C                     	;# 
   621     001D                     	;# 
   622     001E                     	;# 
   623     001F                     	;# 
   624     0081                     	;# 
   625     0085                     	;# 
   626     0086                     	;# 
   627     0087                     	;# 
   628     0088                     	;# 
   629     0089                     	;# 
   630     008C                     	;# 
   631     008D                     	;# 
   632     008E                     	;# 
   633     0091                     	;# 
   634     0092                     	;# 
   635     0093                     	;# 
   636     0094                     	;# 
   637     0098                     	;# 
   638     0099                     	;# 
   639     009C                     	;# 
   640     009D                     	;# 
   641     009E                     	;# 
   642     009F                     	;# 
   643     010C                     	;# 
   644     010D                     	;# 
   645     010E                     	;# 
   646     010F                     	;# 
   647     018C                     	;# 
   648     018D                     	;# 
   649     0000                     	;# 
   650     0001                     	;# 
   651     0002                     	;# 
   652     0003                     	;# 
   653     0004                     	;# 
   654     0005                     	;# 
   655     0006                     	;# 
   656     0007                     	;# 
   657     0008                     	;# 
   658     0009                     	;# 
   659     000A                     	;# 
   660     000B                     	;# 
   661     000C                     	;# 
   662     000D                     	;# 
   663     000E                     	;# 
   664     000E                     	;# 
   665     000F                     	;# 
   666     0010                     	;# 
   667     0011                     	;# 
   668     0012                     	;# 
   669     0013                     	;# 
   670     0014                     	;# 
   671     0015                     	;# 
   672     0015                     	;# 
   673     0016                     	;# 
   674     0017                     	;# 
   675     0018                     	;# 
   676     0019                     	;# 
   677     001A                     	;# 
   678     001B                     	;# 
   679     001B                     	;# 
   680     001C                     	;# 
   681     001D                     	;# 
   682     001E                     	;# 
   683     001F                     	;# 
   684     0081                     	;# 
   685     0085                     	;# 
   686     0086                     	;# 
   687     0087                     	;# 
   688     0088                     	;# 
   689     0089                     	;# 
   690     008C                     	;# 
   691     008D                     	;# 
   692     008E                     	;# 
   693     0091                     	;# 
   694     0092                     	;# 
   695     0093                     	;# 
   696     0094                     	;# 
   697     0098                     	;# 
   698     0099                     	;# 
   699     009C                     	;# 
   700     009D                     	;# 
   701     009E                     	;# 
   702     009F                     	;# 
   703     010C                     	;# 
   704     010D                     	;# 
   705     010E                     	;# 
   706     010F                     	;# 
   707     018C                     	;# 
   708     018D                     	;# 
   709     0000                     	;# 
   710     0001                     	;# 
   711     0002                     	;# 
   712     0003                     	;# 
   713     0004                     	;# 
   714     0005                     	;# 
   715     0006                     	;# 
   716     0007                     	;# 
   717     0008                     	;# 
   718     0009                     	;# 
   719     000A                     	;# 
   720     000B                     	;# 
   721     000C                     	;# 
   722     000D                     	;# 
   723     000E                     	;# 
   724     000E                     	;# 
   725     000F                     	;# 
   726     0010                     	;# 
   727     0011                     	;# 
   728     0012                     	;# 
   729     0013                     	;# 
   730     0014                     	;# 
   731     0015                     	;# 
   732     0015                     	;# 
   733     0016                     	;# 
   734     0017                     	;# 
   735     0018                     	;# 
   736     0019                     	;# 
   737     001A                     	;# 
   738     001B                     	;# 
   739     001B                     	;# 
   740     001C                     	;# 
   741     001D                     	;# 
   742     001E                     	;# 
   743     001F                     	;# 
   744     0081                     	;# 
   745     0085                     	;# 
   746     0086                     	;# 
   747     0087                     	;# 
   748     0088                     	;# 
   749     0089                     	;# 
   750     008C                     	;# 
   751     008D                     	;# 
   752     008E                     	;# 
   753     0091                     	;# 
   754     0092                     	;# 
   755     0093                     	;# 
   756     0094                     	;# 
   757     0098                     	;# 
   758     0099                     	;# 
   759     009C                     	;# 
   760     009D                     	;# 
   761     009E                     	;# 
   762     009F                     	;# 
   763     010C                     	;# 
   764     010D                     	;# 
   765     010E                     	;# 
   766     010F                     	;# 
   767     018C                     	;# 
   768     018D                     	;# 
   769     0000                     	;# 
   770     0001                     	;# 
   771     0002                     	;# 
   772     0003                     	;# 
   773     0004                     	;# 
   774     0005                     	;# 
   775     0006                     	;# 
   776     0007                     	;# 
   777     0008                     	;# 
   778     0009                     	;# 
   779     000A                     	;# 
   780     000B                     	;# 
   781     000C                     	;# 
   782     000D                     	;# 
   783     000E                     	;# 
   784     000E                     	;# 
   785     000F                     	;# 
   786     0010                     	;# 
   787     0011                     	;# 
   788     0012                     	;# 
   789     0013                     	;# 
   790     0014                     	;# 
   791     0015                     	;# 
   792     0015                     	;# 
   793     0016                     	;# 
   794     0017                     	;# 
   795     0018                     	;# 
   796     0019                     	;# 
   797     001A                     	;# 
   798     001B                     	;# 
   799     001B                     	;# 
   800     001C                     	;# 
   801     001D                     	;# 
   802     001E                     	;# 
   803     001F                     	;# 
   804     0081                     	;# 
   805     0085                     	;# 
   806     0086                     	;# 
   807     0087                     	;# 
   808     0088                     	;# 
   809     0089                     	;# 
   810     008C                     	;# 
   811     008D                     	;# 
   812     008E                     	;# 
   813     0091                     	;# 
   814     0092                     	;# 
   815     0093                     	;# 
   816     0094                     	;# 
   817     0098                     	;# 
   818     0099                     	;# 
   819     009C                     	;# 
   820     009D                     	;# 
   821     009E                     	;# 
   822     009F                     	;# 
   823     010C                     	;# 
   824     010D                     	;# 
   825     010E                     	;# 
   826     010F                     	;# 
   827     018C                     	;# 
   828     018D                     	;# 
   829                           
   830                           	psect	idataBANK0
   831     1224                     __pidataBANK0:
   832                           
   833                           ;initializer for read_digital_keypad@once
   834     1224  3401               	retlw	1
   835                           
   836                           ;initializer for login@attempts_rem
   837     1225  3403               	retlw	3
   838                           
   839                           ;initializer for _return_time
   840     1226  3405               	retlw	5
   841                           
   842                           ;initializer for _pos
   843     1227  34FF               	retlw	255
   844                           
   845                           	psect	idataBANK1
   846     12FB                     __pidataBANK1:
   847                           
   848                           ;initializer for _gear
   849     12FB  348D               	retlw	low (STR_1| (0+32768))
   850     12FC  3488               	retlw	high (STR_1| (0+32768))
   851     12FD  3493               	retlw	low (STR_2| (0+32768))
   852     12FE  3488               	retlw	high (STR_2| (0+32768))
   853     12FF  3481               	retlw	low (STR_3| (0+32768))
   854     1300  3488               	retlw	high (STR_3| (0+32768))
   855     1301  3484               	retlw	low (STR_4| (0+32768))
   856     1302  3488               	retlw	high (STR_4| (0+32768))
   857     1303  3487               	retlw	low (STR_5| (0+32768))
   858     1304  3488               	retlw	high (STR_5| (0+32768))
   859     1305  348A               	retlw	low (STR_6| (0+32768))
   860     1306  3488               	retlw	high (STR_6| (0+32768))
   861                           
   862                           ;initializer for _menu
   863     1307  345D               	retlw	low (STR_13| (0+32768))
   864     1308  3488               	retlw	high (STR_13| (0+32768))
   865     1309  344A               	retlw	low (STR_14| (0+32768))
   866     130A  3488               	retlw	high (STR_14| (0+32768))
   867     130B  3418               	retlw	low (STR_15| (0+32768))
   868     130C  3488               	retlw	high (STR_15| (0+32768))
   869     130D  34B1               	retlw	low (STR_16| (0+32768))
   870     130E  3487               	retlw	high (STR_16| (0+32768))
   871     130F  3454               	retlw	low (STR_17| (0+32768))
   872     1310  3488               	retlw	high (STR_17| (0+32768))
   873                           
   874                           ;initializer for main@F1013
   875     1311  344F               	retlw	79
   876     1312  344E               	retlw	78
   877     1313  3400               	retlw	0
   878     0019                     _TXREG	set	25
   879     001A                     _RCREG	set	26
   880     0006                     _PORTB	set	6
   881     001E                     _ADRESH	set	30
   882     0013                     _SSPBUF	set	19
   883     0008                     _PORTD	set	8
   884     0064                     _TXIF	set	100
   885     0065                     _RCIF	set	101
   886     00C4                     _CREN	set	196
   887     00C7                     _SPEN	set	199
   888     0061                     _TMR2IF	set	97
   889     0091                     _T2CKPS1	set	145
   890     0090                     _T2CKPS0	set	144
   891     0092                     _TMR2ON	set	146
   892     005E                     _PEIE	set	94
   893     005F                     _GIE	set	95
   894     00FA                     _nDONE	set	250
   895     00FA                     _GO	set	250
   896     00F8                     _ADON	set	248
   897     00A5                     _SSPEN	set	165
   898     00A3                     _SSPM3	set	163
   899     0049                     _RE1	set	73
   900     004A                     _RE2	set	74
   901     0099                     _SPBRG	set	153
   902     0092                     _PR2	set	146
   903     0086                     _TRISB	set	134
   904     009E                     _ADRESL	set	158
   905     0091                     _SSPCON2	set	145
   906     0093                     _SSPADD	set	147
   907     0088                     _TRISD	set	136
   908     0461                     _TMR2IE	set	1121
   909     04FF                     _ADFM	set	1279
   910     048E                     _ACKSTAT	set	1166
   911     048C                     _ACKEN	set	1164
   912     048D                     _ACKDT	set	1165
   913     048B                     _RCEN	set	1163
   914     048A                     _PEN	set	1162
   915     0488                     _SEN	set	1160
   916     04A2                     _R_nW	set	1186
   917     0449                     _TRISE1	set	1097
   918     044A                     _TRISE2	set	1098
   919                           
   920                           	psect	strings
   921     1000                     __pstrings:
   922     1000                     stringtab:
   923     1000                     __stringtab:
   924                           
   925                           ;	String table - string pointers are 2 bytes each
   926     1000  1BFF               	btfsc	btemp+1,7
   927     1001  280A               	ljmp	stringcode
   928     1002  1383               	bcf	3,7
   929     1003  187F               	btfsc	btemp+1,0
   930     1004  1783               	bsf	3,7
   931     1005  0800               	movf	0,w
   932     1006  0A84               	incf	4,f
   933     1007  1903               	skipnz
   934     1008  0AFF               	incf	btemp+1,f
   935     1009  0008               	return
   936     100A                     stringcode:
   937     100A  087F               	movf	btemp+1,w
   938     100B  397F               	andlw	127
   939     100C  008A               	movwf	10
   940     100D  0804               	movf	4,w
   941     100E  0A84               	incf	4,f
   942     100F  1903               	skipnz
   943     1010  0AFF               	incf	btemp+1,f
   944     1011  0082               	movwf	2
   945     1012                     __stringbase:
   946     1012                     __end_of__stringtab:
   947                           
   948                           	psect	stringtext
   949     0700                     __pstringtext:
   950     0700                     STR_33:
   951     0700  3452               	retlw	82	;'R'
   952     0701  3465               	retlw	101	;'e'
   953     0702  3420               	retlw	32	;' '
   954     0703  3465               	retlw	101	;'e'
   955     0704  346E               	retlw	110	;'n'
   956     0705  3474               	retlw	116	;'t'
   957     0706  3465               	retlw	101	;'e'
   958     0707  3472               	retlw	114	;'r'
   959     0708  3420               	retlw	32	;' '
   960     0709  346E               	retlw	110	;'n'
   961     070A  3465               	retlw	101	;'e'
   962     070B  3477               	retlw	119	;'w'
   963     070C  3420               	retlw	32	;' '
   964     070D  3470               	retlw	112	;'p'
   965     070E  3477               	retlw	119	;'w'
   966     070F  3464               	retlw	100	;'d'
   967     0710  3420               	retlw	32	;' '
   968     0711  3420               	retlw	32	;' '
   969     0712  3420               	retlw	32	;' '
   970     0713  3420               	retlw	32	;' '
   971     0714  3400               	retlw	0
   972     0715                     STR_32:
   973     0715  3445               	retlw	69	;'E'
   974     0716  346E               	retlw	110	;'n'
   975     0717  3474               	retlw	116	;'t'
   976     0718  3465               	retlw	101	;'e'
   977     0719  3472               	retlw	114	;'r'
   978     071A  3420               	retlw	32	;' '
   979     071B  346E               	retlw	110	;'n'
   980     071C  3465               	retlw	101	;'e'
   981     071D  3477               	retlw	119	;'w'
   982     071E  3420               	retlw	32	;' '
   983     071F  3470               	retlw	112	;'p'
   984     0720  3477               	retlw	119	;'w'
   985     0721  3464               	retlw	100	;'d'
   986     0722  3420               	retlw	32	;' '
   987     0723  3420               	retlw	32	;' '
   988     0724  3420               	retlw	32	;' '
   989     0725  3420               	retlw	32	;' '
   990     0726  3400               	retlw	0
   991     0727                     STR_24:
   992     0727  3423               	retlw	35	;'#'
   993     0728  3420               	retlw	32	;' '
   994     0729  3420               	retlw	32	;' '
   995     072A  3454               	retlw	84	;'T'
   996     072B  3449               	retlw	73	;'I'
   997     072C  344D               	retlw	77	;'M'
   998     072D  3445               	retlw	69	;'E'
   999     072E  3420               	retlw	32	;' '
  1000     072F  3420               	retlw	32	;' '
  1001     0730  3420               	retlw	32	;' '
  1002     0731  3420               	retlw	32	;' '
  1003     0732  3445               	retlw	69	;'E'
  1004     0733  3420               	retlw	32	;' '
  1005     0734  3420               	retlw	32	;' '
  1006     0735  3420               	retlw	32	;' '
  1007     0736  3453               	retlw	83	;'S'
  1008     0737  3450               	retlw	80	;'P'
  1009     0738  3400               	retlw	0
  1010     0739                     STR_25:
  1011     0739  344E               	retlw	78	;'N'
  1012     073A  346F               	retlw	111	;'o'
  1013     073B  3420               	retlw	32	;' '
  1014     073C  344C               	retlw	76	;'L'
  1015     073D  346F               	retlw	111	;'o'
  1016     073E  3467               	retlw	103	;'g'
  1017     073F  3473               	retlw	115	;'s'
  1018     0740  3420               	retlw	32	;' '
  1019     0741  3441               	retlw	65	;'A'
  1020     0742  3476               	retlw	118	;'v'
  1021     0743  3461               	retlw	97	;'a'
  1022     0744  3469               	retlw	105	;'i'
  1023     0745  346C               	retlw	108	;'l'
  1024     0746  3461               	retlw	97	;'a'
  1025     0747  3462               	retlw	98	;'b'
  1026     0748  346C               	retlw	108	;'l'
  1027     0749  3465               	retlw	101	;'e'
  1028     074A  3400               	retlw	0
  1029     074B                     STR_18:
  1030     074B  3420               	retlw	32	;' '
  1031     074C  3420               	retlw	32	;' '
  1032     074D  3454               	retlw	84	;'T'
  1033     074E  3449               	retlw	73	;'I'
  1034     074F  344D               	retlw	77	;'M'
  1035     0750  3445               	retlw	69	;'E'
  1036     0751  3420               	retlw	32	;' '
  1037     0752  3420               	retlw	32	;' '
  1038     0753  3420               	retlw	32	;' '
  1039     0754  3420               	retlw	32	;' '
  1040     0755  3420               	retlw	32	;' '
  1041     0756  3445               	retlw	69	;'E'
  1042     0757  3420               	retlw	32	;' '
  1043     0758  3420               	retlw	32	;' '
  1044     0759  3453               	retlw	83	;'S'
  1045     075A  3450               	retlw	80	;'P'
  1046     075B  3400               	retlw	0
  1047     075C                     STR_34:
  1048     075C  3450               	retlw	80	;'P'
  1049     075D  3461               	retlw	97	;'a'
  1050     075E  3473               	retlw	115	;'s'
  1051     075F  3473               	retlw	115	;'s'
  1052     0760  3477               	retlw	119	;'w'
  1053     0761  346F               	retlw	111	;'o'
  1054     0762  3472               	retlw	114	;'r'
  1055     0763  3464               	retlw	100	;'d'
  1056     0764  3420               	retlw	32	;' '
  1057     0765  3463               	retlw	99	;'c'
  1058     0766  3468               	retlw	104	;'h'
  1059     0767  3461               	retlw	97	;'a'
  1060     0768  346E               	retlw	110	;'n'
  1061     0769  3467               	retlw	103	;'g'
  1062     076A  3465               	retlw	101	;'e'
  1063     076B  3464               	retlw	100	;'d'
  1064     076C  3400               	retlw	0
  1065     076D                     STR_19:
  1066     076D  3420               	retlw	32	;' '
  1067     076E  3459               	retlw	89	;'Y'
  1068     076F  346F               	retlw	111	;'o'
  1069     0770  3475               	retlw	117	;'u'
  1070     0771  3420               	retlw	32	;' '
  1071     0772  3461               	retlw	97	;'a'
  1072     0773  3472               	retlw	114	;'r'
  1073     0774  3465               	retlw	101	;'e'
  1074     0775  3420               	retlw	32	;' '
  1075     0776  3462               	retlw	98	;'b'
  1076     0777  346C               	retlw	108	;'l'
  1077     0778  346F               	retlw	111	;'o'
  1078     0779  3463               	retlw	99	;'c'
  1079     077A  346B               	retlw	107	;'k'
  1080     077B  3465               	retlw	101	;'e'
  1081     077C  3464               	retlw	100	;'d'
  1082     077D  3400               	retlw	0
  1083     077E                     STR_36:
  1084     077E  3450               	retlw	80	;'P'
  1085     077F  3461               	retlw	97	;'a'
  1086     0780  3473               	retlw	115	;'s'
  1087     0781  3473               	retlw	115	;'s'
  1088     0782  3477               	retlw	119	;'w'
  1089     0783  346F               	retlw	111	;'o'
  1090     0784  3472               	retlw	114	;'r'
  1091     0785  3464               	retlw	100	;'d'
  1092     0786  3420               	retlw	32	;' '
  1093     0787  3420               	retlw	32	;' '
  1094     0788  3463               	retlw	99	;'c'
  1095     0789  3468               	retlw	104	;'h'
  1096     078A  3461               	retlw	97	;'a'
  1097     078B  346E               	retlw	110	;'n'
  1098     078C  3467               	retlw	103	;'g'
  1099     078D  3465               	retlw	101	;'e'
  1100     078E  3400               	retlw	0
  1101     078F                     STR_29:
  1102     078F  344E               	retlw	78	;'N'
  1103     0790  346F               	retlw	111	;'o'
  1104     0791  3420               	retlw	32	;' '
  1105     0792  346C               	retlw	108	;'l'
  1106     0793  346F               	retlw	111	;'o'
  1107     0794  3467               	retlw	103	;'g'
  1108     0795  3473               	retlw	115	;'s'
  1109     0796  3420               	retlw	32	;' '
  1110     0797  3461               	retlw	97	;'a'
  1111     0798  3476               	retlw	118	;'v'
  1112     0799  3461               	retlw	97	;'a'
  1113     079A  3469               	retlw	105	;'i'
  1114     079B  3461               	retlw	97	;'a'
  1115     079C  3462               	retlw	98	;'b'
  1116     079D  346C               	retlw	108	;'l'
  1117     079E  3465               	retlw	101	;'e'
  1118     079F  3400               	retlw	0
  1119     07A0                     STR_20:
  1120     07A0  3457               	retlw	87	;'W'
  1121     07A1  3461               	retlw	97	;'a'
  1122     07A2  3469               	retlw	105	;'i'
  1123     07A3  3474               	retlw	116	;'t'
  1124     07A4  3420               	retlw	32	;' '
  1125     07A5  3466               	retlw	102	;'f'
  1126     07A6  346F               	retlw	111	;'o'
  1127     07A7  3472               	retlw	114	;'r'
  1128     07A8  342E               	retlw	46	;'.'
  1129     07A9  342E               	retlw	46	;'.'
  1130     07AA  342E               	retlw	46	;'.'
  1131     07AB  3420               	retlw	32	;' '
  1132     07AC  3420               	retlw	32	;' '
  1133     07AD  346D               	retlw	109	;'m'
  1134     07AE  3469               	retlw	105	;'i'
  1135     07AF  346E               	retlw	110	;'n'
  1136     07B0  3400               	retlw	0
  1137     07B1                     STR_16:
  1138     07B1  3443               	retlw	67	;'C'
  1139     07B2  3468               	retlw	104	;'h'
  1140     07B3  3461               	retlw	97	;'a'
  1141     07B4  346E               	retlw	110	;'n'
  1142     07B5  3467               	retlw	103	;'g'
  1143     07B6  3465               	retlw	101	;'e'
  1144     07B7  3420               	retlw	32	;' '
  1145     07B8  3470               	retlw	112	;'p'
  1146     07B9  3461               	retlw	97	;'a'
  1147     07BA  3473               	retlw	115	;'s'
  1148     07BB  3473               	retlw	115	;'s'
  1149     07BC  3477               	retlw	119	;'w'
  1150     07BD  346F               	retlw	111	;'o'
  1151     07BE  3472               	retlw	114	;'r'
  1152     07BF  3464               	retlw	100	;'d'
  1153     07C0  3400               	retlw	0
  1154     07C1                     STR_22:
  1155     07C1  3420               	retlw	32	;' '
  1156     07C2  3441               	retlw	65	;'A'
  1157     07C3  3474               	retlw	116	;'t'
  1158     07C4  3474               	retlw	116	;'t'
  1159     07C5  3465               	retlw	101	;'e'
  1160     07C6  346D               	retlw	109	;'m'
  1161     07C7  3470               	retlw	112	;'p'
  1162     07C8  3474               	retlw	116	;'t'
  1163     07C9  3420               	retlw	32	;' '
  1164     07CA  3472               	retlw	114	;'r'
  1165     07CB  3465               	retlw	101	;'e'
  1166     07CC  346D               	retlw	109	;'m'
  1167     07CD  3461               	retlw	97	;'a'
  1168     07CE  3469               	retlw	105	;'i'
  1169     07CF  346E               	retlw	110	;'n'
  1170     07D0  3400               	retlw	0
  1171     07D1                     STR_9:
  1172     07D1  3420               	retlw	32	;' '
  1173     07D2  3445               	retlw	69	;'E'
  1174     07D3  346E               	retlw	110	;'n'
  1175     07D4  3474               	retlw	116	;'t'
  1176     07D5  3465               	retlw	101	;'e'
  1177     07D6  3472               	retlw	114	;'r'
  1178     07D7  3420               	retlw	32	;' '
  1179     07D8  3450               	retlw	80	;'P'
  1180     07D9  3461               	retlw	97	;'a'
  1181     07DA  3473               	retlw	115	;'s'
  1182     07DB  3473               	retlw	115	;'s'
  1183     07DC  3477               	retlw	119	;'w'
  1184     07DD  346F               	retlw	111	;'o'
  1185     07DE  3472               	retlw	114	;'r'
  1186     07DF  3464               	retlw	100	;'d'
  1187     07E0  3400               	retlw	0
  1188     07E1                     STR_21:
  1189     07E1  3457               	retlw	87	;'W'
  1190     07E2  3472               	retlw	114	;'r'
  1191     07E3  346F               	retlw	111	;'o'
  1192     07E4  346E               	retlw	110	;'n'
  1193     07E5  3467               	retlw	103	;'g'
  1194     07E6  3420               	retlw	32	;' '
  1195     07E7  3450               	retlw	80	;'P'
  1196     07E8  3461               	retlw	97	;'a'
  1197     07E9  3473               	retlw	115	;'s'
  1198     07EA  3473               	retlw	115	;'s'
  1199     07EB  3477               	retlw	119	;'w'
  1200     07EC  346F               	retlw	111	;'o'
  1201     07ED  3472               	retlw	114	;'r'
  1202     07EE  3464               	retlw	100	;'d'
  1203     07EF  3400               	retlw	0
  1204     07F0                     STR_35:
  1205     07F0  3473               	retlw	115	;'s'
  1206     07F1  3475               	retlw	117	;'u'
  1207     07F2  3463               	retlw	99	;'c'
  1208     07F3  3463               	retlw	99	;'c'
  1209     07F4  3465               	retlw	101	;'e'
  1210     07F5  3473               	retlw	115	;'s'
  1211     07F6  3473               	retlw	115	;'s'
  1212     07F7  3466               	retlw	102	;'f'
  1213     07F8  3475               	retlw	117	;'u'
  1214     07F9  346C               	retlw	108	;'l'
  1215     07FA  346C               	retlw	108	;'l'
  1216     07FB  3479               	retlw	121	;'y'
  1217     07FC  3420               	retlw	32	;' '
  1218     07FD  3400               	retlw	0
  1219     07FE                     STR_39:
  1220     07FE  3454               	retlw	84	;'T'
  1221     07FF  3469               	retlw	105	;'i'
  1222     0800  346D               	retlw	109	;'m'
  1223     0801  3465               	retlw	101	;'e'
  1224     0802  3420               	retlw	32	;' '
  1225     0803  3463               	retlw	99	;'c'
  1226     0804  3468               	retlw	104	;'h'
  1227     0805  3461               	retlw	97	;'a'
  1228     0806  346E               	retlw	110	;'n'
  1229     0807  3467               	retlw	103	;'g'
  1230     0808  3465               	retlw	101	;'e'
  1231     0809  3464               	retlw	100	;'d'
  1232     080A  3400               	retlw	0
  1233     080B                     STR_27:
  1234     080B  344C               	retlw	76	;'L'
  1235     080C  346F               	retlw	111	;'o'
  1236     080D  3467               	retlw	103	;'g'
  1237     080E  3473               	retlw	115	;'s'
  1238     080F  3420               	retlw	32	;' '
  1239     0810  3463               	retlw	99	;'c'
  1240     0811  346C               	retlw	108	;'l'
  1241     0812  3465               	retlw	101	;'e'
  1242     0813  3461               	retlw	97	;'a'
  1243     0814  3472               	retlw	114	;'r'
  1244     0815  3465               	retlw	101	;'e'
  1245     0816  3464               	retlw	100	;'d'
  1246     0817  3400               	retlw	0
  1247     0818                     STR_15:
  1248     0818  3444               	retlw	68	;'D'
  1249     0819  346F               	retlw	111	;'o'
  1250     081A  3477               	retlw	119	;'w'
  1251     081B  346E               	retlw	110	;'n'
  1252     081C  346C               	retlw	108	;'l'
  1253     081D  346F               	retlw	111	;'o'
  1254     081E  3461               	retlw	97	;'a'
  1255     081F  3464               	retlw	100	;'d'
  1256     0820  3420               	retlw	32	;' '
  1257     0821  346C               	retlw	108	;'l'
  1258     0822  346F               	retlw	111	;'o'
  1259     0823  3467               	retlw	103	;'g'
  1260     0824  3400               	retlw	0
  1261     0825                     STR_40:
  1262     0825  3453               	retlw	83	;'S'
  1263     0826  3475               	retlw	117	;'u'
  1264     0827  3463               	retlw	99	;'c'
  1265     0828  3463               	retlw	99	;'c'
  1266     0829  3465               	retlw	101	;'e'
  1267     082A  3473               	retlw	115	;'s'
  1268     082B  3473               	retlw	115	;'s'
  1269     082C  3466               	retlw	102	;'f'
  1270     082D  3475               	retlw	117	;'u'
  1271     082E  346C               	retlw	108	;'l'
  1272     082F  346C               	retlw	108	;'l'
  1273     0830  3479               	retlw	121	;'y'
  1274     0831  3400               	retlw	0
  1275     0832                     STR_28:
  1276     0832  3473               	retlw	115	;'s'
  1277     0833  3475               	retlw	117	;'u'
  1278     0834  3463               	retlw	99	;'c'
  1279     0835  3463               	retlw	99	;'c'
  1280     0836  3465               	retlw	101	;'e'
  1281     0837  3473               	retlw	115	;'s'
  1282     0838  3473               	retlw	115	;'s'
  1283     0839  3466               	retlw	102	;'f'
  1284     083A  3475               	retlw	117	;'u'
  1285     083B  346C               	retlw	108	;'l'
  1286     083C  346C               	retlw	108	;'l'
  1287     083D  3479               	retlw	121	;'y'
  1288     083E  3400               	retlw	0
  1289     083F                     STR_38:
  1290     083F  3420               	retlw	32	;' '
  1291     0840  3420               	retlw	32	;' '
  1292     0841  3448               	retlw	72	;'H'
  1293     0842  3448               	retlw	72	;'H'
  1294     0843  343A               	retlw	58	;':'
  1295     0844  344D               	retlw	77	;'M'
  1296     0845  344D               	retlw	77	;'M'
  1297     0846  343A               	retlw	58	;':'
  1298     0847  3453               	retlw	83	;'S'
  1299     0848  3453               	retlw	83	;'S'
  1300     0849  3400               	retlw	0
  1301     084A                     STR_14:
  1302     084A  3443               	retlw	67	;'C'
  1303     084B  346C               	retlw	108	;'l'
  1304     084C  3465               	retlw	101	;'e'
  1305     084D  3461               	retlw	97	;'a'
  1306     084E  3472               	retlw	114	;'r'
  1307     084F  3420               	retlw	32	;' '
  1308     0850  346C               	retlw	108	;'l'
  1309     0851  346F               	retlw	111	;'o'
  1310     0852  3467               	retlw	103	;'g'
  1311     0853  3400               	retlw	0
  1312     0854                     STR_17:
  1313     0854  3453               	retlw	83	;'S'
  1314     0855  3465               	retlw	101	;'e'
  1315     0856  3474               	retlw	116	;'t'
  1316     0857  3420               	retlw	32	;' '
  1317     0858  3474               	retlw	116	;'t'
  1318     0859  3469               	retlw	105	;'i'
  1319     085A  346D               	retlw	109	;'m'
  1320     085B  3465               	retlw	101	;'e'
  1321     085C  3400               	retlw	0
  1322     085D                     STR_13:
  1323     085D  3456               	retlw	86	;'V'
  1324     085E  3469               	retlw	105	;'i'
  1325     085F  3465               	retlw	101	;'e'
  1326     0860  3477               	retlw	119	;'w'
  1327     0861  3420               	retlw	32	;' '
  1328     0862  346C               	retlw	108	;'l'
  1329     0863  346F               	retlw	111	;'o'
  1330     0864  3467               	retlw	103	;'g'
  1331     0865  3400               	retlw	0
  1332     0866                     STR_30:
  1333     0866  344C               	retlw	76	;'L'
  1334     0867  346F               	retlw	111	;'o'
  1335     0868  3467               	retlw	103	;'g'
  1336     0869  3473               	retlw	115	;'s'
  1337     086A  3420               	retlw	32	;' '
  1338     086B  343A               	retlw	58	;':'
  1339     086C  3400               	retlw	0
  1340     086D                     STR_37:
  1341     086D  3466               	retlw	102	;'f'
  1342     086E  3461               	retlw	97	;'a'
  1343     086F  3469               	retlw	105	;'i'
  1344     0870  346C               	retlw	108	;'l'
  1345     0871  3465               	retlw	101	;'e'
  1346     0872  3464               	retlw	100	;'d'
  1347     0873  3400               	retlw	0
  1348     0874                     STR_7:
  1349     0874  3431               	retlw	49	;'1'
  1350     0875  3430               	retlw	48	;'0'
  1351     0876  3431               	retlw	49	;'1'
  1352     0877  3430               	retlw	48	;'0'
  1353     0878  3400               	retlw	0
  1354     0879                     STR_10:
  1355     0879  344C               	retlw	76	;'L'
  1356     087A  346F               	retlw	111	;'o'
  1357     087B  3467               	retlw	103	;'g'
  1358     087C  3473               	retlw	115	;'s'
  1359     087D  3400               	retlw	0
  1360     087E                     STR_8:
  1361     087E  3443               	retlw	67	;'C'
  1362     087F  3420               	retlw	32	;' '
  1363     0880  3400               	retlw	0
  1364     0881                     STR_3:
  1365     0881  3447               	retlw	71	;'G'
  1366     0882  3431               	retlw	49	;'1'
  1367     0883  3400               	retlw	0
  1368     0884                     STR_4:
  1369     0884  3447               	retlw	71	;'G'
  1370     0885  3432               	retlw	50	;'2'
  1371     0886  3400               	retlw	0
  1372     0887                     STR_5:
  1373     0887  3447               	retlw	71	;'G'
  1374     0888  3433               	retlw	51	;'3'
  1375     0889  3400               	retlw	0
  1376     088A                     STR_6:
  1377     088A  3447               	retlw	71	;'G'
  1378     088B  3434               	retlw	52	;'4'
  1379     088C  3400               	retlw	0
  1380     088D                     STR_1:
  1381     088D  3447               	retlw	71	;'G'
  1382     088E  344E               	retlw	78	;'N'
  1383     088F  3400               	retlw	0
  1384     0890                     STR_11:
  1385     0890  3443               	retlw	67	;'C'
  1386     0891  3450               	retlw	80	;'P'
  1387     0892  3400               	retlw	0
  1388     0893                     STR_2:
  1389     0893  3447               	retlw	71	;'G'
  1390     0894  3452               	retlw	82	;'R'
  1391     0895  3400               	retlw	0
  1392     0896                     STR_12:
  1393     0896  3443               	retlw	67	;'C'
  1394     0897  3454               	retlw	84	;'T'
  1395     0898  3400               	retlw	0
  1396     0724                     
  1397                           	psect	cinit
  1398     000F                     start_initialization:	
  1399                           ; #config settings
  1400                           
  1401     000F                     __initialization:
  1402                           
  1403                           ; Initialize objects allocated to BANK1
  1404     000F  1383               	bcf	3,7	;select IRP bank0
  1405     0010  30B9               	movlw	low (__pdataBANK1+25)
  1406     0011  00FD               	movwf	btemp+-1
  1407     0012  3012               	movlw	high __pidataBANK1
  1408     0013  00FE               	movwf	btemp
  1409     0014  30FB               	movlw	low __pidataBANK1
  1410     0015  00FF               	movwf	btemp+1
  1411     0016  30A0               	movlw	low __pdataBANK1
  1412     0017  0084               	movwf	4
  1413     0018  160A  118A  22C2  120A  118A  	fcall	init_ram0
  1414                           
  1415                           ; Initialize objects allocated to BANK0
  1416     001D  3067               	movlw	low (__pdataBANK0+4)
  1417     001E  00FD               	movwf	btemp+-1
  1418     001F  3012               	movlw	high __pidataBANK0
  1419     0020  00FE               	movwf	btemp
  1420     0021  3024               	movlw	low __pidataBANK0
  1421     0022  00FF               	movwf	btemp+1
  1422     0023  3063               	movlw	low __pdataBANK0
  1423     0024  0084               	movwf	4
  1424     0025  160A  118A  22C2  120A  118A  	fcall	init_ram0
  1425                           
  1426                           ; Clear objects allocated to BANK1
  1427     002A  30B9               	movlw	low __pbssBANK1
  1428     002B  0084               	movwf	4
  1429     002C  30CD               	movlw	low (__pbssBANK1+20)
  1430     002D  160A  118A  2235  120A  118A  	fcall	clear_ram0
  1431                           
  1432                           ; Clear objects allocated to BANK0
  1433     0032  3020               	movlw	low __pbssBANK0
  1434     0033  0084               	movwf	4
  1435     0034  3045               	movlw	low (__pbssBANK0+37)
  1436     0035  160A  118A  2235  120A  118A  	fcall	clear_ram0
  1437                           
  1438                           ; Clear objects allocated to COMMON
  1439     003A  01F9               	clrf	__pbssCOMMON& (0+127)
  1440     003B  01FA               	clrf	(__pbssCOMMON+1)& (0+127)
  1441     003C  01FB               	clrf	(__pbssCOMMON+2)& (0+127)
  1442     003D                     end_of_initialization:	
  1443                           ;End of C runtime variable initialization code
  1444                           
  1445     003D                     __end_of__initialization:
  1446     003D  0183               	clrf	3
  1447     003E  120A  118A  2841   	ljmp	_main	;jump to C main() function
  1448                           
  1449                           	psect	bssCOMMON
  1450     0079                     __pbssCOMMON:
  1451     0079                     _clock_reg:
  1452     0079                     	ds	3
  1453                           
  1454                           	psect	bssBANK0
  1455     0020                     __pbssBANK0:
  1456     0020                     set_time@new_time:
  1457     0020                     	ds	6
  1458     0026                     isr@count:
  1459     0026                     	ds	4
  1460     002A                     set_time@blink_pos:
  1461     002A                     	ds	2
  1462     002C                     change_password@pwd_pos:
  1463     002C                     	ds	2
  1464     002E                     _event_count:
  1465     002E                     	ds	2
  1466     0030                     set_time@done:
  1467     0030                     	ds	1
  1468     0031                     set_time@blink:
  1469     0031                     	ds	1
  1470     0032                     set_time@wait:
  1471     0032                     	ds	1
  1472     0033                     change_password@i:
  1473     0033                     	ds	1
  1474     0034                     view_log@shift:
  1475     0034                     	ds	1
  1476     0035                     login_menu@menu_pos:
  1477     0035                     	ds	1
  1478     0036                     login@i:
  1479     0036                     	ds	1
  1480     0037                     _overflow:
  1481     0037                     	ds	1
  1482     0038                     _min:
  1483     0038                     	ds	1
  1484     0039                     _menu_pos:
  1485     0039                     	ds	1
  1486     003A                     _time:
  1487     003A                     	ds	7
  1488     0041                     login@npassword:
  1489     0041                     	ds	4
  1490                           
  1491                           	psect	dataBANK0
  1492     0063                     __pdataBANK0:
  1493     0063                     read_digital_keypad@once:
  1494     0063                     	ds	1
  1495     0064                     login@attempts_rem:
  1496     0064                     	ds	1
  1497     0065                     _return_time:
  1498     0065                     	ds	1
  1499     0066                     _pos:
  1500     0066                     	ds	1
  1501                           
  1502                           	psect	bssBANK1
  1503     00B9                     __pbssBANK1:
  1504     00B9                     _log:
  1505     00B9                     	ds	11
  1506     00C4                     change_password@new_pwd:
  1507     00C4                     	ds	9
  1508                           
  1509                           	psect	dataBANK1
  1510     00A0                     __pdataBANK1:
  1511     00A0                     _gear:
  1512     00A0                     	ds	12
  1513     00AC                     _menu:
  1514     00AC                     	ds	10
  1515     00B6                     main@F1013:
  1516     00B6                     	ds	3
  1517                           
  1518                           	psect	inittext
  1519     12BE                     init_fetch0:	
  1520                           ;	Called with low address in FSR and high address in W
  1521                           
  1522     12BE  087E               	movf	btemp,w
  1523     12BF  008A               	movwf	10
  1524     12C0  087F               	movf	btemp+1,w
  1525     12C1  0082               	movwf	2
  1526     12C2                     init_ram0:	
  1527                           ;Called with:
  1528                           ;	high address of idata address in btemp 
  1529                           ;	low address of idata address in btemp+1 
  1530                           ;	low address of data in FSR
  1531                           ;	high address + 1 of data in btemp-1
  1532                           
  1533     12C2  160A  118A  22BE  160A  118A  	fcall	init_fetch0
  1534     12C7  0080               	movwf	0
  1535     12C8  0A84               	incf	4,f
  1536     12C9  0804               	movf	4,w
  1537     12CA  067D               	xorwf	btemp+-1,w
  1538     12CB  1903               	btfsc	3,2
  1539     12CC  3400               	retlw	0
  1540     12CD  0AFF               	incf	btemp+1,f
  1541     12CE  1903               	btfsc	3,2
  1542     12CF  0AFE               	incf	btemp,f
  1543     12D0  2AC2               	goto	init_ram0
  1544                           
  1545                           	psect	clrtext
  1546     1235                     clear_ram0:	
  1547                           ;	Called with FSR containing the base address, and
  1548                           ;	W with the last address+1
  1549                           
  1550     1235  0064               	clrwdt	;clear the watchdog before getting into this loop
  1551     1236                     clrloop0:
  1552     1236  0180               	clrf	0	;clear RAM location pointed to by FSR
  1553     1237  0A84               	incf	4,f	;increment pointer
  1554     1238  0604               	xorwf	4,w	;XOR with final address
  1555     1239  1903               	btfsc	3,2	;have we reached the end yet?
  1556     123A  3400               	retlw	0	;all done for this memory range, return
  1557     123B  0604               	xorwf	4,w	;XOR again to restore value
  1558     123C  2A36               	goto	clrloop0	;do the next byte
  1559                           
  1560                           	psect	cstackBANK1
  1561     00CD                     __pcstackBANK1:
  1562     00CD                     main@event:
  1563                           
  1564                           ; 3 bytes @ 0x0
  1565     00CD                     	ds	3
  1566     00D0                     main@gr:
  1567                           
  1568                           ; 1 bytes @ 0x3
  1569     00D0                     	ds	1
  1570     00D1                     main@wait_time:
  1571                           
  1572                           ; 4 bytes @ 0x4
  1573     00D1                     	ds	4
  1574     00D5                     main@speed:
  1575                           
  1576                           ; 1 bytes @ 0x8
  1577     00D5                     	ds	1
  1578     00D6                     main@reset_flag:
  1579                           
  1580                           ; 1 bytes @ 0x9
  1581     00D6                     	ds	1
  1582     00D7                     main@control_flag:
  1583                           
  1584                           ; 1 bytes @ 0xA
  1585     00D7                     	ds	1
  1586     00D8                     main@key:
  1587                           
  1588                           ; 1 bytes @ 0xB
  1589     00D8                     	ds	1
  1590                           
  1591                           	psect	cstackCOMMON
  1592     0070                     __pcstackCOMMON:
  1593     0070                     ?_read_ds1307:
  1594     0070                     ?_i2c_start:	
  1595                           ; 1 bytes @ 0x0
  1596                           
  1597     0070                     ?_i2c_rep_start:	
  1598                           ; 1 bytes @ 0x0
  1599                           
  1600     0070                     ?_i2c_read:	
  1601                           ; 1 bytes @ 0x0
  1602                           
  1603     0070                     ?_i2c_stop:	
  1604                           ; 1 bytes @ 0x0
  1605                           
  1606     0070                     ?_init_digital_keypad:	
  1607                           ; 1 bytes @ 0x0
  1608                           
  1609     0070                     ?_init_timer2:	
  1610                           ; 1 bytes @ 0x0
  1611                           
  1612     0070                     ?_read_digital_keypad:	
  1613                           ; 1 bytes @ 0x0
  1614                           
  1615     0070                     ?_clear_screen:	
  1616                           ; 1 bytes @ 0x0
  1617                           
  1618     0070                     ?_clear_log:	
  1619                           ; 1 bytes @ 0x0
  1620                           
  1621     0070                     ?_download_log:	
  1622                           ; 1 bytes @ 0x0
  1623                           
  1624     0070                     ?_eeprom_at24c04_random_read:	
  1625                           ; 1 bytes @ 0x0
  1626                           
  1627     0070                     ?_putchar:	
  1628                           ; 1 bytes @ 0x0
  1629                           
  1630     0070                     ?_init_display_controller:	
  1631                           ; 1 bytes @ 0x0
  1632                           
  1633     0070                     ?_init_clcd:	
  1634                           ; 1 bytes @ 0x0
  1635                           
  1636     0070                     ?_init_ds1307:	
  1637                           ; 1 bytes @ 0x0
  1638                           
  1639     0070                     ?_i2c_wait_for_idle:	
  1640                           ; 1 bytes @ 0x0
  1641                           
  1642     0070                     ?_init_adc:	
  1643                           ; 1 bytes @ 0x0
  1644                           
  1645     0070                     ?_init_config:	
  1646                           ; 1 bytes @ 0x0
  1647                           
  1648     0070                     ?_main:	
  1649                           ; 1 bytes @ 0x0
  1650                           
  1651     0070                     ?_get_time:	
  1652                           ; 1 bytes @ 0x0
  1653                           
  1654     0070                     ?_display_time:	
  1655                           ; 1 bytes @ 0x0
  1656                           
  1657     0070                     ?_log_event:	
  1658                           ; 1 bytes @ 0x0
  1659                           
  1660     0070                     ?_isr:	
  1661                           ; 1 bytes @ 0x0
  1662                           
  1663     0070                     ??_isr:	
  1664                           ; 1 bytes @ 0x0
  1665                           
  1666     0070                     ?_i2c_write:	
  1667                           ; 1 bytes @ 0x0
  1668                           
  1669                           
  1670                           ; 2 bytes @ 0x0
  1671     0070                     	ds	2
  1672     0072                     ??_i2c_start:
  1673     0072                     ??_i2c_write:	
  1674                           ; 1 bytes @ 0x2
  1675                           
  1676     0072                     ??_i2c_rep_start:	
  1677                           ; 1 bytes @ 0x2
  1678                           
  1679     0072                     ??_i2c_read:	
  1680                           ; 1 bytes @ 0x2
  1681                           
  1682     0072                     ??_i2c_stop:	
  1683                           ; 1 bytes @ 0x2
  1684                           
  1685     0072                     ??_init_digital_keypad:	
  1686                           ; 1 bytes @ 0x2
  1687                           
  1688     0072                     ??_init_timer2:	
  1689                           ; 1 bytes @ 0x2
  1690                           
  1691     0072                     ??_read_digital_keypad:	
  1692                           ; 1 bytes @ 0x2
  1693                           
  1694     0072                     ?_strcpy:	
  1695                           ; 1 bytes @ 0x2
  1696                           
  1697     0072                     ?_strncpy:	
  1698                           ; 1 bytes @ 0x2
  1699                           
  1700     0072                     ??_putchar:	
  1701                           ; 1 bytes @ 0x2
  1702                           
  1703     0072                     ?_clcd_write:	
  1704                           ; 1 bytes @ 0x2
  1705                           
  1706     0072                     ??_i2c_wait_for_idle:	
  1707                           ; 1 bytes @ 0x2
  1708                           
  1709     0072                     ??_init_adc:	
  1710                           ; 1 bytes @ 0x2
  1711                           
  1712     0072                     ?___bmul:	
  1713                           ; 1 bytes @ 0x2
  1714                           
  1715     0072                     ??___lldiv:	
  1716                           ; 1 bytes @ 0x2
  1717                           
  1718     0072                     ?_strncmp:	
  1719                           ; 1 bytes @ 0x2
  1720                           
  1721     0072                     ?_read_adc:	
  1722                           ; 2 bytes @ 0x2
  1723                           
  1724     0072                     ?___wmul:	
  1725                           ; 2 bytes @ 0x2
  1726                           
  1727     0072                     ?___awdiv:	
  1728                           ; 2 bytes @ 0x2
  1729                           
  1730     0072                     ?___awmod:	
  1731                           ; 2 bytes @ 0x2
  1732                           
  1733     0072                     ?___lwmod:	
  1734                           ; 2 bytes @ 0x2
  1735                           
  1736     0072                     clcd_write@mode:	
  1737                           ; 2 bytes @ 0x2
  1738                           
  1739     0072                     i2c_read@ack:	
  1740                           ; 1 bytes @ 0x2
  1741                           
  1742     0072                     i2c_write@data:	
  1743                           ; 1 bytes @ 0x2
  1744                           
  1745     0072                     putchar@data:	
  1746                           ; 1 bytes @ 0x2
  1747                           
  1748     0072                     ___bmul@multiplicand:	
  1749                           ; 1 bytes @ 0x2
  1750                           
  1751     0072                     strncmp@s2:	
  1752                           ; 1 bytes @ 0x2
  1753                           
  1754     0072                     ___wmul@multiplier:	
  1755                           ; 1 bytes @ 0x2
  1756                           
  1757     0072                     ___awdiv@divisor:	
  1758                           ; 2 bytes @ 0x2
  1759                           
  1760     0072                     ___awmod@divisor:	
  1761                           ; 2 bytes @ 0x2
  1762                           
  1763     0072                     ___lwmod@divisor:	
  1764                           ; 2 bytes @ 0x2
  1765                           
  1766     0072                     strcpy@from:	
  1767                           ; 2 bytes @ 0x2
  1768                           
  1769     0072                     strncpy@from:	
  1770                           ; 2 bytes @ 0x2
  1771                           
  1772                           
  1773                           ; 2 bytes @ 0x2
  1774     0072                     	ds	1
  1775     0073                     ?_write_ds1307:
  1776     0073                     ?_puts:	
  1777                           ; 1 bytes @ 0x3
  1778                           
  1779     0073                     ??_clcd_write:	
  1780                           ; 1 bytes @ 0x3
  1781                           
  1782     0073                     ?_eeprom_at24c04_byte_write:	
  1783                           ; 1 bytes @ 0x3
  1784                           
  1785     0073                     ??___bmul:	
  1786                           ; 1 bytes @ 0x3
  1787                           
  1788     0073                     write_ds1307@data:	
  1789                           ; 1 bytes @ 0x3
  1790                           
  1791     0073                     i2c_read@data:	
  1792                           ; 1 bytes @ 0x3
  1793                           
  1794     0073                     read_digital_keypad@mode:	
  1795                           ; 1 bytes @ 0x3
  1796                           
  1797     0073                     eeprom_at24c04_byte_write@data:	
  1798                           ; 1 bytes @ 0x3
  1799                           
  1800     0073                     puts@s:	
  1801                           ; 1 bytes @ 0x3
  1802                           
  1803     0073                     strncmp@len:	
  1804                           ; 2 bytes @ 0x3
  1805                           
  1806     0073                     ___lldiv@quotient:	
  1807                           ; 2 bytes @ 0x3
  1808                           
  1809                           
  1810                           ; 4 bytes @ 0x3
  1811     0073                     	ds	1
  1812     0074                     ??_read_ds1307:
  1813     0074                     ??_write_ds1307:	
  1814                           ; 1 bytes @ 0x4
  1815                           
  1816     0074                     ??_strcpy:	
  1817                           ; 1 bytes @ 0x4
  1818                           
  1819     0074                     ??_eeprom_at24c04_random_read:	
  1820                           ; 1 bytes @ 0x4
  1821                           
  1822     0074                     ??_read_adc:	
  1823                           ; 1 bytes @ 0x4
  1824                           
  1825     0074                     ??_eeprom_at24c04_byte_write:	
  1826                           ; 1 bytes @ 0x4
  1827                           
  1828     0074                     read_ds1307@addr:	
  1829                           ; 1 bytes @ 0x4
  1830                           
  1831     0074                     write_ds1307@addr:	
  1832                           ; 1 bytes @ 0x4
  1833                           
  1834     0074                     eeprom_at24c04_random_read@memory_loc:	
  1835                           ; 1 bytes @ 0x4
  1836                           
  1837     0074                     ___bmul@product:	
  1838                           ; 1 bytes @ 0x4
  1839                           
  1840     0074                     read_adc@adc_reg_val:	
  1841                           ; 1 bytes @ 0x4
  1842                           
  1843     0074                     ___wmul@multiplicand:	
  1844                           ; 2 bytes @ 0x4
  1845                           
  1846     0074                     ___awdiv@dividend:	
  1847                           ; 2 bytes @ 0x4
  1848                           
  1849     0074                     ___awmod@dividend:	
  1850                           ; 2 bytes @ 0x4
  1851                           
  1852     0074                     ___lwmod@dividend:	
  1853                           ; 2 bytes @ 0x4
  1854                           
  1855     0074                     strncpy@size:	
  1856                           ; 2 bytes @ 0x4
  1857                           
  1858                           
  1859                           ; 2 bytes @ 0x4
  1860     0074                     	ds	1
  1861     0075                     ??_strncmp:
  1862     0075                     ??_puts:	
  1863                           ; 1 bytes @ 0x5
  1864                           
  1865     0075                     clcd_write@byte:	
  1866                           ; 1 bytes @ 0x5
  1867                           
  1868     0075                     read_ds1307@data:	
  1869                           ; 1 bytes @ 0x5
  1870                           
  1871     0075                     eeprom_at24c04_random_read@received_data:	
  1872                           ; 1 bytes @ 0x5
  1873                           
  1874     0075                     ___bmul@multiplier:	
  1875                           ; 1 bytes @ 0x5
  1876                           
  1877     0075                     strcpy@cp:	
  1878                           ; 1 bytes @ 0x5
  1879                           
  1880                           
  1881                           ; 1 bytes @ 0x5
  1882     0075                     	ds	1
  1883     0076                     ??_clear_screen:
  1884     0076                     ??_strncpy:	
  1885                           ; 1 bytes @ 0x6
  1886                           
  1887     0076                     ??_init_display_controller:	
  1888                           ; 1 bytes @ 0x6
  1889                           
  1890     0076                     ?_clcd_print:	
  1891                           ; 1 bytes @ 0x6
  1892                           
  1893     0076                     ??_init_ds1307:	
  1894                           ; 1 bytes @ 0x6
  1895                           
  1896     0076                     ??_get_time:	
  1897                           ; 1 bytes @ 0x6
  1898                           
  1899     0076                     ??___wmul:	
  1900                           ; 1 bytes @ 0x6
  1901                           
  1902     0076                     ??___awdiv:	
  1903                           ; 1 bytes @ 0x6
  1904                           
  1905     0076                     ??___awmod:	
  1906                           ; 1 bytes @ 0x6
  1907                           
  1908     0076                     ??___lwdiv:	
  1909                           ; 1 bytes @ 0x6
  1910                           
  1911     0076                     ??___lwmod:	
  1912                           ; 1 bytes @ 0x6
  1913                           
  1914     0076                     init_ds1307@dummy:	
  1915                           ; 1 bytes @ 0x6
  1916                           
  1917     0076                     eeprom_at24c04_byte_write@memory_loc:	
  1918                           ; 1 bytes @ 0x6
  1919                           
  1920     0076                     strcpy@to:	
  1921                           ; 1 bytes @ 0x6
  1922                           
  1923     0076                     clcd_print@str:	
  1924                           ; 1 bytes @ 0x6
  1925                           
  1926     0076                     ___wmul@product:	
  1927                           ; 2 bytes @ 0x6
  1928                           
  1929                           
  1930                           ; 2 bytes @ 0x6
  1931     0076                     	ds	1
  1932     0077                     ?_eeprom_at24c04_str_write:
  1933     0077                     ___lldiv@counter:	
  1934                           ; 1 bytes @ 0x7
  1935                           
  1936     0077                     ___awmod@counter:	
  1937                           ; 1 bytes @ 0x7
  1938                           
  1939     0077                     ___lwmod@counter:	
  1940                           ; 1 bytes @ 0x7
  1941                           
  1942     0077                     strncmp@s1:	
  1943                           ; 1 bytes @ 0x7
  1944                           
  1945     0077                     eeprom_at24c04_str_write@data:	
  1946                           ; 1 bytes @ 0x7
  1947                           
  1948                           
  1949                           ; 2 bytes @ 0x7
  1950     0077                     	ds	1
  1951     0078                     ??_init_clcd:
  1952     0078                     ??_init_config:	
  1953                           ; 1 bytes @ 0x8
  1954                           
  1955     0078                     clcd_print@addr:	
  1956                           ; 1 bytes @ 0x8
  1957                           
  1958     0078                     ___awmod@sign:	
  1959                           ; 1 bytes @ 0x8
  1960                           
  1961                           
  1962                           ; 1 bytes @ 0x8
  1963     0078                     	ds	1
  1964     0079                     ??_clear_log:
  1965     0079                     ??_clcd_putch:	
  1966                           ; 1 bytes @ 0x9
  1967                           
  1968     0079                     ??_clcd_print:	
  1969                           ; 1 bytes @ 0x9
  1970                           
  1971     0079                     ??_display_time:	
  1972                           ; 1 bytes @ 0x9
  1973                           
  1974                           
  1975                           	psect	cstackBANK0
  1976     0045                     __pcstackBANK0:	
  1977                           ; 1 bytes @ 0x9
  1978                           
  1979     0045                     ??_eeprom_at24c04_str_write:
  1980     0045                     ??_download_log:	
  1981                           ; 1 bytes @ 0x0
  1982                           
  1983     0045                     ?___lwdiv:	
  1984                           ; 1 bytes @ 0x0
  1985                           
  1986     0045                     ?___lldiv:	
  1987                           ; 2 bytes @ 0x0
  1988                           
  1989     0045                     clear_log@reset_flag:	
  1990                           ; 4 bytes @ 0x0
  1991                           
  1992     0045                     ___awdiv@counter:	
  1993                           ; 1 bytes @ 0x0
  1994                           
  1995     0045                     strncpy@to:	
  1996                           ; 1 bytes @ 0x0
  1997                           
  1998     0045                     ___lwdiv@divisor:	
  1999                           ; 1 bytes @ 0x0
  2000                           
  2001     0045                     ___lldiv@divisor:	
  2002                           ; 2 bytes @ 0x0
  2003                           
  2004                           
  2005                           ; 4 bytes @ 0x0
  2006     0045                     	ds	1
  2007     0046                     eeprom_at24c04_str_write@memory_loc:
  2008     0046                     ___awdiv@sign:	
  2009                           ; 1 bytes @ 0x1
  2010                           
  2011     0046                     strncpy@cp:	
  2012                           ; 1 bytes @ 0x1
  2013                           
  2014     0046                     download_log@logs:	
  2015                           ; 1 bytes @ 0x1
  2016                           
  2017                           
  2018                           ; 9 bytes @ 0x1
  2019     0046                     	ds	1
  2020     0047                     ??_log_event:
  2021     0047                     ___awdiv@quotient:	
  2022                           ; 1 bytes @ 0x2
  2023                           
  2024     0047                     ___lwdiv@dividend:	
  2025                           ; 2 bytes @ 0x2
  2026                           
  2027                           
  2028                           ; 2 bytes @ 0x2
  2029     0047                     	ds	1
  2030     0048                     log_event@addr:
  2031                           
  2032                           ; 1 bytes @ 0x3
  2033     0048                     	ds	1
  2034     0049                     ?_log_car_event:
  2035     0049                     ___lwdiv@counter:	
  2036                           ; 1 bytes @ 0x4
  2037                           
  2038     0049                     log_car_event@event:	
  2039                           ; 1 bytes @ 0x4
  2040                           
  2041     0049                     ___lldiv@dividend:	
  2042                           ; 2 bytes @ 0x4
  2043                           
  2044                           
  2045                           ; 4 bytes @ 0x4
  2046     0049                     	ds	1
  2047     004A                     ___lwdiv@quotient:
  2048                           
  2049                           ; 2 bytes @ 0x5
  2050     004A                     	ds	1
  2051     004B                     log_car_event@speed:
  2052                           
  2053                           ; 1 bytes @ 0x6
  2054     004B                     	ds	1
  2055     004C                     ??_log_car_event:
  2056     004C                     ?_clcd_putch:	
  2057                           ; 1 bytes @ 0x7
  2058                           
  2059     004C                     clcd_putch@addr:	
  2060                           ; 1 bytes @ 0x7
  2061                           
  2062                           
  2063                           ; 1 bytes @ 0x7
  2064     004C                     	ds	1
  2065     004D                     ?_init_uart:
  2066     004D                     ?_init_i2c:	
  2067                           ; 1 bytes @ 0x8
  2068                           
  2069     004D                     clcd_putch@data:	
  2070                           ; 1 bytes @ 0x8
  2071                           
  2072     004D                     init_i2c@baud:	
  2073                           ; 1 bytes @ 0x8
  2074                           
  2075     004D                     init_uart@baud:	
  2076                           ; 4 bytes @ 0x8
  2077                           
  2078                           
  2079                           ; 4 bytes @ 0x8
  2080     004D                     	ds	1
  2081     004E                     ?_display_dashboard:
  2082     004E                     ?_login:	
  2083                           ; 1 bytes @ 0x9
  2084                           
  2085     004E                     ?_login_menu:	
  2086                           ; 1 bytes @ 0x9
  2087                           
  2088     004E                     ?_view_log:	
  2089                           ; 1 bytes @ 0x9
  2090                           
  2091     004E                     ?_change_password:	
  2092                           ; 1 bytes @ 0x9
  2093                           
  2094     004E                     ?_set_time:	
  2095                           ; 1 bytes @ 0x9
  2096                           
  2097     004E                     display_dashboard@speed:	
  2098                           ; 1 bytes @ 0x9
  2099                           
  2100     004E                     login@reset_flag:	
  2101                           ; 1 bytes @ 0x9
  2102                           
  2103     004E                     login_menu@reset_flag:	
  2104                           ; 1 bytes @ 0x9
  2105                           
  2106     004E                     view_log@reset_flag:	
  2107                           ; 1 bytes @ 0x9
  2108                           
  2109     004E                     change_password@reset_pwd:	
  2110                           ; 1 bytes @ 0x9
  2111                           
  2112     004E                     set_time@reset_time:	
  2113                           ; 1 bytes @ 0x9
  2114                           
  2115                           
  2116                           ; 1 bytes @ 0x9
  2117     004E                     	ds	1
  2118     004F                     ??_display_dashboard:
  2119     004F                     ??_login:	
  2120                           ; 1 bytes @ 0xA
  2121                           
  2122     004F                     ??_login_menu:	
  2123                           ; 1 bytes @ 0xA
  2124                           
  2125     004F                     ??_view_log:	
  2126                           ; 1 bytes @ 0xA
  2127                           
  2128     004F                     ??_change_password:	
  2129                           ; 1 bytes @ 0xA
  2130                           
  2131     004F                     ??_set_time:	
  2132                           ; 1 bytes @ 0xA
  2133                           
  2134     004F                     download_log@addr:	
  2135                           ; 1 bytes @ 0xA
  2136                           
  2137                           
  2138                           ; 1 bytes @ 0xA
  2139     004F                     	ds	1
  2140     0050                     download_log@lpos:
  2141     0050                     view_log@view:	
  2142                           ; 2 bytes @ 0xB
  2143                           
  2144                           
  2145                           ; 11 bytes @ 0xB
  2146     0050                     	ds	1
  2147     0051                     ??_init_uart:
  2148     0051                     ??_init_i2c:	
  2149                           ; 1 bytes @ 0xC
  2150                           
  2151     0051                     display_dashboard@event:	
  2152                           ; 1 bytes @ 0xC
  2153                           
  2154     0051                     login_menu@key:	
  2155                           ; 1 bytes @ 0xC
  2156                           
  2157     0051                     change_password@key:	
  2158                           ; 1 bytes @ 0xC
  2159                           
  2160                           
  2161                           ; 1 bytes @ 0xC
  2162     0051                     	ds	1
  2163     0052                     set_time@key:
  2164     0052                     download_log@next:	
  2165                           ; 1 bytes @ 0xD
  2166                           
  2167     0052                     login@spassword:	
  2168                           ; 2 bytes @ 0xD
  2169                           
  2170                           
  2171                           ; 4 bytes @ 0xD
  2172     0052                     	ds	1
  2173     0053                     set_time@dummy:
  2174                           
  2175                           ; 1 bytes @ 0xE
  2176     0053                     	ds	1
  2177     0054                     download_log@i:
  2178                           
  2179                           ; 2 bytes @ 0xF
  2180     0054                     	ds	2
  2181     0056                     login@key:
  2182                           
  2183                           ; 1 bytes @ 0x11
  2184     0056                     	ds	1
  2185     0057                     login@j:
  2186                           
  2187                           ; 2 bytes @ 0x12
  2188     0057                     	ds	4
  2189     005B                     view_log@addr:
  2190                           
  2191                           ; 1 bytes @ 0x16
  2192     005B                     	ds	1
  2193     005C                     view_log@key:
  2194                           
  2195                           ; 1 bytes @ 0x17
  2196     005C                     	ds	1
  2197     005D                     view_log@i:
  2198                           
  2199                           ; 2 bytes @ 0x18
  2200     005D                     	ds	2
  2201     005F                     ??_main:
  2202                           
  2203                           ; 1 bytes @ 0x1A
  2204     005F                     	ds	4
  2205                           
  2206                           	psect	maintext
  2207     0041                     __pmaintext:	
  2208 ;;
  2209 ;;Main: autosize = 0, tempsize = 4, incstack = 0, save=0
  2210 ;;
  2211 ;; *************** function _main *****************
  2212 ;; Defined at:
  2213 ;;		line 30 in file "main.c"
  2214 ;; Parameters:    Size  Location     Type
  2215 ;;		None
  2216 ;; Auto vars:     Size  Location     Type
  2217 ;;  wait_time       4    4[BANK1 ] unsigned long 
  2218 ;;  event           3    0[BANK1 ] unsigned char [3]
  2219 ;;  key             1   11[BANK1 ] unsigned char 
  2220 ;;  control_flag    1   10[BANK1 ] unsigned char 
  2221 ;;  reset_flag      1    9[BANK1 ] unsigned char 
  2222 ;;  speed           1    8[BANK1 ] unsigned char 
  2223 ;;  gr              1    3[BANK1 ] unsigned char 
  2224 ;; Return value:  Size  Location     Type
  2225 ;;                  1    wreg      void 
  2226 ;; Registers used:
  2227 ;;		wreg, fsr0l, fsr0h, status,2, status,0, btemp+1, pclath, cstack
  2228 ;; Tracked objects:
  2229 ;;		On entry : B00/0
  2230 ;;		On exit  : 0/0
  2231 ;;		Unchanged: 0/0
  2232 ;; Data sizes:     COMMON   BANK0   BANK1   BANK3   BANK2
  2233 ;;      Params:         0       0       0       0       0
  2234 ;;      Locals:         0       0      12       0       0
  2235 ;;      Temps:          0       4       0       0       0
  2236 ;;      Totals:         0       4      12       0       0
  2237 ;;Total ram usage:       16 bytes
  2238 ;; Hardware stack levels required when called: 8
  2239 ;; This function calls:
  2240 ;;		___lwdiv
  2241 ;;		_change_password
  2242 ;;		_clcd_print
  2243 ;;		_clcd_write
  2244 ;;		_clear_log
  2245 ;;		_clear_screen
  2246 ;;		_display_dashboard
  2247 ;;		_download_log
  2248 ;;		_eeprom_at24c04_str_write
  2249 ;;		_init_config
  2250 ;;		_log_car_event
  2251 ;;		_login
  2252 ;;		_login_menu
  2253 ;;		_read_adc
  2254 ;;		_read_digital_keypad
  2255 ;;		_set_time
  2256 ;;		_strcpy
  2257 ;;		_view_log
  2258 ;; This function is called by:
  2259 ;;		Startup code after reset
  2260 ;; This function uses a non-reentrant model
  2261 ;;
  2262                           
  2263     0041                     _main:	
  2264                           ;psect for function _main
  2265                           
  2266     0041                     l4905:	
  2267                           ;incstack = 0
  2268                           ; Regs used in _main: [wreg-fsr0h+status,2+status,0+btemp+1+pclath+cstack]
  2269                           
  2270                           
  2271                           ;main.c: 32:             speed = 99;
  2272     0041  1683               	bsf	3,5	;RP0=1, select bank1
  2273     0042  1303               	bcf	3,6	;RP1=0, select bank1
  2274     0043  01D7               	clrf	main@control_flag^(0+128)
  2275     0044  0AD7               	incf	main@control_flag^(0+128),f
  2276     0045                     l4907:
  2277                           
  2278                           ;main.c: 33:         }
  2279     0045  0836               	movf	main@F1013^(0+128),w
  2280     0046  00CD               	movwf	main@event^(0+128)
  2281     0047  0837               	movf	(main@F1013+1)^(0+128),w
  2282     0048  00CE               	movwf	(main@event+1)^(0+128)
  2283     0049  0838               	movf	(main@F1013+2)^(0+128),w
  2284     004A  00CF               	movwf	(main@event+2)^(0+128)
  2285     004B                     l4909:
  2286     004B                     l4911:
  2287     004B  01D0               	clrf	main@gr^(0+128)
  2288                           
  2289                           ;main.c: 35:         key = read_digital_keypad(1);
  2290     004C  3000               	movlw	0
  2291     004D  00D4               	movwf	(main@wait_time+3)^(0+128)
  2292     004E  3000               	movlw	0
  2293     004F  00D3               	movwf	(main@wait_time+2)^(0+128)
  2294     0050  3000               	movlw	0
  2295     0051  00D2               	movwf	(main@wait_time+1)^(0+128)
  2296     0052  3000               	movlw	0
  2297     0053  00D1               	movwf	main@wait_time^(0+128)
  2298     0054                     l4913:
  2299                           
  2300                           ;main.c: 36: 
  2301     0054  160A  118A  2545  120A  118A  	fcall	_init_config
  2302     0059                     l4915:
  2303                           
  2304                           ;main.c: 39:             strcpy(event, "C ");
  2305     0059  3074               	movlw	low (STR_7| (0+32768))
  2306     005A  00F7               	movwf	eeprom_at24c04_str_write@data
  2307     005B  3088               	movlw	high (STR_7| (0+32768))
  2308     005C  00F8               	movwf	eeprom_at24c04_str_write@data+1
  2309     005D  3000               	movlw	0
  2310     005E  160A  118A  24E4  120A  118A  	fcall	_eeprom_at24c04_str_write
  2311     0063                     l4917:
  2312                           
  2313                           ;main.c: 40:             log_car_event(event, speed);
  2314     0063  30CD               	movlw	(low (main@event| 0))& (0+255)
  2315     0064  1283               	bcf	3,5	;RP0=0, select bank0
  2316     0065  1303               	bcf	3,6	;RP1=0, select bank0
  2317     0066  00C9               	movwf	log_car_event@event
  2318     0067  3000               	movlw	0
  2319     0068  00CA               	movwf	log_car_event@event+1
  2320     0069  01CB               	clrf	log_car_event@speed
  2321     006A  120A  158A  20FD  120A  118A  	fcall	_log_car_event
  2322     006F                     l4919:
  2323                           
  2324                           ;main.c: 43:         else if(key == 0x3D && gr < 6)
  2325     006F  300A               	movlw	10
  2326     0070  1283               	bcf	3,5	;RP0=0, select bank0
  2327     0071  1303               	bcf	3,6	;RP1=0, select bank0
  2328     0072  00C5               	movwf	___lwdiv@divisor
  2329     0073  3000               	movlw	0
  2330     0074  00C6               	movwf	___lwdiv@divisor+1
  2331     0075  160A  118A  2299  120A  118A  	fcall	_read_adc
  2332     007A  0873               	movf	?_read_adc+1,w
  2333     007B  1283               	bcf	3,5	;RP0=0, select bank0
  2334     007C  1303               	bcf	3,6	;RP1=0, select bank0
  2335     007D  00C8               	movwf	___lwdiv@dividend+1
  2336     007E  0872               	movf	?_read_adc,w
  2337     007F  00C7               	movwf	___lwdiv@dividend
  2338     0080  160A  118A  2634  120A  118A  	fcall	___lwdiv
  2339     0085  1283               	bcf	3,5	;RP0=0, select bank0
  2340     0086  1303               	bcf	3,6	;RP1=0, select bank0
  2341     0087  0845               	movf	?___lwdiv,w
  2342     0088  1683               	bsf	3,5	;RP0=1, select bank1
  2343     0089  1303               	bcf	3,6	;RP1=0, select bank1
  2344     008A  00D5               	movwf	main@speed^(0+128)
  2345                           
  2346                           ;main.c: 44:         {
  2347     008B  3064               	movlw	100
  2348     008C  0255               	subwf	main@speed^(0+128),w
  2349     008D  1C03               	skipc
  2350     008E  2890               	goto	u4301
  2351     008F  2891               	goto	u4300
  2352     0090                     u4301:
  2353     0090  2893               	goto	l4923
  2354     0091                     u4300:
  2355     0091                     l4921:
  2356                           
  2357                           ;main.c: 45:             strcpy(event, gear[gr]);;main.c: 46:             gr++;
  2358     0091  3063               	movlw	99
  2359     0092  00D5               	movwf	main@speed^(0+128)
  2360     0093                     l4923:
  2361                           
  2362                           ;main.c: 49:         else if(key == 0x3B && gr > 0)
  2363     0093  3001               	movlw	1
  2364     0094  160A  118A  240A  120A  118A  	fcall	_read_digital_keypad
  2365     0099  1683               	bsf	3,5	;RP0=1, select bank1
  2366     009A  1303               	bcf	3,6	;RP1=0, select bank1
  2367     009B  00D8               	movwf	main@key^(0+128)
  2368     009C                     l4925:
  2369                           
  2370                           ;main.c: 51:             gr--;
  2371     009C  303E               	movlw	62
  2372     009D  0658               	xorwf	main@key^(0+128),w
  2373     009E  1D03               	btfss	3,2
  2374     009F  28A1               	goto	u4311
  2375     00A0  28A2               	goto	u4310
  2376     00A1                     u4311:
  2377     00A1  28BE               	goto	l4929
  2378     00A2                     u4310:
  2379     00A2                     l4927:
  2380                           
  2381                           ;main.c: 52:             strcpy(event, gear[gr]);;main.c: 53:             log_car_event(
      +                          event, speed);
  2382     00A2  307E               	movlw	low (STR_8| (0+32768))
  2383     00A3  00F2               	movwf	strcpy@from
  2384     00A4  3088               	movlw	high (STR_8| (0+32768))
  2385     00A5  00F3               	movwf	strcpy@from+1
  2386     00A6  30CD               	movlw	(low (main@event| 0))& (0+255)
  2387     00A7  160A  118A  2398  120A  118A  	fcall	_strcpy
  2388                           
  2389                           ;main.c: 54:         }
  2390     00AC  30CD               	movlw	(low (main@event| 0))& (0+255)
  2391     00AD  1283               	bcf	3,5	;RP0=0, select bank0
  2392     00AE  1303               	bcf	3,6	;RP1=0, select bank0
  2393     00AF  00C9               	movwf	log_car_event@event
  2394     00B0  3000               	movlw	0
  2395     00B1  00CA               	movwf	log_car_event@event+1
  2396     00B2  1683               	bsf	3,5	;RP0=1, select bank1
  2397     00B3  1303               	bcf	3,6	;RP1=0, select bank1
  2398     00B4  0855               	movf	main@speed^(0+128),w
  2399     00B5  1283               	bcf	3,5	;RP0=0, select bank0
  2400     00B6  1303               	bcf	3,6	;RP1=0, select bank0
  2401     00B7  00CB               	movwf	log_car_event@speed
  2402     00B8  120A  158A  20FD  120A  118A  	fcall	_log_car_event
  2403                           
  2404                           ;main.c: 55: 
  2405     00BD  29E5               	goto	l5019
  2406     00BE                     l4929:
  2407     00BE  303D               	movlw	61
  2408     00BF  0658               	xorwf	main@key^(0+128),w
  2409     00C0  1D03               	btfss	3,2
  2410     00C1  28C3               	goto	u4321
  2411     00C2  28C4               	goto	u4320
  2412     00C3                     u4321:
  2413     00C3  28F8               	goto	l4939
  2414     00C4                     u4320:
  2415     00C4                     l4931:
  2416     00C4  3006               	movlw	6
  2417     00C5  0250               	subwf	main@gr^(0+128),w
  2418     00C6  1803               	skipnc
  2419     00C7  28C9               	goto	u4331
  2420     00C8  28CA               	goto	u4330
  2421     00C9                     u4331:
  2422     00C9  28F8               	goto	l4939
  2423     00CA                     u4330:
  2424     00CA                     l4933:
  2425                           
  2426                           ;main.c: 58:             clear_screen();;main.c: 59:             clcd_print(" Enter Pass
      +                          word", (0x80 + 0));
  2427     00CA  0850               	movf	main@gr^(0+128),w
  2428     00CB  1283               	bcf	3,5	;RP0=0, select bank0
  2429     00CC  1303               	bcf	3,6	;RP1=0, select bank0
  2430     00CD  00DF               	movwf	??_main
  2431     00CE  075F               	addwf	??_main,w
  2432     00CF  3EA0               	addlw	(low (_gear| 0))& (0+255)
  2433     00D0  0084               	movwf	4
  2434     00D1  1383               	bcf	3,7	;select IRP bank1
  2435     00D2  0800               	movf	0,w
  2436     00D3  00F2               	movwf	strcpy@from
  2437     00D4  0A84               	incf	4,f
  2438     00D5  0800               	movf	0,w
  2439     00D6  0384               	decf	4,f
  2440     00D7  00F3               	movwf	strcpy@from+1
  2441     00D8  30CD               	movlw	(low (main@event| 0))& (0+255)
  2442     00D9  160A  118A  2398  120A  118A  	fcall	_strcpy
  2443     00DE                     l4935:
  2444                           
  2445                           ;main.c: 60:             clcd_write(0xC6, 0);
  2446     00DE  3001               	movlw	1
  2447     00DF  1283               	bcf	3,5	;RP0=0, select bank0
  2448     00E0  1303               	bcf	3,6	;RP1=0, select bank0
  2449     00E1  00DF               	movwf	??_main
  2450     00E2  085F               	movf	??_main,w
  2451     00E3  1683               	bsf	3,5	;RP0=1, select bank1
  2452     00E4  1303               	bcf	3,6	;RP1=0, select bank1
  2453     00E5  07D0               	addwf	main@gr^(0+128),f
  2454     00E6                     l4937:
  2455                           
  2456                           ;main.c: 61:             clcd_write(0x0F, 0);
  2457     00E6  30CD               	movlw	(low (main@event| 0))& (0+255)
  2458     00E7  1283               	bcf	3,5	;RP0=0, select bank0
  2459     00E8  1303               	bcf	3,6	;RP1=0, select bank0
  2460     00E9  00C9               	movwf	log_car_event@event
  2461     00EA  3000               	movlw	0
  2462     00EB  00CA               	movwf	log_car_event@event+1
  2463     00EC  1683               	bsf	3,5	;RP0=1, select bank1
  2464     00ED  1303               	bcf	3,6	;RP1=0, select bank1
  2465     00EE  0855               	movf	main@speed^(0+128),w
  2466     00EF  1283               	bcf	3,5	;RP0=0, select bank0
  2467     00F0  1303               	bcf	3,6	;RP1=0, select bank0
  2468     00F1  00CB               	movwf	log_car_event@speed
  2469     00F2  120A  158A  20FD  120A  118A  	fcall	_log_car_event
  2470                           
  2471                           ;main.c: 62:             _delay((unsigned long)((100)*(20000000/4000000.0)));
  2472     00F7  29E5               	goto	l5019
  2473     00F8                     l4939:
  2474     00F8  303B               	movlw	59
  2475     00F9  0658               	xorwf	main@key^(0+128),w
  2476     00FA  1D03               	btfss	3,2
  2477     00FB  28FD               	goto	u4341
  2478     00FC  28FE               	goto	u4340
  2479     00FD                     u4341:
  2480     00FD  291A               	goto	l4949
  2481     00FE                     u4340:
  2482     00FE                     l4941:
  2483     00FE  0850               	movf	main@gr^(0+128),w
  2484     00FF  1903               	btfsc	3,2
  2485     0100  2902               	goto	u4351
  2486     0101  2903               	goto	u4350
  2487     0102                     u4351:
  2488     0102  291A               	goto	l4949
  2489     0103                     u4350:
  2490     0103                     l4943:
  2491                           
  2492                           ;main.c: 64:             reset_flag = 0x10;;main.c: 65:             TMR2ON = 1;
  2493     0103  3001               	movlw	1
  2494     0104  02D0               	subwf	main@gr^(0+128),f
  2495     0105                     l4945:
  2496                           
  2497                           ;main.c: 66:         }
  2498     0105  0850               	movf	main@gr^(0+128),w
  2499     0106  1283               	bcf	3,5	;RP0=0, select bank0
  2500     0107  1303               	bcf	3,6	;RP1=0, select bank0
  2501     0108  00DF               	movwf	??_main
  2502     0109  075F               	addwf	??_main,w
  2503     010A  3EA0               	addlw	(low (_gear| 0))& (0+255)
  2504     010B  0084               	movwf	4
  2505     010C  1383               	bcf	3,7	;select IRP bank1
  2506     010D  0800               	movf	0,w
  2507     010E  00F2               	movwf	strcpy@from
  2508     010F  0A84               	incf	4,f
  2509     0110  0800               	movf	0,w
  2510     0111  0384               	decf	4,f
  2511     0112  00F3               	movwf	strcpy@from+1
  2512     0113  30CD               	movlw	(low (main@event| 0))& (0+255)
  2513     0114  160A  118A  2398  120A  118A  	fcall	_strcpy
  2514     0119  28E6               	goto	l4937
  2515     011A                     l4949:
  2516     011A  3037               	movlw	55
  2517     011B  0658               	xorwf	main@key^(0+128),w
  2518     011C  1903               	btfsc	3,2
  2519     011D  291F               	goto	u4361
  2520     011E  2920               	goto	u4360
  2521     011F                     u4361:
  2522     011F  2926               	goto	l4953
  2523     0120                     u4360:
  2524     0120                     l4951:
  2525     0120  302F               	movlw	47
  2526     0121  0658               	xorwf	main@key^(0+128),w
  2527     0122  1D03               	btfss	3,2
  2528     0123  2925               	goto	u4371
  2529     0124  2926               	goto	u4370
  2530     0125                     u4371:
  2531     0125  295A               	goto	l4971
  2532     0126                     u4370:
  2533     0126                     l4953:
  2534     0126  0357               	decf	main@control_flag^(0+128),w
  2535     0127  1D03               	btfss	3,2
  2536     0128  292A               	goto	u4381
  2537     0129  292B               	goto	u4380
  2538     012A                     u4381:
  2539     012A  295A               	goto	l4971
  2540     012B                     u4380:
  2541     012B                     l4955:
  2542                           
  2543                           ;main.c: 71:             {;main.c: 72: 
  2544     012B  160A  118A  2288  120A  118A  	fcall	_clear_screen
  2545     0130                     l4957:
  2546                           
  2547                           ;main.c: 73:                 case 0:
  2548     0130  30D1               	movlw	low (STR_9| (0+32768))
  2549     0131  00F6               	movwf	clcd_print@str
  2550     0132  3087               	movlw	high (STR_9| (0+32768))
  2551     0133  00F7               	movwf	clcd_print@str+1
  2552     0134  3080               	movlw	128
  2553     0135  00F8               	movwf	clcd_print@addr
  2554     0136  160A  118A  24B5  120A  118A  	fcall	_clcd_print
  2555     013B                     l4959:
  2556                           
  2557                           ;main.c: 74:                     clear_screen();
  2558     013B  01F2               	clrf	clcd_write@mode
  2559     013C  30C6               	movlw	198
  2560     013D  160A  118A  2332  120A  118A  	fcall	_clcd_write
  2561     0142                     l4961:
  2562                           
  2563                           ;main.c: 75:                     clcd_print("Logs", (0x80 + 0));
  2564     0142  01F2               	clrf	clcd_write@mode
  2565     0143  300F               	movlw	15
  2566     0144  160A  118A  2332  120A  118A  	fcall	_clcd_write
  2567     0149                     l4963:
  2568                           
  2569                           ;main.c: 76:                     control_flag = 0x04;
  2570     0149  30A5               	movlw	165
  2571     014A  1283               	bcf	3,5	;RP0=0, select bank0
  2572     014B  1303               	bcf	3,6	;RP1=0, select bank0
  2573     014C  00DF               	movwf	??_main
  2574     014D                     u4567:
  2575     014D  0BDF               	decfsz	??_main,f
  2576     014E  294D               	goto	u4567
  2577     014F  2950               	nop2
  2578     0150                     l4965:
  2579                           
  2580                           ;main.c: 77:                     reset_flag = 0x40;
  2581     0150  3002               	movlw	2
  2582     0151  1683               	bsf	3,5	;RP0=1, select bank1
  2583     0152  1303               	bcf	3,6	;RP1=0, select bank1
  2584     0153  00D7               	movwf	main@control_flag^(0+128)
  2585     0154                     l4967:
  2586                           
  2587                           ;main.c: 78:                     break;
  2588     0154  3010               	movlw	16
  2589     0155  00D6               	movwf	main@reset_flag^(0+128)
  2590     0156                     l4969:
  2591                           
  2592                           ;main.c: 79: 
  2593     0156  1283               	bcf	3,5	;RP0=0, select bank0
  2594     0157  1303               	bcf	3,6	;RP1=0, select bank0
  2595     0158  1512               	bsf	18,2	;volatile
  2596                           
  2597                           ;main.c: 80: 
  2598     0159  29E5               	goto	l5019
  2599     015A                     l4971:
  2600     015A  301F               	movlw	31
  2601     015B  0658               	xorwf	main@key^(0+128),w
  2602     015C  1D03               	btfss	3,2
  2603     015D  295F               	goto	u4391
  2604     015E  2960               	goto	u4390
  2605     015F                     u4391:
  2606     015F  29E5               	goto	l5019
  2607     0160                     u4390:
  2608     0160                     l4973:
  2609     0160  3003               	movlw	3
  2610     0161  0657               	xorwf	main@control_flag^(0+128),w
  2611     0162  1D03               	btfss	3,2
  2612     0163  2965               	goto	u4401
  2613     0164  2966               	goto	u4400
  2614     0165                     u4401:
  2615     0165  29E5               	goto	l5019
  2616     0166                     u4400:
  2617     0166  29CA               	goto	l5017
  2618     0167                     l4977:
  2619                           
  2620                           ;main.c: 88:                     clear_screen();
  2621     0167  160A  118A  2288  120A  118A  	fcall	_clear_screen
  2622     016C                     l4979:
  2623                           
  2624                           ;main.c: 89:                     control_flag = 0x06;
  2625     016C  3079               	movlw	low (STR_10| (0+32768))
  2626     016D  00F6               	movwf	clcd_print@str
  2627     016E  3088               	movlw	high (STR_10| (0+32768))
  2628     016F  00F7               	movwf	clcd_print@str+1
  2629     0170  3080               	movlw	128
  2630     0171  00F8               	movwf	clcd_print@addr
  2631     0172  160A  118A  24B5  120A  118A  	fcall	_clcd_print
  2632     0177                     l4981:
  2633                           
  2634                           ;main.c: 90:                     reset_flag = 0x60;
  2635     0177  3004               	movlw	4
  2636     0178  1683               	bsf	3,5	;RP0=1, select bank1
  2637     0179  1303               	bcf	3,6	;RP1=0, select bank1
  2638     017A  00D7               	movwf	main@control_flag^(0+128)
  2639     017B                     l4983:
  2640                           
  2641                           ;main.c: 91:                     break;
  2642     017B  3040               	movlw	64
  2643     017C  00D6               	movwf	main@reset_flag^(0+128)
  2644                           
  2645                           ;main.c: 92: 
  2646     017D  29E5               	goto	l5019
  2647     017E                     l4985:
  2648                           
  2649                           ;main.c: 96:      clear_screen();
  2650     017E  160A  118A  2288  120A  118A  	fcall	_clear_screen
  2651     0183                     l4987:
  2652                           
  2653                           ;main.c: 97:      control_flag = 0x08;
  2654     0183  3005               	movlw	5
  2655     0184  1683               	bsf	3,5	;RP0=1, select bank1
  2656     0185  1303               	bcf	3,6	;RP1=0, select bank1
  2657     0186  00D7               	movwf	main@control_flag^(0+128)
  2658     0187                     l4989:
  2659                           
  2660                           ;main.c: 98:      reset_flag = 0x10;
  2661     0187  3050               	movlw	80
  2662     0188  00D6               	movwf	main@reset_flag^(0+128)
  2663                           
  2664                           ;main.c: 99:      TMR2ON = 1;
  2665     0189  29E5               	goto	l5019
  2666     018A                     l4991:
  2667                           
  2668                           ;main.c: 102: 
  2669     018A  160A  118A  2288  120A  118A  	fcall	_clear_screen
  2670     018F                     l4993:
  2671                           
  2672                           ;main.c: 103:                 case 4 :
  2673     018F  3006               	movlw	6
  2674     0190  1683               	bsf	3,5	;RP0=1, select bank1
  2675     0191  1303               	bcf	3,6	;RP1=0, select bank1
  2676     0192  00D7               	movwf	main@control_flag^(0+128)
  2677     0193                     l4995:
  2678                           
  2679                           ;main.c: 104:      log_car_event("CT",speed);
  2680     0193  3060               	movlw	96
  2681     0194  00D6               	movwf	main@reset_flag^(0+128)
  2682                           
  2683                           ;main.c: 105:      clear_screen();
  2684     0195  29E5               	goto	l5019
  2685     0196                     l4997:
  2686                           
  2687                           ;main.c: 109:             }
  2688     0196  3090               	movlw	low (STR_11| (0+32768))
  2689     0197  00C9               	movwf	log_car_event@event
  2690     0198  3088               	movlw	high (STR_11| (0+32768))
  2691     0199  00CA               	movwf	log_car_event@event+1
  2692     019A  1683               	bsf	3,5	;RP0=1, select bank1
  2693     019B  1303               	bcf	3,6	;RP1=0, select bank1
  2694     019C  0855               	movf	main@speed^(0+128),w
  2695     019D  1283               	bcf	3,5	;RP0=0, select bank0
  2696     019E  1303               	bcf	3,6	;RP1=0, select bank0
  2697     019F  00CB               	movwf	log_car_event@speed
  2698     01A0  120A  158A  20FD  120A  118A  	fcall	_log_car_event
  2699     01A5                     l4999:
  2700                           
  2701                           ;main.c: 110:         }
  2702     01A5  160A  118A  2288  120A  118A  	fcall	_clear_screen
  2703     01AA                     l5001:
  2704                           
  2705                           ;main.c: 111: 
  2706     01AA  3008               	movlw	8
  2707     01AB  1683               	bsf	3,5	;RP0=1, select bank1
  2708     01AC  1303               	bcf	3,6	;RP1=0, select bank1
  2709     01AD  00D7               	movwf	main@control_flag^(0+128)
  2710     01AE  2954               	goto	l4967
  2711     01AF                     l5007:
  2712                           
  2713                           ;main.c: 118: 
  2714     01AF  3096               	movlw	low (STR_12| (0+32768))
  2715     01B0  00C9               	movwf	log_car_event@event
  2716     01B1  3088               	movlw	high (STR_12| (0+32768))
  2717     01B2  00CA               	movwf	log_car_event@event+1
  2718     01B3  1683               	bsf	3,5	;RP0=1, select bank1
  2719     01B4  1303               	bcf	3,6	;RP1=0, select bank1
  2720     01B5  0855               	movf	main@speed^(0+128),w
  2721     01B6  1283               	bcf	3,5	;RP0=0, select bank0
  2722     01B7  1303               	bcf	3,6	;RP1=0, select bank0
  2723     01B8  00CB               	movwf	log_car_event@speed
  2724     01B9  120A  158A  20FD  120A  118A  	fcall	_log_car_event
  2725     01BE                     l5009:
  2726                           
  2727                           ;main.c: 119:         if ( key == 0x3D && control_flag == 0x04 )
  2728     01BE  160A  118A  2288  120A  118A  	fcall	_clear_screen
  2729     01C3                     l5011:
  2730                           
  2731                           ;main.c: 120:         {
  2732     01C3  3007               	movlw	7
  2733     01C4  1683               	bsf	3,5	;RP0=1, select bank1
  2734     01C5  1303               	bcf	3,6	;RP1=0, select bank1
  2735     01C6  00D7               	movwf	main@control_flag^(0+128)
  2736     01C7                     l5013:
  2737                           
  2738                           ;main.c: 121:             clear_screen();
  2739     01C7  3070               	movlw	112
  2740     01C8  00D6               	movwf	main@reset_flag^(0+128)
  2741                           
  2742                           ;main.c: 122:             control_flag = 0x03;
  2743     01C9  29E5               	goto	l5019
  2744     01CA                     l5017:
  2745     01CA  1283               	bcf	3,5	;RP0=0, select bank0
  2746     01CB  1303               	bcf	3,6	;RP1=0, select bank0
  2747     01CC  0839               	movf	_menu_pos,w
  2748     01CD  00DF               	movwf	??_main
  2749     01CE  01E0               	clrf	??_main+1
  2750                           
  2751                           ; Switch on 2 bytes has been partitioned into a top level switch of size 1, and 1 sub-sw
      +                          itches
  2752                           ; Switch size 1, requested type "simple"
  2753                           ; Number of cases is 1, Range of values is 0 to 0
  2754                           ; switch strategies available:
  2755                           ; Name         Instructions Cycles
  2756                           ; simple_byte            4     3 (average)
  2757                           ; direct_byte           11     8 (fixed)
  2758                           ; jumptable            260     6 (fixed)
  2759                           ;	Chosen strategy is simple_byte
  2760     01CF  0860               	movf	??_main+1,w
  2761     01D0  3A00               	xorlw	0	; case 0
  2762     01D1  1903               	skipnz
  2763     01D2  29D4               	goto	l5341
  2764     01D3  29E5               	goto	l203
  2765     01D4                     l5341:
  2766                           
  2767                           ; Switch size 1, requested type "simple"
  2768                           ; Number of cases is 5, Range of values is 0 to 4
  2769                           ; switch strategies available:
  2770                           ; Name         Instructions Cycles
  2771                           ; simple_byte           16     9 (average)
  2772                           ; direct_byte           23     8 (fixed)
  2773                           ; jumptable            260     6 (fixed)
  2774                           ;	Chosen strategy is simple_byte
  2775     01D4  085F               	movf	??_main,w
  2776     01D5  3A00               	xorlw	0	; case 0
  2777     01D6  1903               	skipnz
  2778     01D7  2967               	goto	l4977
  2779     01D8  3A01               	xorlw	1	; case 1
  2780     01D9  1903               	skipnz
  2781     01DA  297E               	goto	l4985
  2782     01DB  3A03               	xorlw	3	; case 2
  2783     01DC  1903               	skipnz
  2784     01DD  298A               	goto	l4991
  2785     01DE  3A01               	xorlw	1	; case 3
  2786     01DF  1903               	skipnz
  2787     01E0  2996               	goto	l4997
  2788     01E1  3A07               	xorlw	7	; case 4
  2789     01E2  1903               	skipnz
  2790     01E3  29AF               	goto	l5007
  2791     01E4  29E5               	goto	l203
  2792     01E5                     l203:
  2793     01E5                     l5019:
  2794                           
  2795                           ;main.c: 126: 
  2796     01E5  303E               	movlw	62
  2797     01E6  1683               	bsf	3,5	;RP0=1, select bank1
  2798     01E7  1303               	bcf	3,6	;RP1=0, select bank1
  2799     01E8  0658               	xorwf	main@key^(0+128),w
  2800     01E9  1D03               	btfss	3,2
  2801     01EA  29EC               	goto	u4411
  2802     01EB  29ED               	goto	u4410
  2803     01EC                     u4411:
  2804     01EC  2A04               	goto	l5031
  2805     01ED                     u4410:
  2806     01ED                     l5021:
  2807     01ED  3003               	movlw	3
  2808     01EE  0657               	xorwf	main@control_flag^(0+128),w
  2809     01EF  1903               	btfsc	3,2
  2810     01F0  29F2               	goto	u4421
  2811     01F1  29F3               	goto	u4420
  2812     01F2                     u4421:
  2813     01F2  29F9               	goto	l5025
  2814     01F3                     u4420:
  2815     01F3                     l5023:
  2816     01F3  3004               	movlw	4
  2817     01F4  0657               	xorwf	main@control_flag^(0+128),w
  2818     01F5  1D03               	btfss	3,2
  2819     01F6  29F8               	goto	u4431
  2820     01F7  29F9               	goto	u4430
  2821     01F8                     u4431:
  2822     01F8  2A04               	goto	l5031
  2823     01F9                     u4430:
  2824     01F9                     l5025:
  2825                           
  2826                           ;main.c: 127:         switch(control_flag);main.c: 128:         {
  2827     01F9  160A  118A  2288  120A  118A  	fcall	_clear_screen
  2828     01FE                     l5027:
  2829                           
  2830                           ;main.c: 129:             case 0x01:
  2831     01FE  1683               	bsf	3,5	;RP0=1, select bank1
  2832     01FF  1303               	bcf	3,6	;RP1=0, select bank1
  2833     0200  01D7               	clrf	main@control_flag^(0+128)
  2834     0201  0AD7               	incf	main@control_flag^(0+128),f
  2835     0202                     l5029:
  2836                           
  2837                           ;main.c: 130:                 display_dashboard(event, speed);
  2838     0202  300A               	movlw	10
  2839     0203  00D6               	movwf	main@reset_flag^(0+128)
  2840     0204                     l5031:
  2841                           
  2842                           ;main.c: 133:                 switch (login(key, reset_flag))
  2843     0204  303D               	movlw	61
  2844     0205  0658               	xorwf	main@key^(0+128),w
  2845     0206  1D03               	btfss	3,2
  2846     0207  2A09               	goto	u4441
  2847     0208  2A0A               	goto	u4440
  2848     0209                     u4441:
  2849     0209  2BE1               	goto	l5113
  2850     020A                     u4440:
  2851     020A                     l5033:
  2852     020A  3004               	movlw	4
  2853     020B  0657               	xorwf	main@control_flag^(0+128),w
  2854     020C  1D03               	btfss	3,2
  2855     020D  2A0F               	goto	u4451
  2856     020E  2A10               	goto	u4450
  2857     020F                     u4451:
  2858     020F  2BE1               	goto	l5113
  2859     0210                     u4450:
  2860     0210                     l5035:
  2861                           
  2862                           ;main.c: 134:                 {;main.c: 135:                     case 0x0A:
  2863     0210  160A  118A  2288  120A  118A  	fcall	_clear_screen
  2864     0215                     l5037:
  2865                           
  2866                           ;main.c: 136:                         control_flag = 0x01;
  2867     0215  3003               	movlw	3
  2868     0216  1683               	bsf	3,5	;RP0=1, select bank1
  2869     0217  1303               	bcf	3,6	;RP1=0, select bank1
  2870     0218  00D7               	movwf	main@control_flag^(0+128)
  2871     0219                     l5039:
  2872                           
  2873                           ;main.c: 137:                         TMR2ON = 0;
  2874     0219  3040               	movlw	64
  2875     021A  00D6               	movwf	main@reset_flag^(0+128)
  2876     021B  2BE1               	goto	l5113
  2877     021C                     l5041:
  2878                           
  2879                           ;main.c: 144:                         reset_flag = 0x30;
  2880     021C  1683               	bsf	3,5	;RP0=1, select bank1
  2881     021D  1303               	bcf	3,6	;RP1=0, select bank1
  2882     021E  0855               	movf	main@speed^(0+128),w
  2883     021F  1283               	bcf	3,5	;RP0=0, select bank0
  2884     0220  1303               	bcf	3,6	;RP1=0, select bank0
  2885     0221  00CE               	movwf	display_dashboard@speed
  2886     0222  30CD               	movlw	(low (main@event| 0))& (0+255)
  2887     0223  160A  118A  27A9  120A  118A  	fcall	_display_dashboard
  2888                           
  2889                           ;main.c: 145:                         TMR2ON = 0;
  2890     0228  2C05               	goto	l5115
  2891     0229                     l225:	
  2892                           ;main.c: 148:                         continue;;main.c: 149:                         bre
      +                          ak;
  2893                           
  2894                           
  2895                           ;main.c: 150:                 }
  2896     0229  1683               	bsf	3,5	;RP0=1, select bank1
  2897     022A  1303               	bcf	3,6	;RP1=0, select bank1
  2898     022B  01D7               	clrf	main@control_flag^(0+128)
  2899     022C  0AD7               	incf	main@control_flag^(0+128),f
  2900                           
  2901                           ;main.c: 151:                 break;
  2902     022D  1283               	bcf	3,5	;RP0=0, select bank0
  2903     022E  1303               	bcf	3,6	;RP1=0, select bank0
  2904     022F  1112               	bcf	18,2	;volatile
  2905     0230                     l5043:
  2906                           
  2907                           ;main.c: 152:             case 0x03:
  2908     0230  01F2               	clrf	clcd_write@mode
  2909     0231  300C               	movlw	12
  2910     0232  160A  118A  2332  120A  118A  	fcall	_clcd_write
  2911     0237                     l5045:
  2912                           
  2913                           ;main.c: 153:                 menu_pos = login_menu(key, reset_flag);
  2914     0237  30A5               	movlw	165
  2915     0238  1283               	bcf	3,5	;RP0=0, select bank0
  2916     0239  1303               	bcf	3,6	;RP1=0, select bank0
  2917     023A  00DF               	movwf	??_main
  2918     023B                     u4577:
  2919     023B  0BDF               	decfsz	??_main,f
  2920     023C  2A3B               	goto	u4577
  2921     023D  2A3E               	nop2
  2922                           
  2923                           ;main.c: 154:                 break;
  2924     023E  2C05               	goto	l5115
  2925     023F                     l5047:
  2926                           
  2927                           ;main.c: 157:             case 0x04:
  2928     023F  3003               	movlw	3
  2929     0240  1683               	bsf	3,5	;RP0=1, select bank1
  2930     0241  1303               	bcf	3,6	;RP1=0, select bank1
  2931     0242  00D7               	movwf	main@control_flag^(0+128)
  2932                           
  2933                           ;main.c: 158:                 clcd_write(0x0C, 0);
  2934     0243  3030               	movlw	48
  2935     0244  00D6               	movwf	main@reset_flag^(0+128)
  2936     0245                     l5049:
  2937                           
  2938                           ;main.c: 159:                 view_log(key, reset_flag);
  2939     0245  1283               	bcf	3,5	;RP0=0, select bank0
  2940     0246  1303               	bcf	3,6	;RP1=0, select bank0
  2941     0247  1112               	bcf	18,2	;volatile
  2942     0248                     l5051:
  2943                           
  2944                           ;main.c: 160:                 break;
  2945     0248  01F2               	clrf	clcd_write@mode
  2946     0249  300C               	movlw	12
  2947     024A  160A  118A  2332  120A  118A  	fcall	_clcd_write
  2948     024F                     l5053:
  2949                           
  2950                           ;main.c: 161: 
  2951     024F  30A5               	movlw	165
  2952     0250  1283               	bcf	3,5	;RP0=0, select bank0
  2953     0251  1303               	bcf	3,6	;RP1=0, select bank0
  2954     0252  00DF               	movwf	??_main
  2955     0253                     u4587:
  2956     0253  0BDF               	decfsz	??_main,f
  2957     0254  2A53               	goto	u4587
  2958     0255  2A56               	nop2
  2959                           
  2960                           ;main.c: 162: 
  2961     0256  286F               	goto	l4919
  2962     0257                     l5059:
  2963     0257  1683               	bsf	3,5	;RP0=1, select bank1
  2964     0258  1303               	bcf	3,6	;RP1=0, select bank1
  2965     0259  0856               	movf	main@reset_flag^(0+128),w
  2966     025A  1283               	bcf	3,5	;RP0=0, select bank0
  2967     025B  1303               	bcf	3,6	;RP1=0, select bank0
  2968     025C  00CE               	movwf	login@reset_flag
  2969     025D  1683               	bsf	3,5	;RP0=1, select bank1
  2970     025E  1303               	bcf	3,6	;RP1=0, select bank1
  2971     025F  0858               	movf	main@key^(0+128),w
  2972     0260  120A  158A  2693  120A  118A  	fcall	_login
  2973     0265  1283               	bcf	3,5	;RP0=0, select bank0
  2974     0266  1303               	bcf	3,6	;RP1=0, select bank0
  2975     0267  00DF               	movwf	??_main
  2976     0268  01E0               	clrf	??_main+1
  2977                           
  2978                           ; Switch on 2 bytes has been partitioned into a top level switch of size 1, and 1 sub-sw
      +                          itches
  2979                           ; Switch size 1, requested type "simple"
  2980                           ; Number of cases is 1, Range of values is 0 to 0
  2981                           ; switch strategies available:
  2982                           ; Name         Instructions Cycles
  2983                           ; simple_byte            4     3 (average)
  2984                           ; direct_byte           11     8 (fixed)
  2985                           ; jumptable            260     6 (fixed)
  2986                           ;	Chosen strategy is simple_byte
  2987     0269  0860               	movf	??_main+1,w
  2988     026A  3A00               	xorlw	0	; case 0
  2989     026B  1903               	skipnz
  2990     026C  2A6E               	goto	l5343
  2991     026D  2C05               	goto	l5115
  2992     026E                     l5343:
  2993                           
  2994                           ; Switch size 1, requested type "simple"
  2995                           ; Number of cases is 2, Range of values is 10 to 11
  2996                           ; switch strategies available:
  2997                           ; Name         Instructions Cycles
  2998                           ; simple_byte            7     4 (average)
  2999                           ; direct_byte           17    11 (fixed)
  3000                           ; jumptable            263     9 (fixed)
  3001                           ;	Chosen strategy is simple_byte
  3002     026E  085F               	movf	??_main,w
  3003     026F  3A0A               	xorlw	10	; case 10
  3004     0270  1903               	skipnz
  3005     0271  2A29               	goto	l225
  3006     0272  3A01               	xorlw	1	; case 11
  3007     0273  1903               	skipnz
  3008     0274  2A3F               	goto	l5047
  3009     0275  2C05               	goto	l5115
  3010     0276                     l5061:
  3011                           
  3012                           ;main.c: 167:     if (wait_time > 0 && --wait_time == 0 )
  3013     0276  1683               	bsf	3,5	;RP0=1, select bank1
  3014     0277  1303               	bcf	3,6	;RP1=0, select bank1
  3015     0278  0856               	movf	main@reset_flag^(0+128),w
  3016     0279  1283               	bcf	3,5	;RP0=0, select bank0
  3017     027A  1303               	bcf	3,6	;RP1=0, select bank0
  3018     027B  00CE               	movwf	login_menu@reset_flag
  3019     027C  1683               	bsf	3,5	;RP0=1, select bank1
  3020     027D  1303               	bcf	3,6	;RP1=0, select bank1
  3021     027E  0858               	movf	main@key^(0+128),w
  3022     027F  120A  158A  227F  120A  118A  	fcall	_login_menu
  3023     0284  1283               	bcf	3,5	;RP0=0, select bank0
  3024     0285  1303               	bcf	3,6	;RP1=0, select bank0
  3025     0286  00B9               	movwf	_menu_pos
  3026                           
  3027                           ;main.c: 168:     {
  3028     0287  2C05               	goto	l5115
  3029     0288                     l5063:
  3030                           
  3031                           ;main.c: 172:                     clear_screen();
  3032     0288  01F2               	clrf	clcd_write@mode
  3033     0289  300C               	movlw	12
  3034     028A  160A  118A  2332  120A  118A  	fcall	_clcd_write
  3035     028F                     l5065:
  3036                           
  3037                           ;main.c: 173:      continue;
  3038     028F  1683               	bsf	3,5	;RP0=1, select bank1
  3039     0290  1303               	bcf	3,6	;RP1=0, select bank1
  3040     0291  0856               	movf	main@reset_flag^(0+128),w
  3041     0292  1283               	bcf	3,5	;RP0=0, select bank0
  3042     0293  1303               	bcf	3,6	;RP1=0, select bank0
  3043     0294  00CE               	movwf	view_log@reset_flag
  3044     0295  1683               	bsf	3,5	;RP0=1, select bank1
  3045     0296  1303               	bcf	3,6	;RP1=0, select bank1
  3046     0297  0858               	movf	main@key^(0+128),w
  3047     0298  120A  158A  232B  120A  118A  	fcall	_view_log
  3048                           
  3049                           ;main.c: 174:     }
  3050     029D  2C05               	goto	l5115
  3051     029E                     l5067:
  3052                           
  3053                           ;main.c: 178:                 download_log();
  3054     029E  1683               	bsf	3,5	;RP0=1, select bank1
  3055     029F  1303               	bcf	3,6	;RP1=0, select bank1
  3056     02A0  0856               	movf	main@reset_flag^(0+128),w
  3057     02A1  160A  118A  2434  120A  118A  	fcall	_clear_log
  3058     02A6  3A0C               	xorlw	12
  3059     02A7  1D03               	skipz
  3060     02A8  2AAA               	goto	u4461
  3061     02A9  2AAB               	goto	u4460
  3062     02AA                     u4461:
  3063     02AA  2AB5               	goto	l232
  3064     02AB                     u4460:
  3065     02AB                     l5069:
  3066                           
  3067                           ;main.c: 179: 
  3068     02AB  3000               	movlw	0
  3069     02AC  1683               	bsf	3,5	;RP0=1, select bank1
  3070     02AD  1303               	bcf	3,6	;RP1=0, select bank1
  3071     02AE  00D4               	movwf	(main@wait_time+3)^(0+128)
  3072     02AF  3000               	movlw	0
  3073     02B0  00D3               	movwf	(main@wait_time+2)^(0+128)
  3074     02B1  3000               	movlw	0
  3075     02B2  00D2               	movwf	(main@wait_time+1)^(0+128)
  3076     02B3  3032               	movlw	50
  3077     02B4  00D1               	movwf	main@wait_time^(0+128)
  3078     02B5                     l232:
  3079                           
  3080                           ;main.c: 181:                 reset_flag = 0x30;
  3081     02B5  1683               	bsf	3,5	;RP0=1, select bank1
  3082     02B6  1303               	bcf	3,6	;RP1=0, select bank1
  3083     02B7  0854               	movf	(main@wait_time+3)^(0+128),w
  3084     02B8  0453               	iorwf	(main@wait_time+2)^(0+128),w
  3085     02B9  0452               	iorwf	(main@wait_time+1)^(0+128),w
  3086     02BA  0451               	iorwf	main@wait_time^(0+128),w
  3087     02BB  1903               	skipnz
  3088     02BC  2ABE               	goto	u4471
  3089     02BD  2ABF               	goto	u4470
  3090     02BE                     u4471:
  3091     02BE  2C05               	goto	l5115
  3092     02BF                     u4470:
  3093     02BF                     l5071:
  3094     02BF  3001               	movlw	1
  3095     02C0  1283               	bcf	3,5	;RP0=0, select bank0
  3096     02C1  1303               	bcf	3,6	;RP1=0, select bank0
  3097     02C2  00DF               	movwf	??_main
  3098     02C3  3000               	movlw	0
  3099     02C4  00E0               	movwf	??_main+1
  3100     02C5  3000               	movlw	0
  3101     02C6  00E1               	movwf	??_main+2
  3102     02C7  3000               	movlw	0
  3103     02C8  00E2               	movwf	??_main+3
  3104     02C9  085F               	movf	??_main,w
  3105     02CA  1683               	bsf	3,5	;RP0=1, select bank1
  3106     02CB  1303               	bcf	3,6	;RP1=0, select bank1
  3107     02CC  02D1               	subwf	main@wait_time^(0+128),f
  3108     02CD  1283               	bcf	3,5	;RP0=0, select bank0
  3109     02CE  1303               	bcf	3,6	;RP1=0, select bank0
  3110     02CF  0860               	movf	??_main+1,w
  3111     02D0  1C03               	skipc
  3112     02D1  0F60               	incfsz	??_main+1,w
  3113     02D2  2AD4               	goto	u4485
  3114     02D3  2AD7               	goto	u4486
  3115     02D4                     u4485:
  3116     02D4  1683               	bsf	3,5	;RP0=1, select bank1
  3117     02D5  1303               	bcf	3,6	;RP1=0, select bank1
  3118     02D6  02D2               	subwf	(main@wait_time+1)^(0+128),f
  3119     02D7                     u4486:
  3120     02D7  1283               	bcf	3,5	;RP0=0, select bank0
  3121     02D8  1303               	bcf	3,6	;RP1=0, select bank0
  3122     02D9  0861               	movf	??_main+2,w
  3123     02DA  1C03               	skipc
  3124     02DB  0F61               	incfsz	??_main+2,w
  3125     02DC  2ADE               	goto	u4487
  3126     02DD  2AE1               	goto	u4488
  3127     02DE                     u4487:
  3128     02DE  1683               	bsf	3,5	;RP0=1, select bank1
  3129     02DF  1303               	bcf	3,6	;RP1=0, select bank1
  3130     02E0  02D3               	subwf	(main@wait_time+2)^(0+128),f
  3131     02E1                     u4488:
  3132     02E1  1283               	bcf	3,5	;RP0=0, select bank0
  3133     02E2  1303               	bcf	3,6	;RP1=0, select bank0
  3134     02E3  0862               	movf	??_main+3,w
  3135     02E4  1C03               	skipc
  3136     02E5  0F62               	incfsz	??_main+3,w
  3137     02E6  2AE8               	goto	u4489
  3138     02E7  2AEB               	goto	u4480
  3139     02E8                     u4489:
  3140     02E8  1683               	bsf	3,5	;RP0=1, select bank1
  3141     02E9  1303               	bcf	3,6	;RP1=0, select bank1
  3142     02EA  02D4               	subwf	(main@wait_time+3)^(0+128),f
  3143     02EB                     u4480:
  3144     02EB  1283               	bcf	3,5	;RP0=0, select bank0
  3145     02EC  1303               	bcf	3,6	;RP1=0, select bank0
  3146     02ED  1683               	bsf	3,5	;RP0=1, select bank1
  3147     02EE  1303               	bcf	3,6	;RP1=0, select bank1
  3148     02EF  0854               	movf	(main@wait_time+3)^(0+128),w
  3149     02F0  0453               	iorwf	(main@wait_time+2)^(0+128),w
  3150     02F1  0452               	iorwf	(main@wait_time+1)^(0+128),w
  3151     02F2  0451               	iorwf	main@wait_time^(0+128),w
  3152     02F3  1D03               	skipz
  3153     02F4  2AF6               	goto	u4491
  3154     02F5  2AF7               	goto	u4490
  3155     02F6                     u4491:
  3156     02F6  2C05               	goto	l5115
  3157     02F7                     u4490:
  3158     02F7                     l5073:
  3159                           
  3160                           ;main.c: 182:                 break;;main.c: 184: 
  3161     02F7  3003               	movlw	3
  3162     02F8  1683               	bsf	3,5	;RP0=1, select bank1
  3163     02F9  1303               	bcf	3,6	;RP1=0, select bank1
  3164     02FA  00D7               	movwf	main@control_flag^(0+128)
  3165                           
  3166                           ;main.c: 185:             case 0x08:
  3167     02FB  3030               	movlw	48
  3168     02FC  00D6               	movwf	main@reset_flag^(0+128)
  3169     02FD                     l5075:
  3170                           
  3171                           ;main.c: 186:                 switch ( change_password( key ,reset_flag ) )
  3172     02FD  160A  118A  2288  120A  118A  	fcall	_clear_screen
  3173                           
  3174                           ;main.c: 187:     {
  3175     0302  286F               	goto	l4919
  3176     0303                     l5077:
  3177                           
  3178                           ;main.c: 192:                         0x0C;
  3179     0303  120A  158A  2569  120A  118A  	fcall	_download_log
  3180     0308                     l5079:
  3181                           
  3182                           ;main.c: 194: 
  3183     0308  3003               	movlw	3
  3184     0309  1683               	bsf	3,5	;RP0=1, select bank1
  3185     030A  1303               	bcf	3,6	;RP1=0, select bank1
  3186     030B  00D7               	movwf	main@control_flag^(0+128)
  3187     030C                     l5081:
  3188                           
  3189                           ;main.c: 195:      case 0x0A :
  3190     030C  3030               	movlw	48
  3191     030D  00D6               	movwf	main@reset_flag^(0+128)
  3192                           
  3193                           ;main.c: 196:                         control_flag = 0x03;
  3194     030E  2C05               	goto	l5115
  3195     030F                     l5083:
  3196                           
  3197                           ;main.c: 204: 
  3198     030F  3000               	movlw	0
  3199     0310  1683               	bsf	3,5	;RP0=1, select bank1
  3200     0311  1303               	bcf	3,6	;RP1=0, select bank1
  3201     0312  00D4               	movwf	(main@wait_time+3)^(0+128)
  3202     0313  3000               	movlw	0
  3203     0314  00D3               	movwf	(main@wait_time+2)^(0+128)
  3204     0315  3000               	movlw	0
  3205     0316  00D2               	movwf	(main@wait_time+1)^(0+128)
  3206     0317  3032               	movlw	50
  3207     0318  00D1               	movwf	main@wait_time^(0+128)
  3208     0319                     l5085:
  3209                           
  3210                           ;main.c: 205:      control_flag = 0x03;
  3211     0319  01D7               	clrf	main@control_flag^(0+128)
  3212     031A  0AD7               	incf	main@control_flag^(0+128),f
  3213                           
  3214                           ;main.c: 207:                     clear_screen();
  3215     031B  2B42               	goto	l5093
  3216     031C                     l5087:
  3217                           
  3218                           ;main.c: 210:     break;
  3219     031C  3003               	movlw	3
  3220     031D  1683               	bsf	3,5	;RP0=1, select bank1
  3221     031E  1303               	bcf	3,6	;RP1=0, select bank1
  3222     031F  00D7               	movwf	main@control_flag^(0+128)
  3223                           
  3224                           ;main.c: 211: 
  3225     0320  3030               	movlw	48
  3226     0321  00D6               	movwf	main@reset_flag^(0+128)
  3227                           
  3228                           ;main.c: 213:             case 0X07:
  3229     0322  286F               	goto	l4919
  3230     0323                     l5091:
  3231     0323  1683               	bsf	3,5	;RP0=1, select bank1
  3232     0324  1303               	bcf	3,6	;RP1=0, select bank1
  3233     0325  0856               	movf	main@reset_flag^(0+128),w
  3234     0326  1283               	bcf	3,5	;RP0=0, select bank0
  3235     0327  1303               	bcf	3,6	;RP1=0, select bank0
  3236     0328  00CE               	movwf	change_password@reset_pwd
  3237     0329  1683               	bsf	3,5	;RP0=1, select bank1
  3238     032A  1303               	bcf	3,6	;RP1=0, select bank1
  3239     032B  0858               	movf	main@key^(0+128),w
  3240     032C  120A  158A  2445  120A  118A  	fcall	_change_password
  3241     0331  1283               	bcf	3,5	;RP0=0, select bank0
  3242     0332  1303               	bcf	3,6	;RP1=0, select bank0
  3243     0333  00DF               	movwf	??_main
  3244     0334  01E0               	clrf	??_main+1
  3245                           
  3246                           ; Switch on 2 bytes has been partitioned into a top level switch of size 1, and 1 sub-sw
      +                          itches
  3247                           ; Switch size 1, requested type "simple"
  3248                           ; Number of cases is 1, Range of values is 0 to 0
  3249                           ; switch strategies available:
  3250                           ; Name         Instructions Cycles
  3251                           ; simple_byte            4     3 (average)
  3252                           ; direct_byte           11     8 (fixed)
  3253                           ; jumptable            260     6 (fixed)
  3254                           ;	Chosen strategy is simple_byte
  3255     0335  0860               	movf	??_main+1,w
  3256     0336  3A00               	xorlw	0	; case 0
  3257     0337  1903               	skipnz
  3258     0338  2B3A               	goto	l5345
  3259     0339  2B42               	goto	l5093
  3260     033A                     l5345:
  3261                           
  3262                           ; Switch size 1, requested type "simple"
  3263                           ; Number of cases is 2, Range of values is 10 to 12
  3264                           ; switch strategies available:
  3265                           ; Name         Instructions Cycles
  3266                           ; simple_byte            7     4 (average)
  3267                           ; direct_byte           20    11 (fixed)
  3268                           ; jumptable            263     9 (fixed)
  3269                           ;	Chosen strategy is simple_byte
  3270     033A  085F               	movf	??_main,w
  3271     033B  3A0A               	xorlw	10	; case 10
  3272     033C  1903               	skipnz
  3273     033D  2B1C               	goto	l5087
  3274     033E  3A06               	xorlw	6	; case 12
  3275     033F  1903               	skipnz
  3276     0340  2B0F               	goto	l5083
  3277     0341  2B42               	goto	l5093
  3278     0342                     l5093:
  3279                           
  3280                           ;main.c: 216: 
  3281     0342  1683               	bsf	3,5	;RP0=1, select bank1
  3282     0343  1303               	bcf	3,6	;RP1=0, select bank1
  3283     0344  0854               	movf	(main@wait_time+3)^(0+128),w
  3284     0345  0453               	iorwf	(main@wait_time+2)^(0+128),w
  3285     0346  0452               	iorwf	(main@wait_time+1)^(0+128),w
  3286     0347  0451               	iorwf	main@wait_time^(0+128),w
  3287     0348  1903               	skipnz
  3288     0349  2B4B               	goto	u4501
  3289     034A  2B4C               	goto	u4500
  3290     034B                     u4501:
  3291     034B  2C05               	goto	l5115
  3292     034C                     u4500:
  3293     034C                     l5095:
  3294     034C  3001               	movlw	1
  3295     034D  1283               	bcf	3,5	;RP0=0, select bank0
  3296     034E  1303               	bcf	3,6	;RP1=0, select bank0
  3297     034F  00DF               	movwf	??_main
  3298     0350  3000               	movlw	0
  3299     0351  00E0               	movwf	??_main+1
  3300     0352  3000               	movlw	0
  3301     0353  00E1               	movwf	??_main+2
  3302     0354  3000               	movlw	0
  3303     0355  00E2               	movwf	??_main+3
  3304     0356  085F               	movf	??_main,w
  3305     0357  1683               	bsf	3,5	;RP0=1, select bank1
  3306     0358  1303               	bcf	3,6	;RP1=0, select bank1
  3307     0359  02D1               	subwf	main@wait_time^(0+128),f
  3308     035A  1283               	bcf	3,5	;RP0=0, select bank0
  3309     035B  1303               	bcf	3,6	;RP1=0, select bank0
  3310     035C  0860               	movf	??_main+1,w
  3311     035D  1C03               	skipc
  3312     035E  0F60               	incfsz	??_main+1,w
  3313     035F  2B61               	goto	u4515
  3314     0360  2B64               	goto	u4516
  3315     0361                     u4515:
  3316     0361  1683               	bsf	3,5	;RP0=1, select bank1
  3317     0362  1303               	bcf	3,6	;RP1=0, select bank1
  3318     0363  02D2               	subwf	(main@wait_time+1)^(0+128),f
  3319     0364                     u4516:
  3320     0364  1283               	bcf	3,5	;RP0=0, select bank0
  3321     0365  1303               	bcf	3,6	;RP1=0, select bank0
  3322     0366  0861               	movf	??_main+2,w
  3323     0367  1C03               	skipc
  3324     0368  0F61               	incfsz	??_main+2,w
  3325     0369  2B6B               	goto	u4517
  3326     036A  2B6E               	goto	u4518
  3327     036B                     u4517:
  3328     036B  1683               	bsf	3,5	;RP0=1, select bank1
  3329     036C  1303               	bcf	3,6	;RP1=0, select bank1
  3330     036D  02D3               	subwf	(main@wait_time+2)^(0+128),f
  3331     036E                     u4518:
  3332     036E  1283               	bcf	3,5	;RP0=0, select bank0
  3333     036F  1303               	bcf	3,6	;RP1=0, select bank0
  3334     0370  0862               	movf	??_main+3,w
  3335     0371  1C03               	skipc
  3336     0372  0F62               	incfsz	??_main+3,w
  3337     0373  2B75               	goto	u4519
  3338     0374  2B78               	goto	u4510
  3339     0375                     u4519:
  3340     0375  1683               	bsf	3,5	;RP0=1, select bank1
  3341     0376  1303               	bcf	3,6	;RP1=0, select bank1
  3342     0377  02D4               	subwf	(main@wait_time+3)^(0+128),f
  3343     0378                     u4510:
  3344     0378  1283               	bcf	3,5	;RP0=0, select bank0
  3345     0379  1303               	bcf	3,6	;RP1=0, select bank0
  3346     037A  1683               	bsf	3,5	;RP0=1, select bank1
  3347     037B  1303               	bcf	3,6	;RP1=0, select bank1
  3348     037C  0854               	movf	(main@wait_time+3)^(0+128),w
  3349     037D  0453               	iorwf	(main@wait_time+2)^(0+128),w
  3350     037E  0452               	iorwf	(main@wait_time+1)^(0+128),w
  3351     037F  0451               	iorwf	main@wait_time^(0+128),w
  3352     0380  1D03               	skipz
  3353     0381  2B83               	goto	u4521
  3354     0382  2B84               	goto	u4520
  3355     0383                     u4521:
  3356     0383  2C05               	goto	l5115
  3357     0384                     u4520:
  3358     0384  2AF7               	goto	l5073
  3359     0385                     l5101:
  3360                           
  3361                           ;main.c: 228:         reset_flag = 0x20;
  3362     0385  1683               	bsf	3,5	;RP0=1, select bank1
  3363     0386  1303               	bcf	3,6	;RP1=0, select bank1
  3364     0387  0856               	movf	main@reset_flag^(0+128),w
  3365     0388  1283               	bcf	3,5	;RP0=0, select bank0
  3366     0389  1303               	bcf	3,6	;RP1=0, select bank0
  3367     038A  00CE               	movwf	set_time@reset_time
  3368     038B  1683               	bsf	3,5	;RP0=1, select bank1
  3369     038C  1303               	bcf	3,6	;RP1=0, select bank1
  3370     038D  0858               	movf	main@key^(0+128),w
  3371     038E  120A  118A  240D  120A  118A  	fcall	_set_time
  3372     0393  3A0C               	xorlw	12
  3373     0394  1D03               	skipz
  3374     0395  2B97               	goto	u4531
  3375     0396  2B98               	goto	u4530
  3376     0397                     u4531:
  3377     0397  2BA2               	goto	l5105
  3378     0398                     u4530:
  3379     0398                     l5103:
  3380                           
  3381                           ;main.c: 229:     }
  3382     0398  3000               	movlw	0
  3383     0399  1683               	bsf	3,5	;RP0=1, select bank1
  3384     039A  1303               	bcf	3,6	;RP1=0, select bank1
  3385     039B  00D4               	movwf	(main@wait_time+3)^(0+128)
  3386     039C  3000               	movlw	0
  3387     039D  00D3               	movwf	(main@wait_time+2)^(0+128)
  3388     039E  3000               	movlw	0
  3389     039F  00D2               	movwf	(main@wait_time+1)^(0+128)
  3390     03A0  3032               	movlw	50
  3391     03A1  00D1               	movwf	main@wait_time^(0+128)
  3392     03A2                     l5105:
  3393     03A2  3001               	movlw	1
  3394     03A3  1283               	bcf	3,5	;RP0=0, select bank0
  3395     03A4  1303               	bcf	3,6	;RP1=0, select bank0
  3396     03A5  00DF               	movwf	??_main
  3397     03A6  3000               	movlw	0
  3398     03A7  00E0               	movwf	??_main+1
  3399     03A8  3000               	movlw	0
  3400     03A9  00E1               	movwf	??_main+2
  3401     03AA  3000               	movlw	0
  3402     03AB  00E2               	movwf	??_main+3
  3403     03AC  085F               	movf	??_main,w
  3404     03AD  1683               	bsf	3,5	;RP0=1, select bank1
  3405     03AE  1303               	bcf	3,6	;RP1=0, select bank1
  3406     03AF  02D1               	subwf	main@wait_time^(0+128),f
  3407     03B0  1283               	bcf	3,5	;RP0=0, select bank0
  3408     03B1  1303               	bcf	3,6	;RP1=0, select bank0
  3409     03B2  0860               	movf	??_main+1,w
  3410     03B3  1C03               	skipc
  3411     03B4  0F60               	incfsz	??_main+1,w
  3412     03B5  2BB7               	goto	u4545
  3413     03B6  2BBA               	goto	u4546
  3414     03B7                     u4545:
  3415     03B7  1683               	bsf	3,5	;RP0=1, select bank1
  3416     03B8  1303               	bcf	3,6	;RP1=0, select bank1
  3417     03B9  02D2               	subwf	(main@wait_time+1)^(0+128),f
  3418     03BA                     u4546:
  3419     03BA  1283               	bcf	3,5	;RP0=0, select bank0
  3420     03BB  1303               	bcf	3,6	;RP1=0, select bank0
  3421     03BC  0861               	movf	??_main+2,w
  3422     03BD  1C03               	skipc
  3423     03BE  0F61               	incfsz	??_main+2,w
  3424     03BF  2BC1               	goto	u4547
  3425     03C0  2BC4               	goto	u4548
  3426     03C1                     u4547:
  3427     03C1  1683               	bsf	3,5	;RP0=1, select bank1
  3428     03C2  1303               	bcf	3,6	;RP1=0, select bank1
  3429     03C3  02D3               	subwf	(main@wait_time+2)^(0+128),f
  3430     03C4                     u4548:
  3431     03C4  1283               	bcf	3,5	;RP0=0, select bank0
  3432     03C5  1303               	bcf	3,6	;RP1=0, select bank0
  3433     03C6  0862               	movf	??_main+3,w
  3434     03C7  1C03               	skipc
  3435     03C8  0F62               	incfsz	??_main+3,w
  3436     03C9  2BCB               	goto	u4549
  3437     03CA  2BCE               	goto	u4540
  3438     03CB                     u4549:
  3439     03CB  1683               	bsf	3,5	;RP0=1, select bank1
  3440     03CC  1303               	bcf	3,6	;RP1=0, select bank1
  3441     03CD  02D4               	subwf	(main@wait_time+3)^(0+128),f
  3442     03CE                     u4540:
  3443     03CE  1283               	bcf	3,5	;RP0=0, select bank0
  3444     03CF  1303               	bcf	3,6	;RP1=0, select bank0
  3445     03D0  1683               	bsf	3,5	;RP0=1, select bank1
  3446     03D1  1303               	bcf	3,6	;RP1=0, select bank1
  3447     03D2  0A51               	incf	main@wait_time^(0+128),w
  3448     03D3  1D03               	skipz
  3449     03D4  2BDF               	goto	u4551
  3450     03D5  0A52               	incf	(main@wait_time+1)^(0+128),w
  3451     03D6  1D03               	skipz
  3452     03D7  2BDF               	goto	u4551
  3453     03D8  0A53               	incf	(main@wait_time+2)^(0+128),w
  3454     03D9  1D03               	skipz
  3455     03DA  2BDF               	goto	u4551
  3456     03DB  0A54               	incf	(main@wait_time+3)^(0+128),w
  3457     03DC  1D03               	btfss	3,2
  3458     03DD  2BDF               	goto	u4551
  3459     03DE  2BE0               	goto	u4550
  3460     03DF                     u4551:
  3461     03DF  2C05               	goto	l5115
  3462     03E0                     u4550:
  3463     03E0  2AF7               	goto	l5073
  3464     03E1                     l5113:
  3465     03E1  0857               	movf	main@control_flag^(0+128),w
  3466     03E2  1283               	bcf	3,5	;RP0=0, select bank0
  3467     03E3  1303               	bcf	3,6	;RP1=0, select bank0
  3468     03E4  00DF               	movwf	??_main
  3469     03E5  01E0               	clrf	??_main+1
  3470                           
  3471                           ; Switch on 2 bytes has been partitioned into a top level switch of size 1, and 1 sub-sw
      +                          itches
  3472                           ; Switch size 1, requested type "simple"
  3473                           ; Number of cases is 1, Range of values is 0 to 0
  3474                           ; switch strategies available:
  3475                           ; Name         Instructions Cycles
  3476                           ; simple_byte            4     3 (average)
  3477                           ; direct_byte           11     8 (fixed)
  3478                           ; jumptable            260     6 (fixed)
  3479                           ;	Chosen strategy is simple_byte
  3480     03E6  0860               	movf	??_main+1,w
  3481     03E7  3A00               	xorlw	0	; case 0
  3482     03E8  1903               	skipnz
  3483     03E9  2BEB               	goto	l5347
  3484     03EA  2C05               	goto	l5115
  3485     03EB                     l5347:
  3486                           
  3487                           ; Switch size 1, requested type "simple"
  3488                           ; Number of cases is 8, Range of values is 1 to 8
  3489                           ; switch strategies available:
  3490                           ; Name         Instructions Cycles
  3491                           ; simple_byte           25    13 (average)
  3492                           ; direct_byte           35    11 (fixed)
  3493                           ; jumptable            263     9 (fixed)
  3494                           ;	Chosen strategy is simple_byte
  3495     03EB  085F               	movf	??_main,w
  3496     03EC  3A01               	xorlw	1	; case 1
  3497     03ED  1903               	skipnz
  3498     03EE  2A1C               	goto	l5041
  3499     03EF  3A03               	xorlw	3	; case 2
  3500     03F0  1903               	skipnz
  3501     03F1  2A57               	goto	l5059
  3502     03F2  3A01               	xorlw	1	; case 3
  3503     03F3  1903               	skipnz
  3504     03F4  2A76               	goto	l5061
  3505     03F5  3A07               	xorlw	7	; case 4
  3506     03F6  1903               	skipnz
  3507     03F7  2A88               	goto	l5063
  3508     03F8  3A01               	xorlw	1	; case 5
  3509     03F9  1903               	skipnz
  3510     03FA  2A9E               	goto	l5067
  3511     03FB  3A03               	xorlw	3	; case 6
  3512     03FC  1903               	skipnz
  3513     03FD  2B03               	goto	l5077
  3514     03FE  3A01               	xorlw	1	; case 7
  3515     03FF  1903               	skipnz
  3516     0400  2B85               	goto	l5101
  3517     0401  3A0F               	xorlw	15	; case 8
  3518     0402  1903               	skipnz
  3519     0403  2B23               	goto	l5091
  3520     0404  2C05               	goto	l5115
  3521     0405                     l5115:
  3522     0405  3020               	movlw	32
  3523     0406  1683               	bsf	3,5	;RP0=1, select bank1
  3524     0407  1303               	bcf	3,6	;RP1=0, select bank1
  3525     0408  00D6               	movwf	main@reset_flag^(0+128)
  3526     0409  286F               	goto	l4919
  3527     040A  120A  118A  280C   	ljmp	start
  3528     040D                     __end_of_main:
  3529                           
  3530                           	psect	text1
  3531     0B2B                     __ptext1:	
  3532 ;; *************** function _view_log *****************
  3533 ;; Defined at:
  3534 ;;		line 230 in file "car_bb.c"
  3535 ;; Parameters:    Size  Location     Type
  3536 ;;  key             1    wreg     unsigned char 
  3537 ;;  reset_flag      1    9[BANK0 ] unsigned char 
  3538 ;; Auto vars:     Size  Location     Type
  3539 ;;  key             1   23[BANK0 ] unsigned char 
  3540 ;;  i               2   24[BANK0 ] int 
  3541 ;;  view           11   11[BANK0 ] unsigned char [11]
  3542 ;;  addr            1   22[BANK0 ] unsigned char 
  3543 ;; Return value:  Size  Location     Type
  3544 ;;                  1    wreg      void 
  3545 ;; Registers used:
  3546 ;;		wreg, fsr0l, fsr0h, status,2, status,0, btemp+1, pclath, cstack
  3547 ;; Tracked objects:
  3548 ;;		On entry : 0/0
  3549 ;;		On exit  : 0/0
  3550 ;;		Unchanged: 0/0
  3551 ;; Data sizes:     COMMON   BANK0   BANK1   BANK3   BANK2
  3552 ;;      Params:         0       1       0       0       0
  3553 ;;      Locals:         0      15       0       0       0
  3554 ;;      Temps:          0       1       0       0       0
  3555 ;;      Totals:         0      17       0       0       0
  3556 ;;Total ram usage:       17 bytes
  3557 ;; Hardware stack levels used: 1
  3558 ;; Hardware stack levels required when called: 5
  3559 ;; This function calls:
  3560 ;;		___bmul
  3561 ;;		_clcd_print
  3562 ;;		_clcd_putch
  3563 ;;		_clcd_write
  3564 ;;		_clear_screen
  3565 ;;		_eeprom_at24c04_random_read
  3566 ;; This function is called by:
  3567 ;;		_main
  3568 ;; This function uses a non-reentrant model
  3569 ;;
  3570                           
  3571     0B2B                     _view_log:	
  3572                           ;psect for function _view_log
  3573                           
  3574                           
  3575                           ;incstack = 0
  3576                           ; Regs used in _view_log: [wreg-fsr0h+status,2+status,0+btemp+1+pclath+cstack]
  3577                           ;view_log@key stored from wreg
  3578     0B2B  1283               	bcf	3,5	;RP0=0, select bank0
  3579     0B2C  1303               	bcf	3,6	;RP1=0, select bank0
  3580     0B2D  00DC               	movwf	view_log@key
  3581     0B2E                     l4605:
  3582                           
  3583                           ;car_bb.c: 230: void view_log(unsigned char key, unsigned char reset_flag);car_bb.c: 231
      +                          : {;car_bb.c: 232:     unsigned char view[11];;car_bb.c: 233:     static char shift = 0;
      +                          ;car_bb.c: 234:     unsigned char addr;;car_bb.c: 236:     if(event_count == -1)
  3584     0B2E  0A2E               	incf	_event_count,w
  3585     0B2F  1D03               	skipz
  3586     0B30  2B35               	goto	u3981
  3587     0B31  0A2F               	incf	_event_count+1,w
  3588     0B32  1D03               	btfss	3,2
  3589     0B33  2B35               	goto	u3981
  3590     0B34  2B36               	goto	u3980
  3591     0B35                     u3981:
  3592     0B35  2B4D               	goto	l4609
  3593     0B36                     u3980:
  3594     0B36                     l4607:
  3595                           
  3596                           ;car_bb.c: 237:     {;car_bb.c: 239:         clcd_print("#  TIME    E   SP", (0x80 + 0))
      +                          ;
  3597     0B36  3027               	movlw	low (STR_24| (0+32768))
  3598     0B37  00F6               	movwf	clcd_print@str
  3599     0B38  3087               	movlw	high (STR_24| (0+32768))
  3600     0B39  00F7               	movwf	clcd_print@str+1
  3601     0B3A  3080               	movlw	128
  3602     0B3B  00F8               	movwf	clcd_print@addr
  3603     0B3C  160A  118A  24B5  120A  158A  	fcall	_clcd_print
  3604                           
  3605                           ;car_bb.c: 241:         clcd_print("No Logs Available", (0xC0 + 0));
  3606     0B41  3039               	movlw	low (STR_25| (0+32768))
  3607     0B42  00F6               	movwf	clcd_print@str
  3608     0B43  3087               	movlw	high (STR_25| (0+32768))
  3609     0B44  00F7               	movwf	clcd_print@str+1
  3610     0B45  30C0               	movlw	192
  3611     0B46  00F8               	movwf	clcd_print@addr
  3612     0B47  160A  118A  24B5  120A  158A  	fcall	_clcd_print
  3613                           
  3614                           ;car_bb.c: 242:     }
  3615     0B4C  2C44               	goto	l355
  3616     0B4D                     l4609:
  3617                           
  3618                           ;car_bb.c: 245:  {;car_bb.c: 246:         clcd_print("#  TIME    E   SP", (0x80 + 0));
  3619     0B4D  3027               	movlw	low (STR_24| (0+32768))
  3620     0B4E  00F6               	movwf	clcd_print@str
  3621     0B4F  3087               	movlw	high (STR_24| (0+32768))
  3622     0B50  00F7               	movwf	clcd_print@str+1
  3623     0B51  3080               	movlw	128
  3624     0B52  00F8               	movwf	clcd_print@addr
  3625     0B53  160A  118A  24B5  120A  158A  	fcall	_clcd_print
  3626     0B58                     l4611:
  3627                           
  3628                           ;car_bb.c: 247:         if ( key == 0x37 && shift < event_count )
  3629     0B58  3037               	movlw	55
  3630     0B59  1283               	bcf	3,5	;RP0=0, select bank0
  3631     0B5A  1303               	bcf	3,6	;RP1=0, select bank0
  3632     0B5B  065C               	xorwf	view_log@key,w
  3633     0B5C  1D03               	btfss	3,2
  3634     0B5D  2B5F               	goto	u3991
  3635     0B5E  2B60               	goto	u3990
  3636     0B5F                     u3991:
  3637     0B5F  2B77               	goto	l4619
  3638     0B60                     u3990:
  3639     0B60                     l4613:
  3640     0B60  082F               	movf	_event_count+1,w
  3641     0B61  3A80               	xorlw	128
  3642     0B62  3C80               	sublw	128
  3643     0B63  1D03               	skipz
  3644     0B64  2B67               	goto	u4005
  3645     0B65  082E               	movf	_event_count,w
  3646     0B66  0234               	subwf	view_log@shift,w
  3647     0B67                     u4005:
  3648     0B67  1803               	skipnc
  3649     0B68  2B6A               	goto	u4001
  3650     0B69  2B6B               	goto	u4000
  3651     0B6A                     u4001:
  3652     0B6A  2B77               	goto	l4619
  3653     0B6B                     u4000:
  3654     0B6B                     l4615:
  3655                           
  3656                           ;car_bb.c: 248:         {;car_bb.c: 249:             shift++;
  3657     0B6B  3001               	movlw	1
  3658     0B6C  1283               	bcf	3,5	;RP0=0, select bank0
  3659     0B6D  1303               	bcf	3,6	;RP1=0, select bank0
  3660     0B6E  00CF               	movwf	??_view_log
  3661     0B6F  084F               	movf	??_view_log,w
  3662     0B70  07B4               	addwf	view_log@shift,f
  3663     0B71                     l4617:
  3664                           
  3665                           ;car_bb.c: 250:             clear_screen() ;
  3666     0B71  160A  118A  2288  120A  158A  	fcall	_clear_screen
  3667                           
  3668                           ;car_bb.c: 251:         }
  3669     0B76  2B87               	goto	l4627
  3670     0B77                     l4619:
  3671     0B77  302F               	movlw	47
  3672     0B78  1283               	bcf	3,5	;RP0=0, select bank0
  3673     0B79  1303               	bcf	3,6	;RP1=0, select bank0
  3674     0B7A  065C               	xorwf	view_log@key,w
  3675     0B7B  1D03               	btfss	3,2
  3676     0B7C  2B7E               	goto	u4011
  3677     0B7D  2B7F               	goto	u4010
  3678     0B7E                     u4011:
  3679     0B7E  2B87               	goto	l4627
  3680     0B7F                     u4010:
  3681     0B7F                     l4621:
  3682     0B7F  0834               	movf	view_log@shift,w
  3683     0B80  1903               	btfsc	3,2
  3684     0B81  2B83               	goto	u4021
  3685     0B82  2B84               	goto	u4020
  3686     0B83                     u4021:
  3687     0B83  2B87               	goto	l4627
  3688     0B84                     u4020:
  3689     0B84                     l4623:
  3690                           
  3691                           ;car_bb.c: 253:         {;car_bb.c: 254:    shift--;
  3692     0B84  3001               	movlw	1
  3693     0B85  02B4               	subwf	view_log@shift,f
  3694     0B86  2B71               	goto	l4617
  3695     0B87                     l4627:
  3696                           
  3697                           ;car_bb.c: 258:         addr = shift * 10 + 0x05;
  3698     0B87  300A               	movlw	10
  3699     0B88  00F2               	movwf	___bmul@multiplicand
  3700     0B89  1283               	bcf	3,5	;RP0=0, select bank0
  3701     0B8A  1303               	bcf	3,6	;RP1=0, select bank0
  3702     0B8B  0834               	movf	view_log@shift,w
  3703     0B8C  160A  118A  22E6  120A  158A  	fcall	___bmul
  3704     0B91  3E05               	addlw	5
  3705     0B92  1283               	bcf	3,5	;RP0=0, select bank0
  3706     0B93  1303               	bcf	3,6	;RP1=0, select bank0
  3707     0B94  00DB               	movwf	view_log@addr
  3708     0B95                     l4629:
  3709                           
  3710                           ;car_bb.c: 260:         for ( int i = 0 ; i < 10 ; i++ )
  3711     0B95  01DD               	clrf	view_log@i
  3712     0B96  01DE               	clrf	view_log@i+1
  3713     0B97                     l4635:
  3714                           
  3715                           ;car_bb.c: 261:   {;car_bb.c: 262:             view[i] = eeprom_at24c04_random_read(addr
      +                           + (unsigned char) i);
  3716     0B97  1283               	bcf	3,5	;RP0=0, select bank0
  3717     0B98  1303               	bcf	3,6	;RP1=0, select bank0
  3718     0B99  085D               	movf	view_log@i,w
  3719     0B9A  3E50               	addlw	(low (view_log@view| 0))& (0+255)
  3720     0B9B  0084               	movwf	4
  3721     0B9C  085D               	movf	view_log@i,w
  3722     0B9D  075B               	addwf	view_log@addr,w
  3723     0B9E  160A  118A  248A  120A  158A  	fcall	_eeprom_at24c04_random_read
  3724     0BA3  1383               	bcf	3,7	;select IRP bank0
  3725     0BA4  0080               	movwf	0
  3726     0BA5                     l4637:
  3727                           
  3728                           ;car_bb.c: 263:   }
  3729     0BA5  3001               	movlw	1
  3730     0BA6  1283               	bcf	3,5	;RP0=0, select bank0
  3731     0BA7  1303               	bcf	3,6	;RP1=0, select bank0
  3732     0BA8  07DD               	addwf	view_log@i,f
  3733     0BA9  1803               	skipnc
  3734     0BAA  0ADE               	incf	view_log@i+1,f
  3735     0BAB  3000               	movlw	0
  3736     0BAC  07DE               	addwf	view_log@i+1,f
  3737     0BAD                     l4639:
  3738     0BAD  085E               	movf	view_log@i+1,w
  3739     0BAE  3A80               	xorlw	128
  3740     0BAF  00FF               	movwf	btemp+1
  3741     0BB0  3080               	movlw	128
  3742     0BB1  027F               	subwf	btemp+1,w
  3743     0BB2  1D03               	skipz
  3744     0BB3  2BB6               	goto	u4035
  3745     0BB4  300A               	movlw	10
  3746     0BB5  025D               	subwf	view_log@i,w
  3747     0BB6                     u4035:
  3748     0BB6  1C03               	skipc
  3749     0BB7  2BB9               	goto	u4031
  3750     0BB8  2BBA               	goto	u4030
  3751     0BB9                     u4031:
  3752     0BB9  2B97               	goto	l4635
  3753     0BBA                     u4030:
  3754     0BBA                     l4641:
  3755                           
  3756                           ;car_bb.c: 264:         clcd_write(0x0C, 0);
  3757     0BBA  01F2               	clrf	clcd_write@mode
  3758     0BBB  300C               	movlw	12
  3759     0BBC  160A  118A  2332  120A  158A  	fcall	_clcd_write
  3760                           
  3761                           ;car_bb.c: 266:   clcd_putch ( shift + '0' , (0xC0 + 0));
  3762     0BC1  30C0               	movlw	192
  3763     0BC2  1283               	bcf	3,5	;RP0=0, select bank0
  3764     0BC3  1303               	bcf	3,6	;RP1=0, select bank0
  3765     0BC4  00CC               	movwf	clcd_putch@addr
  3766     0BC5  0834               	movf	view_log@shift,w
  3767     0BC6  3E30               	addlw	48
  3768     0BC7  160A  118A  22D1  120A  158A  	fcall	_clcd_putch
  3769                           
  3770                           ;car_bb.c: 267:   clcd_putch ( view[0] , (0xC0 + 2));
  3771     0BCC  30C2               	movlw	194
  3772     0BCD  1283               	bcf	3,5	;RP0=0, select bank0
  3773     0BCE  1303               	bcf	3,6	;RP1=0, select bank0
  3774     0BCF  00CC               	movwf	clcd_putch@addr
  3775     0BD0  0850               	movf	view_log@view,w
  3776     0BD1  160A  118A  22D1  120A  158A  	fcall	_clcd_putch
  3777                           
  3778                           ;car_bb.c: 268:   clcd_putch ( view[1] , (0xC0 + 3));
  3779     0BD6  30C3               	movlw	195
  3780     0BD7  1283               	bcf	3,5	;RP0=0, select bank0
  3781     0BD8  1303               	bcf	3,6	;RP1=0, select bank0
  3782     0BD9  00CC               	movwf	clcd_putch@addr
  3783     0BDA  0851               	movf	view_log@view+1,w
  3784     0BDB  160A  118A  22D1  120A  158A  	fcall	_clcd_putch
  3785                           
  3786                           ;car_bb.c: 269:   clcd_putch ( ':' , (0xC0 + 4));
  3787     0BE0  30C4               	movlw	196
  3788     0BE1  1283               	bcf	3,5	;RP0=0, select bank0
  3789     0BE2  1303               	bcf	3,6	;RP1=0, select bank0
  3790     0BE3  00CC               	movwf	clcd_putch@addr
  3791     0BE4  303A               	movlw	58
  3792     0BE5  160A  118A  22D1  120A  158A  	fcall	_clcd_putch
  3793                           
  3794                           ;car_bb.c: 270:   clcd_putch ( view[2] , (0xC0 + 5));
  3795     0BEA  30C5               	movlw	197
  3796     0BEB  1283               	bcf	3,5	;RP0=0, select bank0
  3797     0BEC  1303               	bcf	3,6	;RP1=0, select bank0
  3798     0BED  00CC               	movwf	clcd_putch@addr
  3799     0BEE  0852               	movf	view_log@view+2,w
  3800     0BEF  160A  118A  22D1  120A  158A  	fcall	_clcd_putch
  3801                           
  3802                           ;car_bb.c: 271:   clcd_putch ( view[3] , (0xC0 + 6));
  3803     0BF4  30C6               	movlw	198
  3804     0BF5  1283               	bcf	3,5	;RP0=0, select bank0
  3805     0BF6  1303               	bcf	3,6	;RP1=0, select bank0
  3806     0BF7  00CC               	movwf	clcd_putch@addr
  3807     0BF8  0853               	movf	view_log@view+3,w
  3808     0BF9  160A  118A  22D1  120A  158A  	fcall	_clcd_putch
  3809                           
  3810                           ;car_bb.c: 272:   clcd_putch ( ':' , (0xC0 + 7));
  3811     0BFE  30C7               	movlw	199
  3812     0BFF  1283               	bcf	3,5	;RP0=0, select bank0
  3813     0C00  1303               	bcf	3,6	;RP1=0, select bank0
  3814     0C01  00CC               	movwf	clcd_putch@addr
  3815     0C02  303A               	movlw	58
  3816     0C03  160A  118A  22D1  120A  158A  	fcall	_clcd_putch
  3817                           
  3818                           ;car_bb.c: 273:   clcd_putch ( view[4] , (0xC0 + 8));
  3819     0C08  30C8               	movlw	200
  3820     0C09  1283               	bcf	3,5	;RP0=0, select bank0
  3821     0C0A  1303               	bcf	3,6	;RP1=0, select bank0
  3822     0C0B  00CC               	movwf	clcd_putch@addr
  3823     0C0C  0854               	movf	view_log@view+4,w
  3824     0C0D  160A  118A  22D1  120A  158A  	fcall	_clcd_putch
  3825                           
  3826                           ;car_bb.c: 274:   clcd_putch ( view[5] , (0xC0 + 9));
  3827     0C12  30C9               	movlw	201
  3828     0C13  1283               	bcf	3,5	;RP0=0, select bank0
  3829     0C14  1303               	bcf	3,6	;RP1=0, select bank0
  3830     0C15  00CC               	movwf	clcd_putch@addr
  3831     0C16  0855               	movf	view_log@view+5,w
  3832     0C17  160A  118A  22D1  120A  158A  	fcall	_clcd_putch
  3833                           
  3834                           ;car_bb.c: 275:   clcd_putch ( view[6] , (0xC0 + 11));
  3835     0C1C  30CB               	movlw	203
  3836     0C1D  1283               	bcf	3,5	;RP0=0, select bank0
  3837     0C1E  1303               	bcf	3,6	;RP1=0, select bank0
  3838     0C1F  00CC               	movwf	clcd_putch@addr
  3839     0C20  0856               	movf	view_log@view+6,w
  3840     0C21  160A  118A  22D1  120A  158A  	fcall	_clcd_putch
  3841                           
  3842                           ;car_bb.c: 276:   clcd_putch ( view[7] , (0xC0 + 12));
  3843     0C26  30CC               	movlw	204
  3844     0C27  1283               	bcf	3,5	;RP0=0, select bank0
  3845     0C28  1303               	bcf	3,6	;RP1=0, select bank0
  3846     0C29  00CC               	movwf	clcd_putch@addr
  3847     0C2A  0857               	movf	view_log@view+7,w
  3848     0C2B  160A  118A  22D1  120A  158A  	fcall	_clcd_putch
  3849                           
  3850                           ;car_bb.c: 277:   clcd_putch ( view[8] , (0xC0 + 14));
  3851     0C30  30CE               	movlw	206
  3852     0C31  1283               	bcf	3,5	;RP0=0, select bank0
  3853     0C32  1303               	bcf	3,6	;RP1=0, select bank0
  3854     0C33  00CC               	movwf	clcd_putch@addr
  3855     0C34  0858               	movf	view_log@view+8,w
  3856     0C35  160A  118A  22D1  120A  158A  	fcall	_clcd_putch
  3857                           
  3858                           ;car_bb.c: 278:   clcd_putch ( view[9] , (0xC0 + 15));
  3859     0C3A  30CF               	movlw	207
  3860     0C3B  1283               	bcf	3,5	;RP0=0, select bank0
  3861     0C3C  1303               	bcf	3,6	;RP1=0, select bank0
  3862     0C3D  00CC               	movwf	clcd_putch@addr
  3863     0C3E  0859               	movf	view_log@view+9,w
  3864     0C3F  160A  118A  22D1  120A  158A  	fcall	_clcd_putch
  3865     0C44                     l355:
  3866     0C44  0008               	return
  3867     0C45                     __end_of_view_log:
  3868                           
  3869                           	psect	text2
  3870     1398                     __ptext2:	
  3871 ;; *************** function _strcpy *****************
  3872 ;; Defined at:
  3873 ;;		line 8 in file "C:\Program Files\Microchip\xc8\v2.40\pic\sources\c90\common\strcpy.c"
  3874 ;; Parameters:    Size  Location     Type
  3875 ;;  to              1    wreg     PTR unsigned char 
  3876 ;;		 -> main@event(3), 
  3877 ;;  from            2    2[COMMON] PTR const unsigned char 
  3878 ;;		 -> STR_8(3), STR_6(3), STR_5(3), STR_4(3), 
  3879 ;;		 -> STR_3(3), STR_2(3), STR_1(3), 
  3880 ;; Auto vars:     Size  Location     Type
  3881 ;;  to              1    6[COMMON] PTR unsigned char 
  3882 ;;		 -> main@event(3), 
  3883 ;;  cp              1    5[COMMON] PTR unsigned char 
  3884 ;;		 -> main@event(3), 
  3885 ;; Return value:  Size  Location     Type
  3886 ;;                  1    wreg      PTR unsigned char 
  3887 ;; Registers used:
  3888 ;;		wreg, fsr0l, fsr0h, status,2, status,0, btemp+1, pclath
  3889 ;; Tracked objects:
  3890 ;;		On entry : 0/0
  3891 ;;		On exit  : 0/0
  3892 ;;		Unchanged: 0/0
  3893 ;; Data sizes:     COMMON   BANK0   BANK1   BANK3   BANK2
  3894 ;;      Params:         2       0       0       0       0
  3895 ;;      Locals:         2       0       0       0       0
  3896 ;;      Temps:          1       0       0       0       0
  3897 ;;      Totals:         5       0       0       0       0
  3898 ;;Total ram usage:        5 bytes
  3899 ;; Hardware stack levels used: 2
  3900 ;; Hardware stack levels required when called: 1
  3901 ;; This function calls:
  3902 ;;		Nothing
  3903 ;; This function is called by:
  3904 ;;		_main
  3905 ;; This function uses a non-reentrant model
  3906 ;;
  3907                           
  3908     1398                     _strcpy:	
  3909                           ;psect for function _strcpy
  3910                           
  3911                           
  3912                           ;incstack = 0
  3913                           ; Regs used in _strcpy: [wreg-fsr0h+status,2+status,0+btemp+1+pclath]
  3914                           ;strcpy@to stored from wreg
  3915     1398  00F6               	movwf	strcpy@to
  3916     1399                     l4437:
  3917     1399  0876               	movf	strcpy@to,w
  3918     139A  00F5               	movwf	strcpy@cp
  3919     139B  2BA6               	goto	l4443
  3920     139C                     l4439:
  3921     139C  3001               	movlw	1
  3922     139D  00F4               	movwf	??_strcpy
  3923     139E  0874               	movf	??_strcpy,w
  3924     139F  07F5               	addwf	strcpy@cp,f
  3925     13A0                     l4441:
  3926     13A0  3001               	movlw	1
  3927     13A1  07F2               	addwf	strcpy@from,f
  3928     13A2  1803               	skipnc
  3929     13A3  0AF3               	incf	strcpy@from+1,f
  3930     13A4  3000               	movlw	0
  3931     13A5  07F3               	addwf	strcpy@from+1,f
  3932     13A6                     l4443:
  3933     13A6  0873               	movf	strcpy@from+1,w
  3934     13A7  1283               	bcf	3,5	;RP0=0, select bank0
  3935     13A8  1303               	bcf	3,6	;RP1=0, select bank0
  3936     13A9  00FF               	movwf	btemp+1
  3937     13AA  0872               	movf	strcpy@from,w
  3938     13AB  0084               	movwf	4
  3939     13AC  160A  118A  2000  160A  118A  	fcall	stringtab
  3940     13B1  00F4               	movwf	??_strcpy
  3941     13B2  0875               	movf	strcpy@cp,w
  3942     13B3  0084               	movwf	4
  3943     13B4  0874               	movf	??_strcpy,w
  3944     13B5  1383               	bcf	3,7	;select IRP bank0
  3945     13B6  0080               	movwf	0
  3946     13B7  0800               	movf	0,w
  3947     13B8  1D03               	btfss	3,2
  3948     13B9  2BBB               	goto	u3791
  3949     13BA  2BBC               	goto	u3790
  3950     13BB                     u3791:
  3951     13BB  2B9C               	goto	l4439
  3952     13BC                     u3790:
  3953     13BC                     l1072:
  3954     13BC  0008               	return
  3955     13BD                     __end_of_strcpy:
  3956                           
  3957                           	psect	text3
  3958     040D                     __ptext3:	
  3959 ;; *************** function _set_time *****************
  3960 ;; Defined at:
  3961 ;;		line 429 in file "car_bb.c"
  3962 ;; Parameters:    Size  Location     Type
  3963 ;;  key             1    wreg     unsigned char 
  3964 ;;  reset_time      1    9[BANK0 ] unsigned char 
  3965 ;; Auto vars:     Size  Location     Type
  3966 ;;  key             1   13[BANK0 ] unsigned char 
  3967 ;;  dummy           1   14[BANK0 ] unsigned char 
  3968 ;; Return value:  Size  Location     Type
  3969 ;;                  1    wreg      unsigned char 
  3970 ;; Registers used:
  3971 ;;		wreg, fsr0l, fsr0h, status,2, status,0, btemp+1, pclath, cstack
  3972 ;; Tracked objects:
  3973 ;;		On entry : 0/0
  3974 ;;		On exit  : 0/0
  3975 ;;		Unchanged: 0/0
  3976 ;; Data sizes:     COMMON   BANK0   BANK1   BANK3   BANK2
  3977 ;;      Params:         0       1       0       0       0
  3978 ;;      Locals:         0       2       0       0       0
  3979 ;;      Temps:          0       3       0       0       0
  3980 ;;      Totals:         0       6       0       0       0
  3981 ;;Total ram usage:        6 bytes
  3982 ;; Hardware stack levels used: 1
  3983 ;; Hardware stack levels required when called: 6
  3984 ;; This function calls:
  3985 ;;		___awmod
  3986 ;;		___lwdiv
  3987 ;;		___lwmod
  3988 ;;		___wmul
  3989 ;;		_clcd_print
  3990 ;;		_clcd_putch
  3991 ;;		_clear_screen
  3992 ;;		_get_time
  3993 ;;		_write_ds1307
  3994 ;; This function is called by:
  3995 ;;		_main
  3996 ;; This function uses a non-reentrant model
  3997 ;;
  3998                           
  3999     040D                     _set_time:	
  4000                           ;psect for function _set_time
  4001                           
  4002                           
  4003                           ;incstack = 0
  4004                           ; Regs used in _set_time: [wreg-fsr0h+status,2+status,0+btemp+1+pclath+cstack]
  4005                           ;set_time@key stored from wreg
  4006     040D  1283               	bcf	3,5	;RP0=0, select bank0
  4007     040E  1303               	bcf	3,6	;RP1=0, select bank0
  4008     040F  00D2               	movwf	set_time@key
  4009     0410                     l4783:
  4010                           
  4011                           ;car_bb.c: 429: char set_time( unsigned char key ,unsigned char reset_time );car_bb.c: 4
      +                          30: {;car_bb.c: 432:     static unsigned int new_time[3];;car_bb.c: 433:  static int bli
      +                          nk_pos ;;car_bb.c: 434:  static unsigned char wait , blink ;;car_bb.c: 435:  char dummy;
      +                          ;car_bb.c: 436:  static char done = 0;;car_bb.c: 437:  if ( reset_time == 0x70 )
  4012     0410  3070               	movlw	112
  4013     0411  064E               	xorwf	set_time@reset_time,w
  4014     0412  1D03               	btfss	3,2
  4015     0413  2C15               	goto	u4181
  4016     0414  2C16               	goto	u4180
  4017     0415                     u4181:
  4018     0415  2C8D               	goto	l4799
  4019     0416                     u4180:
  4020     0416                     l4785:
  4021                           
  4022                           ;car_bb.c: 438:  {;car_bb.c: 439:         get_time();
  4023     0416  160A  118A  270A  120A  118A  	fcall	_get_time
  4024                           
  4025                           ;car_bb.c: 440:   new_time[0] = (time[0] & 0x0F ) * 10 + (time[1] & 0x0F) ;
  4026     041B  300F               	movlw	15
  4027     041C  1283               	bcf	3,5	;RP0=0, select bank0
  4028     041D  1303               	bcf	3,6	;RP1=0, select bank0
  4029     041E  053B               	andwf	_time+1,w
  4030     041F  00CF               	movwf	??_set_time
  4031     0420  083A               	movf	_time,w
  4032     0421  390F               	andlw	15
  4033     0422  00D0               	movwf	??_set_time+1
  4034     0423  01D1               	clrf	??_set_time+2
  4035     0424  0850               	movf	??_set_time+1,w
  4036     0425  00F2               	movwf	___wmul@multiplier
  4037     0426  0851               	movf	??_set_time+2,w
  4038     0427  00F3               	movwf	___wmul@multiplier+1
  4039     0428  300A               	movlw	10
  4040     0429  00F4               	movwf	___wmul@multiplicand
  4041     042A  3000               	movlw	0
  4042     042B  00F5               	movwf	___wmul@multiplicand+1
  4043     042C  160A  118A  2373  120A  118A  	fcall	___wmul
  4044     0431  1283               	bcf	3,5	;RP0=0, select bank0
  4045     0432  1303               	bcf	3,6	;RP1=0, select bank0
  4046     0433  084F               	movf	??_set_time,w
  4047     0434  0772               	addwf	?___wmul,w
  4048     0435  00A0               	movwf	set_time@new_time
  4049     0436  3000               	movlw	0
  4050     0437  1803               	skipnc
  4051     0438  3001               	movlw	1
  4052     0439  0773               	addwf	?___wmul+1,w
  4053     043A  00A1               	movwf	set_time@new_time+1
  4054                           
  4055                           ;car_bb.c: 441:   new_time[1] = (time[2] & 0x0F ) * 10 + (time[3] & 0x0F) ;
  4056     043B  300F               	movlw	15
  4057     043C  053D               	andwf	_time+3,w
  4058     043D  00CF               	movwf	??_set_time
  4059     043E  083C               	movf	_time+2,w
  4060     043F  390F               	andlw	15
  4061     0440  00D0               	movwf	??_set_time+1
  4062     0441  01D1               	clrf	??_set_time+2
  4063     0442  0850               	movf	??_set_time+1,w
  4064     0443  00F2               	movwf	___wmul@multiplier
  4065     0444  0851               	movf	??_set_time+2,w
  4066     0445  00F3               	movwf	___wmul@multiplier+1
  4067     0446  300A               	movlw	10
  4068     0447  00F4               	movwf	___wmul@multiplicand
  4069     0448  3000               	movlw	0
  4070     0449  00F5               	movwf	___wmul@multiplicand+1
  4071     044A  160A  118A  2373  120A  118A  	fcall	___wmul
  4072     044F  1283               	bcf	3,5	;RP0=0, select bank0
  4073     0450  1303               	bcf	3,6	;RP1=0, select bank0
  4074     0451  084F               	movf	??_set_time,w
  4075     0452  0772               	addwf	?___wmul,w
  4076     0453  00A2               	movwf	set_time@new_time+2
  4077     0454  3000               	movlw	0
  4078     0455  1803               	skipnc
  4079     0456  3001               	movlw	1
  4080     0457  0773               	addwf	?___wmul+1,w
  4081     0458  00A3               	movwf	set_time@new_time+3
  4082                           
  4083                           ;car_bb.c: 442:   new_time[2] = (time[4] & 0x0F ) * 10 + (time[5] & 0x0F) ;
  4084     0459  300F               	movlw	15
  4085     045A  053F               	andwf	_time+5,w
  4086     045B  00CF               	movwf	??_set_time
  4087     045C  083E               	movf	_time+4,w
  4088     045D  390F               	andlw	15
  4089     045E  00D0               	movwf	??_set_time+1
  4090     045F  01D1               	clrf	??_set_time+2
  4091     0460  0850               	movf	??_set_time+1,w
  4092     0461  00F2               	movwf	___wmul@multiplier
  4093     0462  0851               	movf	??_set_time+2,w
  4094     0463  00F3               	movwf	___wmul@multiplier+1
  4095     0464  300A               	movlw	10
  4096     0465  00F4               	movwf	___wmul@multiplicand
  4097     0466  3000               	movlw	0
  4098     0467  00F5               	movwf	___wmul@multiplicand+1
  4099     0468  160A  118A  2373  120A  118A  	fcall	___wmul
  4100     046D  1283               	bcf	3,5	;RP0=0, select bank0
  4101     046E  1303               	bcf	3,6	;RP1=0, select bank0
  4102     046F  084F               	movf	??_set_time,w
  4103     0470  0772               	addwf	?___wmul,w
  4104     0471  00A4               	movwf	set_time@new_time+4
  4105     0472  3000               	movlw	0
  4106     0473  1803               	skipnc
  4107     0474  3001               	movlw	1
  4108     0475  0773               	addwf	?___wmul+1,w
  4109     0476  00A5               	movwf	set_time@new_time+5
  4110     0477                     l4787:
  4111                           
  4112                           ;car_bb.c: 443:   clcd_print("  HH:MM:SS",(0x80 + 0));
  4113     0477  303F               	movlw	low (STR_38| (0+32768))
  4114     0478  00F6               	movwf	clcd_print@str
  4115     0479  3088               	movlw	high (STR_38| (0+32768))
  4116     047A  00F7               	movwf	clcd_print@str+1
  4117     047B  3080               	movlw	128
  4118     047C  00F8               	movwf	clcd_print@addr
  4119     047D  160A  118A  24B5  120A  118A  	fcall	_clcd_print
  4120     0482                     l4789:
  4121                           
  4122                           ;car_bb.c: 444:   blink_pos = 2;
  4123     0482  3002               	movlw	2
  4124     0483  1283               	bcf	3,5	;RP0=0, select bank0
  4125     0484  1303               	bcf	3,6	;RP1=0, select bank0
  4126     0485  00AA               	movwf	set_time@blink_pos
  4127     0486  3000               	movlw	0
  4128     0487  00AB               	movwf	set_time@blink_pos+1
  4129     0488                     l4791:
  4130                           
  4131                           ;car_bb.c: 445:   wait = 0;
  4132     0488  01B2               	clrf	set_time@wait
  4133     0489                     l4793:
  4134                           
  4135                           ;car_bb.c: 446:   blink = 0;
  4136     0489  01B1               	clrf	set_time@blink
  4137     048A                     l4795:
  4138                           
  4139                           ;car_bb.c: 447:   key = 0x3F;
  4140     048A  303F               	movlw	63
  4141     048B  00D2               	movwf	set_time@key
  4142     048C                     l4797:
  4143                           
  4144                           ;car_bb.c: 448:   done = 0;
  4145     048C  01B0               	clrf	set_time@done
  4146     048D                     l4799:
  4147                           
  4148                           ;car_bb.c: 451:     if(done)
  4149     048D  0830               	movf	set_time@done,w
  4150     048E  1903               	btfsc	3,2
  4151     048F  2C91               	goto	u4191
  4152     0490  2C92               	goto	u4190
  4153     0491                     u4191:
  4154     0491  2DA0               	goto	l4839
  4155     0492                     u4190:
  4156     0492                     l4801:
  4157                           
  4158                           ;car_bb.c: 452:         return 0x0D;
  4159     0492  300D               	movlw	13
  4160     0493  2ECB               	goto	l411
  4161     0494                     l4805:
  4162                           
  4163                           ;car_bb.c: 458:    new_time[blink_pos]++;
  4164     0494  082A               	movf	set_time@blink_pos,w
  4165     0495  00CF               	movwf	??_set_time
  4166     0496  074F               	addwf	??_set_time,w
  4167     0497  3E20               	addlw	(low (set_time@new_time| 0))& (0+255)
  4168     0498  0084               	movwf	4
  4169     0499  3001               	movlw	1
  4170     049A  1383               	bcf	3,7	;select IRP bank0
  4171     049B  0780               	addwf	0,f
  4172     049C  0A84               	incf	4,f
  4173     049D  1803               	skipnc
  4174     049E  0A80               	incf	0,f
  4175                           
  4176                           ;car_bb.c: 459:    break;
  4177     049F  2DB3               	goto	l4841
  4178     04A0                     l4807:
  4179                           
  4180                           ;car_bb.c: 462:    blink_pos = (blink_pos + 1) % 3;
  4181     04A0  3003               	movlw	3
  4182     04A1  00F2               	movwf	___awmod@divisor
  4183     04A2  3000               	movlw	0
  4184     04A3  00F3               	movwf	___awmod@divisor+1
  4185     04A4  082A               	movf	set_time@blink_pos,w
  4186     04A5  3E01               	addlw	1
  4187     04A6  00F4               	movwf	___awmod@dividend
  4188     04A7  082B               	movf	set_time@blink_pos+1,w
  4189     04A8  1803               	skipnc
  4190     04A9  3E01               	addlw	1
  4191     04AA  3E00               	addlw	0
  4192     04AB  00F5               	movwf	___awmod@dividend+1
  4193     04AC  120A  158A  2155  120A  118A  	fcall	___awmod
  4194     04B1  0873               	movf	?___awmod+1,w
  4195     04B2  1283               	bcf	3,5	;RP0=0, select bank0
  4196     04B3  1303               	bcf	3,6	;RP1=0, select bank0
  4197     04B4  00AB               	movwf	set_time@blink_pos+1
  4198     04B5  0872               	movf	?___awmod,w
  4199     04B6  00AA               	movwf	set_time@blink_pos
  4200                           
  4201                           ;car_bb.c: 463:    break;
  4202     04B7  2DB3               	goto	l4841
  4203     04B8                     l4809:
  4204                           
  4205                           ;car_bb.c: 466:    get_time();
  4206     04B8  160A  118A  270A  120A  118A  	fcall	_get_time
  4207                           
  4208                           ;car_bb.c: 467:    dummy = ((new_time[0] / 10 ) << 4 ) | new_time[0] % 10 ;
  4209     04BD  300A               	movlw	10
  4210     04BE  00F2               	movwf	___lwmod@divisor
  4211     04BF  3000               	movlw	0
  4212     04C0  00F3               	movwf	___lwmod@divisor+1
  4213     04C1  1283               	bcf	3,5	;RP0=0, select bank0
  4214     04C2  1303               	bcf	3,6	;RP1=0, select bank0
  4215     04C3  0821               	movf	set_time@new_time+1,w
  4216     04C4  00F5               	movwf	___lwmod@dividend+1
  4217     04C5  0820               	movf	set_time@new_time,w
  4218     04C6  00F4               	movwf	___lwmod@dividend
  4219     04C7  160A  118A  257F  120A  118A  	fcall	___lwmod
  4220     04CC  0872               	movf	?___lwmod,w
  4221     04CD  1283               	bcf	3,5	;RP0=0, select bank0
  4222     04CE  1303               	bcf	3,6	;RP1=0, select bank0
  4223     04CF  00CF               	movwf	??_set_time
  4224     04D0  0873               	movf	?___lwmod+1,w
  4225     04D1  00D0               	movwf	??_set_time+1
  4226     04D2  300A               	movlw	10
  4227     04D3  00C5               	movwf	___lwdiv@divisor
  4228     04D4  3000               	movlw	0
  4229     04D5  00C6               	movwf	___lwdiv@divisor+1
  4230     04D6  0821               	movf	set_time@new_time+1,w
  4231     04D7  00C8               	movwf	___lwdiv@dividend+1
  4232     04D8  0820               	movf	set_time@new_time,w
  4233     04D9  00C7               	movwf	___lwdiv@dividend
  4234     04DA  160A  118A  2634  120A  118A  	fcall	___lwdiv
  4235     04DF  1283               	bcf	3,5	;RP0=0, select bank0
  4236     04E0  1303               	bcf	3,6	;RP1=0, select bank0
  4237     04E1  0845               	movf	?___lwdiv,w
  4238     04E2  00D1               	movwf	??_set_time+2
  4239     04E3  3003               	movlw	3
  4240     04E4                     u4205:
  4241     04E4  1003               	clrc
  4242     04E5  0DD1               	rlf	??_set_time+2,f
  4243     04E6  3EFF               	addlw	-1
  4244     04E7  1D03               	skipz
  4245     04E8  2CE4               	goto	u4205
  4246     04E9  1003               	clrc
  4247     04EA  0D51               	rlf	??_set_time+2,w
  4248     04EB  044F               	iorwf	??_set_time,w
  4249     04EC  00D3               	movwf	set_time@dummy
  4250     04ED                     l4811:
  4251                           
  4252                           ;car_bb.c: 468:    clock_reg[0] = (clock_reg[0] & 0xc0) | dummy ;
  4253     04ED  0879               	movf	_clock_reg,w
  4254     04EE  39C0               	andlw	192
  4255     04EF  0453               	iorwf	set_time@dummy,w
  4256     04F0  00F9               	movwf	_clock_reg
  4257     04F1                     l4813:
  4258                           
  4259                           ;car_bb.c: 469:    write_ds1307(0x02, clock_reg[0] );
  4260     04F1  0879               	movf	_clock_reg,w
  4261     04F2  00F3               	movwf	write_ds1307@data
  4262     04F3  3002               	movlw	2
  4263     04F4  160A  118A  2314  120A  118A  	fcall	_write_ds1307
  4264     04F9                     l4815:
  4265                           
  4266                           ;car_bb.c: 470:    dummy = ((new_time[1] / 10 ) << 4 ) | new_time[1] % 10 ;
  4267     04F9  300A               	movlw	10
  4268     04FA  00F2               	movwf	___lwmod@divisor
  4269     04FB  3000               	movlw	0
  4270     04FC  00F3               	movwf	___lwmod@divisor+1
  4271     04FD  1283               	bcf	3,5	;RP0=0, select bank0
  4272     04FE  1303               	bcf	3,6	;RP1=0, select bank0
  4273     04FF  0823               	movf	set_time@new_time+3,w
  4274     0500  00F5               	movwf	___lwmod@dividend+1
  4275     0501  0822               	movf	set_time@new_time+2,w
  4276     0502  00F4               	movwf	___lwmod@dividend
  4277     0503  160A  118A  257F  120A  118A  	fcall	___lwmod
  4278     0508  0872               	movf	?___lwmod,w
  4279     0509  1283               	bcf	3,5	;RP0=0, select bank0
  4280     050A  1303               	bcf	3,6	;RP1=0, select bank0
  4281     050B  00CF               	movwf	??_set_time
  4282     050C  0873               	movf	?___lwmod+1,w
  4283     050D  00D0               	movwf	??_set_time+1
  4284     050E  300A               	movlw	10
  4285     050F  00C5               	movwf	___lwdiv@divisor
  4286     0510  3000               	movlw	0
  4287     0511  00C6               	movwf	___lwdiv@divisor+1
  4288     0512  0823               	movf	set_time@new_time+3,w
  4289     0513  00C8               	movwf	___lwdiv@dividend+1
  4290     0514  0822               	movf	set_time@new_time+2,w
  4291     0515  00C7               	movwf	___lwdiv@dividend
  4292     0516  160A  118A  2634  120A  118A  	fcall	___lwdiv
  4293     051B  1283               	bcf	3,5	;RP0=0, select bank0
  4294     051C  1303               	bcf	3,6	;RP1=0, select bank0
  4295     051D  0845               	movf	?___lwdiv,w
  4296     051E  00D1               	movwf	??_set_time+2
  4297     051F  3003               	movlw	3
  4298     0520                     u4215:
  4299     0520  1003               	clrc
  4300     0521  0DD1               	rlf	??_set_time+2,f
  4301     0522  3EFF               	addlw	-1
  4302     0523  1D03               	skipz
  4303     0524  2D20               	goto	u4215
  4304     0525  1003               	clrc
  4305     0526  0D51               	rlf	??_set_time+2,w
  4306     0527  044F               	iorwf	??_set_time,w
  4307     0528  00D3               	movwf	set_time@dummy
  4308     0529                     l4817:
  4309                           
  4310                           ;car_bb.c: 471:    clock_reg[1] = (clock_reg[1] & 0x80) | dummy;
  4311     0529  087A               	movf	_clock_reg+1,w
  4312     052A  3980               	andlw	128
  4313     052B  0453               	iorwf	set_time@dummy,w
  4314     052C  00FA               	movwf	_clock_reg+1
  4315                           
  4316                           ;car_bb.c: 472:    write_ds1307(0x01, clock_reg[1] );
  4317     052D  087A               	movf	_clock_reg+1,w
  4318     052E  00F3               	movwf	write_ds1307@data
  4319     052F  3001               	movlw	1
  4320     0530  160A  118A  2314  120A  118A  	fcall	_write_ds1307
  4321                           
  4322                           ;car_bb.c: 473:    dummy = ((new_time[2] / 10 ) << 4 ) | new_time[2] % 10 ;
  4323     0535  300A               	movlw	10
  4324     0536  00F2               	movwf	___lwmod@divisor
  4325     0537  3000               	movlw	0
  4326     0538  00F3               	movwf	___lwmod@divisor+1
  4327     0539  1283               	bcf	3,5	;RP0=0, select bank0
  4328     053A  1303               	bcf	3,6	;RP1=0, select bank0
  4329     053B  0825               	movf	set_time@new_time+5,w
  4330     053C  00F5               	movwf	___lwmod@dividend+1
  4331     053D  0824               	movf	set_time@new_time+4,w
  4332     053E  00F4               	movwf	___lwmod@dividend
  4333     053F  160A  118A  257F  120A  118A  	fcall	___lwmod
  4334     0544  0872               	movf	?___lwmod,w
  4335     0545  1283               	bcf	3,5	;RP0=0, select bank0
  4336     0546  1303               	bcf	3,6	;RP1=0, select bank0
  4337     0547  00CF               	movwf	??_set_time
  4338     0548  0873               	movf	?___lwmod+1,w
  4339     0549  00D0               	movwf	??_set_time+1
  4340     054A  300A               	movlw	10
  4341     054B  00C5               	movwf	___lwdiv@divisor
  4342     054C  3000               	movlw	0
  4343     054D  00C6               	movwf	___lwdiv@divisor+1
  4344     054E  0825               	movf	set_time@new_time+5,w
  4345     054F  00C8               	movwf	___lwdiv@dividend+1
  4346     0550  0824               	movf	set_time@new_time+4,w
  4347     0551  00C7               	movwf	___lwdiv@dividend
  4348     0552  160A  118A  2634  120A  118A  	fcall	___lwdiv
  4349     0557  1283               	bcf	3,5	;RP0=0, select bank0
  4350     0558  1303               	bcf	3,6	;RP1=0, select bank0
  4351     0559  0845               	movf	?___lwdiv,w
  4352     055A  00D1               	movwf	??_set_time+2
  4353     055B  3003               	movlw	3
  4354     055C                     u4225:
  4355     055C  1003               	clrc
  4356     055D  0DD1               	rlf	??_set_time+2,f
  4357     055E  3EFF               	addlw	-1
  4358     055F  1D03               	skipz
  4359     0560  2D5C               	goto	u4225
  4360     0561  1003               	clrc
  4361     0562  0D51               	rlf	??_set_time+2,w
  4362     0563  044F               	iorwf	??_set_time,w
  4363     0564  00D3               	movwf	set_time@dummy
  4364     0565                     l4819:
  4365                           
  4366                           ;car_bb.c: 474:    clock_reg[2] = (clock_reg[2] & 0x80) | dummy;
  4367     0565  087B               	movf	_clock_reg+2,w
  4368     0566  3980               	andlw	128
  4369     0567  0453               	iorwf	set_time@dummy,w
  4370     0568  00FB               	movwf	_clock_reg+2
  4371     0569                     l4821:
  4372                           
  4373                           ;car_bb.c: 475:    write_ds1307(0x00, clock_reg[2] );
  4374     0569  087B               	movf	_clock_reg+2,w
  4375     056A  00F3               	movwf	write_ds1307@data
  4376     056B  3000               	movlw	0
  4377     056C  160A  118A  2314  120A  118A  	fcall	_write_ds1307
  4378     0571                     l4823:
  4379                           
  4380                           ;car_bb.c: 476:    clear_screen();
  4381     0571  160A  118A  2288  120A  118A  	fcall	_clear_screen
  4382     0576                     l4825:
  4383                           
  4384                           ;car_bb.c: 477:    clcd_print("Time changed",(0x80 + 2));
  4385     0576  30FE               	movlw	low (STR_39| (0+32768))
  4386     0577  00F6               	movwf	clcd_print@str
  4387     0578  3087               	movlw	high (STR_39| (0+32768))
  4388     0579  00F7               	movwf	clcd_print@str+1
  4389     057A  3082               	movlw	130
  4390     057B  00F8               	movwf	clcd_print@addr
  4391     057C  160A  118A  24B5  120A  118A  	fcall	_clcd_print
  4392     0581                     l4827:
  4393                           
  4394                           ;car_bb.c: 478:    clcd_print("Successfully",(0xC0 + 2));
  4395     0581  3025               	movlw	low (STR_40| (0+32768))
  4396     0582  00F6               	movwf	clcd_print@str
  4397     0583  3088               	movlw	high (STR_40| (0+32768))
  4398     0584  00F7               	movwf	clcd_print@str+1
  4399     0585  30C2               	movlw	194
  4400     0586  00F8               	movwf	clcd_print@addr
  4401     0587  160A  118A  24B5  120A  118A  	fcall	_clcd_print
  4402     058C                     l4829:
  4403                           
  4404                           ;car_bb.c: 479:             _delay((unsigned long)((2000)*(20000000/4000.0)));
  4405     058C  3033               	movlw	51
  4406     058D  1283               	bcf	3,5	;RP0=0, select bank0
  4407     058E  1303               	bcf	3,6	;RP1=0, select bank0
  4408     058F  00D1               	movwf	??_set_time+2
  4409     0590  30BB               	movlw	187
  4410     0591  00D0               	movwf	??_set_time+1
  4411     0592  30DF               	movlw	223
  4412     0593  00CF               	movwf	??_set_time
  4413     0594                     u4597:
  4414     0594  0BCF               	decfsz	??_set_time,f
  4415     0595  2D94               	goto	u4597
  4416     0596  0BD0               	decfsz	??_set_time+1,f
  4417     0597  2D94               	goto	u4597
  4418     0598  0BD1               	decfsz	??_set_time+2,f
  4419     0599  2D94               	goto	u4597
  4420     059A                     l4831:
  4421                           
  4422                           ;car_bb.c: 480:    done = 1;
  4423     059A  1283               	bcf	3,5	;RP0=0, select bank0
  4424     059B  1303               	bcf	3,6	;RP1=0, select bank0
  4425     059C  01B0               	clrf	set_time@done
  4426     059D  0AB0               	incf	set_time@done,f
  4427     059E                     l4833:
  4428                           
  4429                           ;car_bb.c: 481:    return 0x0C;
  4430     059E  300C               	movlw	12
  4431     059F  2ECB               	goto	l411
  4432     05A0                     l4839:
  4433     05A0  0852               	movf	set_time@key,w
  4434     05A1  00CF               	movwf	??_set_time
  4435     05A2  01D0               	clrf	??_set_time+1
  4436                           
  4437                           ; Switch on 2 bytes has been partitioned into a top level switch of size 1, and 1 sub-sw
      +                          itches
  4438                           ; Switch size 1, requested type "simple"
  4439                           ; Number of cases is 1, Range of values is 0 to 0
  4440                           ; switch strategies available:
  4441                           ; Name         Instructions Cycles
  4442                           ; simple_byte            4     3 (average)
  4443                           ; direct_byte           11     8 (fixed)
  4444                           ; jumptable            260     6 (fixed)
  4445                           ;	Chosen strategy is simple_byte
  4446     05A3  0850               	movf	??_set_time+1,w
  4447     05A4  3A00               	xorlw	0	; case 0
  4448     05A5  1903               	skipnz
  4449     05A6  2DA8               	goto	l5349
  4450     05A7  2DB3               	goto	l4841
  4451     05A8                     l5349:
  4452                           
  4453                           ; Switch size 1, requested type "simple"
  4454                           ; Number of cases is 3, Range of values is 31 to 55
  4455                           ; switch strategies available:
  4456                           ; Name         Instructions Cycles
  4457                           ; simple_byte           10     6 (average)
  4458                           ; direct_byte           86    11 (fixed)
  4459                           ; jumptable            263     9 (fixed)
  4460                           ;	Chosen strategy is simple_byte
  4461     05A8  084F               	movf	??_set_time,w
  4462     05A9  3A1F               	xorlw	31	; case 31
  4463     05AA  1903               	skipnz
  4464     05AB  2CB8               	goto	l4809
  4465     05AC  3A30               	xorlw	48	; case 47
  4466     05AD  1903               	skipnz
  4467     05AE  2CA0               	goto	l4807
  4468     05AF  3A18               	xorlw	24	; case 55
  4469     05B0  1903               	skipnz
  4470     05B1  2C94               	goto	l4805
  4471     05B2  2DB3               	goto	l4841
  4472     05B3                     l4841:
  4473                           
  4474                           ;car_bb.c: 484:  if( new_time[0] > 23 )
  4475     05B3  3000               	movlw	0
  4476     05B4  0221               	subwf	set_time@new_time+1,w
  4477     05B5  3018               	movlw	24
  4478     05B6  1903               	skipnz
  4479     05B7  0220               	subwf	set_time@new_time,w
  4480     05B8  1C03               	skipc
  4481     05B9  2DBB               	goto	u4231
  4482     05BA  2DBC               	goto	u4230
  4483     05BB                     u4231:
  4484     05BB  2DBE               	goto	l4845
  4485     05BC                     u4230:
  4486     05BC                     l4843:
  4487                           
  4488                           ;car_bb.c: 485:   new_time[0] = 0;
  4489     05BC  01A0               	clrf	set_time@new_time
  4490     05BD  01A1               	clrf	set_time@new_time+1
  4491     05BE                     l4845:
  4492                           
  4493                           ;car_bb.c: 486:  if ( new_time[1] > 59 )
  4494     05BE  3000               	movlw	0
  4495     05BF  0223               	subwf	set_time@new_time+3,w
  4496     05C0  303C               	movlw	60
  4497     05C1  1903               	skipnz
  4498     05C2  0222               	subwf	set_time@new_time+2,w
  4499     05C3  1C03               	skipc
  4500     05C4  2DC6               	goto	u4241
  4501     05C5  2DC7               	goto	u4240
  4502     05C6                     u4241:
  4503     05C6  2DC9               	goto	l4849
  4504     05C7                     u4240:
  4505     05C7                     l4847:
  4506                           
  4507                           ;car_bb.c: 487:   new_time[1] = 0;
  4508     05C7  01A2               	clrf	set_time@new_time+2
  4509     05C8  01A3               	clrf	set_time@new_time+3
  4510     05C9                     l4849:
  4511                           
  4512                           ;car_bb.c: 488:  if ( new_time[2] > 59 )
  4513     05C9  3000               	movlw	0
  4514     05CA  0225               	subwf	set_time@new_time+5,w
  4515     05CB  303C               	movlw	60
  4516     05CC  1903               	skipnz
  4517     05CD  0224               	subwf	set_time@new_time+4,w
  4518     05CE  1C03               	skipc
  4519     05CF  2DD1               	goto	u4251
  4520     05D0  2DD2               	goto	u4250
  4521     05D1                     u4251:
  4522     05D1  2DD4               	goto	l4853
  4523     05D2                     u4250:
  4524     05D2                     l4851:
  4525                           
  4526                           ;car_bb.c: 489:   new_time[2] = 0;
  4527     05D2  01A4               	clrf	set_time@new_time+4
  4528     05D3  01A5               	clrf	set_time@new_time+5
  4529     05D4                     l4853:
  4530                           
  4531                           ;car_bb.c: 493:  if ( wait ++ == 100 )
  4532     05D4  3001               	movlw	1
  4533     05D5  00CF               	movwf	??_set_time
  4534     05D6  084F               	movf	??_set_time,w
  4535     05D7  07B2               	addwf	set_time@wait,f
  4536     05D8  3065               	movlw	101
  4537     05D9  0632               	xorwf	set_time@wait,w
  4538     05DA  1D03               	btfss	3,2
  4539     05DB  2DDD               	goto	u4261
  4540     05DC  2DDE               	goto	u4260
  4541     05DD                     u4261:
  4542     05DD  2C92               	goto	l4801
  4543     05DE                     u4260:
  4544     05DE                     l4855:
  4545                           
  4546                           ;car_bb.c: 494:  {;car_bb.c: 495:   wait = 0;
  4547     05DE  01B2               	clrf	set_time@wait
  4548     05DF                     l4857:
  4549                           
  4550                           ;car_bb.c: 496:   blink = !blink;
  4551     05DF  0831               	movf	set_time@blink,w
  4552     05E0  1903               	btfsc	3,2
  4553     05E1  2DE3               	goto	u4271
  4554     05E2  2DE5               	goto	u4270
  4555     05E3                     u4271:
  4556     05E3  3001               	movlw	1
  4557     05E4  2DE6               	goto	u4280
  4558     05E5                     u4270:
  4559     05E5  3000               	movlw	0
  4560     05E6                     u4280:
  4561     05E6  00B1               	movwf	set_time@blink
  4562     05E7                     l4859:
  4563                           
  4564                           ;car_bb.c: 497:   clcd_putch( new_time[0] / 10 + '0', (0xC0 + 2));
  4565     05E7  30C2               	movlw	194
  4566     05E8  00CC               	movwf	clcd_putch@addr
  4567     05E9  300A               	movlw	10
  4568     05EA  00C5               	movwf	___lwdiv@divisor
  4569     05EB  3000               	movlw	0
  4570     05EC  00C6               	movwf	___lwdiv@divisor+1
  4571     05ED  0821               	movf	set_time@new_time+1,w
  4572     05EE  00C8               	movwf	___lwdiv@dividend+1
  4573     05EF  0820               	movf	set_time@new_time,w
  4574     05F0  00C7               	movwf	___lwdiv@dividend
  4575     05F1  160A  118A  2634  120A  118A  	fcall	___lwdiv
  4576     05F6  1283               	bcf	3,5	;RP0=0, select bank0
  4577     05F7  1303               	bcf	3,6	;RP1=0, select bank0
  4578     05F8  0845               	movf	?___lwdiv,w
  4579     05F9  3E30               	addlw	48
  4580     05FA  160A  118A  22D1  120A  118A  	fcall	_clcd_putch
  4581     05FF                     l4861:
  4582                           
  4583                           ;car_bb.c: 498:   clcd_putch( new_time[0] % 10 + '0' , (0xC0 + 3));
  4584     05FF  30C3               	movlw	195
  4585     0600  1283               	bcf	3,5	;RP0=0, select bank0
  4586     0601  1303               	bcf	3,6	;RP1=0, select bank0
  4587     0602  00CC               	movwf	clcd_putch@addr
  4588     0603  300A               	movlw	10
  4589     0604  00F2               	movwf	___lwmod@divisor
  4590     0605  3000               	movlw	0
  4591     0606  00F3               	movwf	___lwmod@divisor+1
  4592     0607  0821               	movf	set_time@new_time+1,w
  4593     0608  00F5               	movwf	___lwmod@dividend+1
  4594     0609  0820               	movf	set_time@new_time,w
  4595     060A  00F4               	movwf	___lwmod@dividend
  4596     060B  160A  118A  257F  120A  118A  	fcall	___lwmod
  4597     0610  0872               	movf	?___lwmod,w
  4598     0611  3E30               	addlw	48
  4599     0612  160A  118A  22D1  120A  118A  	fcall	_clcd_putch
  4600     0617                     l4863:
  4601                           
  4602                           ;car_bb.c: 499:   clcd_putch( ':', (0xC0 + 4));
  4603     0617  30C4               	movlw	196
  4604     0618  1283               	bcf	3,5	;RP0=0, select bank0
  4605     0619  1303               	bcf	3,6	;RP1=0, select bank0
  4606     061A  00CC               	movwf	clcd_putch@addr
  4607     061B  303A               	movlw	58
  4608     061C  160A  118A  22D1  120A  118A  	fcall	_clcd_putch
  4609     0621                     l4865:
  4610                           
  4611                           ;car_bb.c: 500:   clcd_putch( new_time[1] / 10 + '0', (0xC0 + 5));
  4612     0621  30C5               	movlw	197
  4613     0622  1283               	bcf	3,5	;RP0=0, select bank0
  4614     0623  1303               	bcf	3,6	;RP1=0, select bank0
  4615     0624  00CC               	movwf	clcd_putch@addr
  4616     0625  300A               	movlw	10
  4617     0626  00C5               	movwf	___lwdiv@divisor
  4618     0627  3000               	movlw	0
  4619     0628  00C6               	movwf	___lwdiv@divisor+1
  4620     0629  0823               	movf	set_time@new_time+3,w
  4621     062A  00C8               	movwf	___lwdiv@dividend+1
  4622     062B  0822               	movf	set_time@new_time+2,w
  4623     062C  00C7               	movwf	___lwdiv@dividend
  4624     062D  160A  118A  2634  120A  118A  	fcall	___lwdiv
  4625     0632  1283               	bcf	3,5	;RP0=0, select bank0
  4626     0633  1303               	bcf	3,6	;RP1=0, select bank0
  4627     0634  0845               	movf	?___lwdiv,w
  4628     0635  3E30               	addlw	48
  4629     0636  160A  118A  22D1  120A  118A  	fcall	_clcd_putch
  4630     063B                     l4867:
  4631                           
  4632                           ;car_bb.c: 501:   clcd_putch( new_time[1] % 10 + '0', (0xC0 + 6));
  4633     063B  30C6               	movlw	198
  4634     063C  1283               	bcf	3,5	;RP0=0, select bank0
  4635     063D  1303               	bcf	3,6	;RP1=0, select bank0
  4636     063E  00CC               	movwf	clcd_putch@addr
  4637     063F  300A               	movlw	10
  4638     0640  00F2               	movwf	___lwmod@divisor
  4639     0641  3000               	movlw	0
  4640     0642  00F3               	movwf	___lwmod@divisor+1
  4641     0643  0823               	movf	set_time@new_time+3,w
  4642     0644  00F5               	movwf	___lwmod@dividend+1
  4643     0645  0822               	movf	set_time@new_time+2,w
  4644     0646  00F4               	movwf	___lwmod@dividend
  4645     0647  160A  118A  257F  120A  118A  	fcall	___lwmod
  4646     064C  0872               	movf	?___lwmod,w
  4647     064D  3E30               	addlw	48
  4648     064E  160A  118A  22D1  120A  118A  	fcall	_clcd_putch
  4649     0653                     l4869:
  4650                           
  4651                           ;car_bb.c: 502:   clcd_putch( ':', (0xC0 + 7));
  4652     0653  30C7               	movlw	199
  4653     0654  1283               	bcf	3,5	;RP0=0, select bank0
  4654     0655  1303               	bcf	3,6	;RP1=0, select bank0
  4655     0656  00CC               	movwf	clcd_putch@addr
  4656     0657  303A               	movlw	58
  4657     0658  160A  118A  22D1  120A  118A  	fcall	_clcd_putch
  4658     065D                     l4871:
  4659                           
  4660                           ;car_bb.c: 503:   clcd_putch( new_time[2] / 10 + '0' , (0xC0 + 8));
  4661     065D  30C8               	movlw	200
  4662     065E  1283               	bcf	3,5	;RP0=0, select bank0
  4663     065F  1303               	bcf	3,6	;RP1=0, select bank0
  4664     0660  00CC               	movwf	clcd_putch@addr
  4665     0661  300A               	movlw	10
  4666     0662  00C5               	movwf	___lwdiv@divisor
  4667     0663  3000               	movlw	0
  4668     0664  00C6               	movwf	___lwdiv@divisor+1
  4669     0665  0825               	movf	set_time@new_time+5,w
  4670     0666  00C8               	movwf	___lwdiv@dividend+1
  4671     0667  0824               	movf	set_time@new_time+4,w
  4672     0668  00C7               	movwf	___lwdiv@dividend
  4673     0669  160A  118A  2634  120A  118A  	fcall	___lwdiv
  4674     066E  1283               	bcf	3,5	;RP0=0, select bank0
  4675     066F  1303               	bcf	3,6	;RP1=0, select bank0
  4676     0670  0845               	movf	?___lwdiv,w
  4677     0671  3E30               	addlw	48
  4678     0672  160A  118A  22D1  120A  118A  	fcall	_clcd_putch
  4679     0677                     l4873:
  4680                           
  4681                           ;car_bb.c: 504:   clcd_putch( new_time[2] % 10 + '0', (0xC0 + 9));
  4682     0677  30C9               	movlw	201
  4683     0678  1283               	bcf	3,5	;RP0=0, select bank0
  4684     0679  1303               	bcf	3,6	;RP1=0, select bank0
  4685     067A  00CC               	movwf	clcd_putch@addr
  4686     067B  300A               	movlw	10
  4687     067C  00F2               	movwf	___lwmod@divisor
  4688     067D  3000               	movlw	0
  4689     067E  00F3               	movwf	___lwmod@divisor+1
  4690     067F  0825               	movf	set_time@new_time+5,w
  4691     0680  00F5               	movwf	___lwmod@dividend+1
  4692     0681  0824               	movf	set_time@new_time+4,w
  4693     0682  00F4               	movwf	___lwmod@dividend
  4694     0683  160A  118A  257F  120A  118A  	fcall	___lwmod
  4695     0688  0872               	movf	?___lwmod,w
  4696     0689  3E30               	addlw	48
  4697     068A  160A  118A  22D1  120A  118A  	fcall	_clcd_putch
  4698     068F                     l4875:
  4699                           
  4700                           ;car_bb.c: 507:   if ( blink)
  4701     068F  1283               	bcf	3,5	;RP0=0, select bank0
  4702     0690  1303               	bcf	3,6	;RP1=0, select bank0
  4703     0691  0831               	movf	set_time@blink,w
  4704     0692  1903               	btfsc	3,2
  4705     0693  2E95               	goto	u4291
  4706     0694  2E96               	goto	u4290
  4707     0695                     u4291:
  4708     0695  2C92               	goto	l4801
  4709     0696                     u4290:
  4710     0696  2EBB               	goto	l4887
  4711     0697                     l4879:
  4712                           
  4713                           ;car_bb.c: 512:      clcd_print("  ",(0xC0 + 2));
  4714     0697  3024               	movlw	low ((STR_32+15)| (0+32768))
  4715     0698  00F6               	movwf	clcd_print@str
  4716     0699  3087               	movlw	high ((STR_32+15)| (0+32768))
  4717     069A  00F7               	movwf	clcd_print@str+1
  4718     069B  30C2               	movlw	194
  4719     069C  00F8               	movwf	clcd_print@addr
  4720     069D  160A  118A  24B5  120A  118A  	fcall	_clcd_print
  4721                           
  4722                           ;car_bb.c: 513:      break;
  4723     06A2  2C92               	goto	l4801
  4724     06A3                     l4881:
  4725                           
  4726                           ;car_bb.c: 515:      clcd_print("  ",(0xC0 + 5));
  4727     06A3  3024               	movlw	low ((STR_32+15)| (0+32768))
  4728     06A4  00F6               	movwf	clcd_print@str
  4729     06A5  3087               	movlw	high ((STR_32+15)| (0+32768))
  4730     06A6  00F7               	movwf	clcd_print@str+1
  4731     06A7  30C5               	movlw	197
  4732     06A8  00F8               	movwf	clcd_print@addr
  4733     06A9  160A  118A  24B5  120A  118A  	fcall	_clcd_print
  4734                           
  4735                           ;car_bb.c: 516:      break;
  4736     06AE  2C92               	goto	l4801
  4737     06AF                     l4883:
  4738                           
  4739                           ;car_bb.c: 518:      clcd_print("  ",(0xC0 + 8));
  4740     06AF  3024               	movlw	low ((STR_32+15)| (0+32768))
  4741     06B0  00F6               	movwf	clcd_print@str
  4742     06B1  3087               	movlw	high ((STR_32+15)| (0+32768))
  4743     06B2  00F7               	movwf	clcd_print@str+1
  4744     06B3  30C8               	movlw	200
  4745     06B4  00F8               	movwf	clcd_print@addr
  4746     06B5  160A  118A  24B5  120A  118A  	fcall	_clcd_print
  4747                           
  4748                           ;car_bb.c: 519:      break;
  4749     06BA  2C92               	goto	l4801
  4750     06BB                     l4887:
  4751                           
  4752                           ; Switch on 2 bytes has been partitioned into a top level switch of size 1, and 1 sub-sw
      +                          itches
  4753                           ; Switch size 1, requested type "simple"
  4754                           ; Number of cases is 1, Range of values is 0 to 0
  4755                           ; switch strategies available:
  4756                           ; Name         Instructions Cycles
  4757                           ; simple_byte            4     3 (average)
  4758                           ; direct_byte           11     8 (fixed)
  4759                           ; jumptable            260     6 (fixed)
  4760                           ;	Chosen strategy is simple_byte
  4761     06BB  082B               	movf	set_time@blink_pos+1,w
  4762     06BC  3A00               	xorlw	0	; case 0
  4763     06BD  1903               	skipnz
  4764     06BE  2EC0               	goto	l5351
  4765     06BF  2C92               	goto	l4801
  4766     06C0                     l5351:
  4767                           
  4768                           ; Switch size 1, requested type "simple"
  4769                           ; Number of cases is 3, Range of values is 0 to 2
  4770                           ; switch strategies available:
  4771                           ; Name         Instructions Cycles
  4772                           ; simple_byte           10     6 (average)
  4773                           ; direct_byte           17     8 (fixed)
  4774                           ; jumptable            260     6 (fixed)
  4775                           ;	Chosen strategy is simple_byte
  4776     06C0  082A               	movf	set_time@blink_pos,w
  4777     06C1  3A00               	xorlw	0	; case 0
  4778     06C2  1903               	skipnz
  4779     06C3  2E97               	goto	l4879
  4780     06C4  3A01               	xorlw	1	; case 1
  4781     06C5  1903               	skipnz
  4782     06C6  2EA3               	goto	l4881
  4783     06C7  3A03               	xorlw	3	; case 2
  4784     06C8  1903               	skipnz
  4785     06C9  2EAF               	goto	l4883
  4786     06CA  2C92               	goto	l4801
  4787     06CB                     l411:
  4788     06CB  0008               	return
  4789     06CC                     __end_of_set_time:
  4790                           
  4791                           	psect	text4
  4792     1373                     __ptext4:	
  4793 ;; *************** function ___wmul *****************
  4794 ;; Defined at:
  4795 ;;		line 15 in file "C:\Program Files\Microchip\xc8\v2.40\pic\sources\c90\common\Umul16.c"
  4796 ;; Parameters:    Size  Location     Type
  4797 ;;  multiplier      2    2[COMMON] unsigned int 
  4798 ;;  multiplicand    2    4[COMMON] unsigned int 
  4799 ;; Auto vars:     Size  Location     Type
  4800 ;;  product         2    6[COMMON] unsigned int 
  4801 ;; Return value:  Size  Location     Type
  4802 ;;                  2    2[COMMON] unsigned int 
  4803 ;; Registers used:
  4804 ;;		wreg, status,2, status,0
  4805 ;; Tracked objects:
  4806 ;;		On entry : 0/0
  4807 ;;		On exit  : 0/0
  4808 ;;		Unchanged: 0/0
  4809 ;; Data sizes:     COMMON   BANK0   BANK1   BANK3   BANK2
  4810 ;;      Params:         4       0       0       0       0
  4811 ;;      Locals:         2       0       0       0       0
  4812 ;;      Temps:          0       0       0       0       0
  4813 ;;      Totals:         6       0       0       0       0
  4814 ;;Total ram usage:        6 bytes
  4815 ;; Hardware stack levels used: 1
  4816 ;; Hardware stack levels required when called: 1
  4817 ;; This function calls:
  4818 ;;		Nothing
  4819 ;; This function is called by:
  4820 ;;		_set_time
  4821 ;; This function uses a non-reentrant model
  4822 ;;
  4823                           
  4824     1373                     ___wmul:	
  4825                           ;psect for function ___wmul
  4826                           
  4827     1373                     l4231:	
  4828                           ;incstack = 0
  4829                           ; Regs used in ___wmul: [wreg+status,2+status,0]
  4830                           
  4831     1373  01F6               	clrf	___wmul@product
  4832     1374  01F7               	clrf	___wmul@product+1
  4833     1375                     l4233:
  4834     1375  1C72               	btfss	___wmul@multiplier,0
  4835     1376  2B78               	goto	u3381
  4836     1377  2B79               	goto	u3380
  4837     1378                     u3381:
  4838     1378  2B7F               	goto	l618
  4839     1379                     u3380:
  4840     1379                     l4235:
  4841     1379  0874               	movf	___wmul@multiplicand,w
  4842     137A  07F6               	addwf	___wmul@product,f
  4843     137B  1803               	skipnc
  4844     137C  0AF7               	incf	___wmul@product+1,f
  4845     137D  0875               	movf	___wmul@multiplicand+1,w
  4846     137E  07F7               	addwf	___wmul@product+1,f
  4847     137F                     l618:
  4848     137F  3001               	movlw	1
  4849     1380                     u3395:
  4850     1380  1003               	clrc
  4851     1381  0DF4               	rlf	___wmul@multiplicand,f
  4852     1382  0DF5               	rlf	___wmul@multiplicand+1,f
  4853     1383  3EFF               	addlw	-1
  4854     1384  1D03               	skipz
  4855     1385  2B80               	goto	u3395
  4856     1386                     l4237:
  4857     1386  3001               	movlw	1
  4858     1387                     u3405:
  4859     1387  1003               	clrc
  4860     1388  0CF3               	rrf	___wmul@multiplier+1,f
  4861     1389  0CF2               	rrf	___wmul@multiplier,f
  4862     138A  3EFF               	addlw	-1
  4863     138B  1D03               	skipz
  4864     138C  2B87               	goto	u3405
  4865     138D                     l4239:
  4866     138D  0872               	movf	___wmul@multiplier,w
  4867     138E  0473               	iorwf	___wmul@multiplier+1,w
  4868     138F  1D03               	btfss	3,2
  4869     1390  2B92               	goto	u3411
  4870     1391  2B93               	goto	u3410
  4871     1392                     u3411:
  4872     1392  2B75               	goto	l4233
  4873     1393                     u3410:
  4874     1393                     l4241:
  4875     1393  0877               	movf	___wmul@product+1,w
  4876     1394  00F3               	movwf	?___wmul+1
  4877     1395  0876               	movf	___wmul@product,w
  4878     1396  00F2               	movwf	?___wmul
  4879     1397                     l620:
  4880     1397  0008               	return
  4881     1398                     __end_of___wmul:
  4882                           
  4883                           	psect	text5
  4884     157F                     __ptext5:	
  4885 ;; *************** function ___lwmod *****************
  4886 ;; Defined at:
  4887 ;;		line 5 in file "C:\Program Files\Microchip\xc8\v2.40\pic\sources\c90\common\lwmod.c"
  4888 ;; Parameters:    Size  Location     Type
  4889 ;;  divisor         2    2[COMMON] unsigned int 
  4890 ;;  dividend        2    4[COMMON] unsigned int 
  4891 ;; Auto vars:     Size  Location     Type
  4892 ;;  counter         1    7[COMMON] unsigned char 
  4893 ;; Return value:  Size  Location     Type
  4894 ;;                  2    2[COMMON] unsigned int 
  4895 ;; Registers used:
  4896 ;;		wreg, status,2, status,0
  4897 ;; Tracked objects:
  4898 ;;		On entry : 0/0
  4899 ;;		On exit  : 0/0
  4900 ;;		Unchanged: 0/0
  4901 ;; Data sizes:     COMMON   BANK0   BANK1   BANK3   BANK2
  4902 ;;      Params:         4       0       0       0       0
  4903 ;;      Locals:         1       0       0       0       0
  4904 ;;      Temps:          1       0       0       0       0
  4905 ;;      Totals:         6       0       0       0       0
  4906 ;;Total ram usage:        6 bytes
  4907 ;; Hardware stack levels used: 1
  4908 ;; Hardware stack levels required when called: 1
  4909 ;; This function calls:
  4910 ;;		Nothing
  4911 ;; This function is called by:
  4912 ;;		_set_time
  4913 ;; This function uses a non-reentrant model
  4914 ;;
  4915                           
  4916     157F                     ___lwmod:	
  4917                           ;psect for function ___lwmod
  4918                           
  4919     157F                     l4353:	
  4920                           ;incstack = 0
  4921                           ; Regs used in ___lwmod: [wreg+status,2+status,0]
  4922                           
  4923     157F  0872               	movf	___lwmod@divisor,w
  4924     1580  0473               	iorwf	___lwmod@divisor+1,w
  4925     1581  1903               	btfsc	3,2
  4926     1582  2D84               	goto	u3681
  4927     1583  2D85               	goto	u3680
  4928     1584                     u3681:
  4929     1584  2DB4               	goto	l4371
  4930     1585                     u3680:
  4931     1585                     l4355:
  4932     1585  01F7               	clrf	___lwmod@counter
  4933     1586  0AF7               	incf	___lwmod@counter,f
  4934     1587  2D93               	goto	l4361
  4935     1588                     l4357:
  4936     1588  3001               	movlw	1
  4937     1589                     u3695:
  4938     1589  1003               	clrc
  4939     158A  0DF2               	rlf	___lwmod@divisor,f
  4940     158B  0DF3               	rlf	___lwmod@divisor+1,f
  4941     158C  3EFF               	addlw	-1
  4942     158D  1D03               	skipz
  4943     158E  2D89               	goto	u3695
  4944     158F                     l4359:
  4945     158F  3001               	movlw	1
  4946     1590  00F6               	movwf	??___lwmod
  4947     1591  0876               	movf	??___lwmod,w
  4948     1592  07F7               	addwf	___lwmod@counter,f
  4949     1593                     l4361:
  4950     1593  1FF3               	btfss	___lwmod@divisor+1,7
  4951     1594  2D96               	goto	u3701
  4952     1595  2D97               	goto	u3700
  4953     1596                     u3701:
  4954     1596  2D88               	goto	l4357
  4955     1597                     u3700:
  4956     1597                     l4363:
  4957     1597  0873               	movf	___lwmod@divisor+1,w
  4958     1598  0275               	subwf	___lwmod@dividend+1,w
  4959     1599  1D03               	skipz
  4960     159A  2D9D               	goto	u3715
  4961     159B  0872               	movf	___lwmod@divisor,w
  4962     159C  0274               	subwf	___lwmod@dividend,w
  4963     159D                     u3715:
  4964     159D  1C03               	skipc
  4965     159E  2DA0               	goto	u3711
  4966     159F  2DA1               	goto	u3710
  4967     15A0                     u3711:
  4968     15A0  2DA7               	goto	l4367
  4969     15A1                     u3710:
  4970     15A1                     l4365:
  4971     15A1  0872               	movf	___lwmod@divisor,w
  4972     15A2  02F4               	subwf	___lwmod@dividend,f
  4973     15A3  0873               	movf	___lwmod@divisor+1,w
  4974     15A4  1C03               	skipc
  4975     15A5  03F5               	decf	___lwmod@dividend+1,f
  4976     15A6  02F5               	subwf	___lwmod@dividend+1,f
  4977     15A7                     l4367:
  4978     15A7  3001               	movlw	1
  4979     15A8                     u3725:
  4980     15A8  1003               	clrc
  4981     15A9  0CF3               	rrf	___lwmod@divisor+1,f
  4982     15AA  0CF2               	rrf	___lwmod@divisor,f
  4983     15AB  3EFF               	addlw	-1
  4984     15AC  1D03               	skipz
  4985     15AD  2DA8               	goto	u3725
  4986     15AE                     l4369:
  4987     15AE  3001               	movlw	1
  4988     15AF  02F7               	subwf	___lwmod@counter,f
  4989     15B0  1D03               	btfss	3,2
  4990     15B1  2DB3               	goto	u3731
  4991     15B2  2DB4               	goto	u3730
  4992     15B3                     u3731:
  4993     15B3  2D97               	goto	l4363
  4994     15B4                     u3730:
  4995     15B4                     l4371:
  4996     15B4  0875               	movf	___lwmod@dividend+1,w
  4997     15B5  00F3               	movwf	?___lwmod+1
  4998     15B6  0874               	movf	___lwmod@dividend,w
  4999     15B7  00F2               	movwf	?___lwmod
  5000     15B8                     l900:
  5001     15B8  0008               	return
  5002     15B9                     __end_of___lwmod:
  5003                           
  5004                           	psect	text6
  5005     1634                     __ptext6:	
  5006 ;; *************** function ___lwdiv *****************
  5007 ;; Defined at:
  5008 ;;		line 5 in file "C:\Program Files\Microchip\xc8\v2.40\pic\sources\c90\common\lwdiv.c"
  5009 ;; Parameters:    Size  Location     Type
  5010 ;;  divisor         2    0[BANK0 ] unsigned int 
  5011 ;;  dividend        2    2[BANK0 ] unsigned int 
  5012 ;; Auto vars:     Size  Location     Type
  5013 ;;  quotient        2    5[BANK0 ] unsigned int 
  5014 ;;  counter         1    4[BANK0 ] unsigned char 
  5015 ;; Return value:  Size  Location     Type
  5016 ;;                  2    0[BANK0 ] unsigned int 
  5017 ;; Registers used:
  5018 ;;		wreg, status,2, status,0
  5019 ;; Tracked objects:
  5020 ;;		On entry : 0/0
  5021 ;;		On exit  : 0/0
  5022 ;;		Unchanged: 0/0
  5023 ;; Data sizes:     COMMON   BANK0   BANK1   BANK3   BANK2
  5024 ;;      Params:         0       4       0       0       0
  5025 ;;      Locals:         0       3       0       0       0
  5026 ;;      Temps:          1       0       0       0       0
  5027 ;;      Totals:         1       7       0       0       0
  5028 ;;Total ram usage:        8 bytes
  5029 ;; Hardware stack levels used: 1
  5030 ;; Hardware stack levels required when called: 1
  5031 ;; This function calls:
  5032 ;;		Nothing
  5033 ;; This function is called by:
  5034 ;;		_main
  5035 ;;		_set_time
  5036 ;; This function uses a non-reentrant model
  5037 ;;
  5038                           
  5039     1634                     ___lwdiv:	
  5040                           ;psect for function ___lwdiv
  5041                           
  5042     1634                     l4327:	
  5043                           ;incstack = 0
  5044                           ; Regs used in ___lwdiv: [wreg+status,2+status,0]
  5045                           
  5046     1634  1283               	bcf	3,5	;RP0=0, select bank0
  5047     1635  1303               	bcf	3,6	;RP1=0, select bank0
  5048     1636  01CA               	clrf	___lwdiv@quotient
  5049     1637  01CB               	clrf	___lwdiv@quotient+1
  5050     1638                     l4329:
  5051     1638  0845               	movf	___lwdiv@divisor,w
  5052     1639  0446               	iorwf	___lwdiv@divisor+1,w
  5053     163A  1903               	btfsc	3,2
  5054     163B  2E3D               	goto	u3611
  5055     163C  2E3E               	goto	u3610
  5056     163D                     u3611:
  5057     163D  2E75               	goto	l4349
  5058     163E                     u3610:
  5059     163E                     l4331:
  5060     163E  01C9               	clrf	___lwdiv@counter
  5061     163F  0AC9               	incf	___lwdiv@counter,f
  5062     1640  2E4C               	goto	l4337
  5063     1641                     l4333:
  5064     1641  3001               	movlw	1
  5065     1642                     u3625:
  5066     1642  1003               	clrc
  5067     1643  0DC5               	rlf	___lwdiv@divisor,f
  5068     1644  0DC6               	rlf	___lwdiv@divisor+1,f
  5069     1645  3EFF               	addlw	-1
  5070     1646  1D03               	skipz
  5071     1647  2E42               	goto	u3625
  5072     1648                     l4335:
  5073     1648  3001               	movlw	1
  5074     1649  00F6               	movwf	??___lwdiv
  5075     164A  0876               	movf	??___lwdiv,w
  5076     164B  07C9               	addwf	___lwdiv@counter,f
  5077     164C                     l4337:
  5078     164C  1FC6               	btfss	___lwdiv@divisor+1,7
  5079     164D  2E4F               	goto	u3631
  5080     164E  2E50               	goto	u3630
  5081     164F                     u3631:
  5082     164F  2E41               	goto	l4333
  5083     1650                     u3630:
  5084     1650                     l4339:
  5085     1650  3001               	movlw	1
  5086     1651                     u3645:
  5087     1651  1003               	clrc
  5088     1652  0DCA               	rlf	___lwdiv@quotient,f
  5089     1653  0DCB               	rlf	___lwdiv@quotient+1,f
  5090     1654  3EFF               	addlw	-1
  5091     1655  1D03               	skipz
  5092     1656  2E51               	goto	u3645
  5093     1657  0846               	movf	___lwdiv@divisor+1,w
  5094     1658  0248               	subwf	___lwdiv@dividend+1,w
  5095     1659  1D03               	skipz
  5096     165A  2E5D               	goto	u3655
  5097     165B  0845               	movf	___lwdiv@divisor,w
  5098     165C  0247               	subwf	___lwdiv@dividend,w
  5099     165D                     u3655:
  5100     165D  1C03               	skipc
  5101     165E  2E60               	goto	u3651
  5102     165F  2E61               	goto	u3650
  5103     1660                     u3651:
  5104     1660  2E68               	goto	l4345
  5105     1661                     u3650:
  5106     1661                     l4341:
  5107     1661  0845               	movf	___lwdiv@divisor,w
  5108     1662  02C7               	subwf	___lwdiv@dividend,f
  5109     1663  0846               	movf	___lwdiv@divisor+1,w
  5110     1664  1C03               	skipc
  5111     1665  03C8               	decf	___lwdiv@dividend+1,f
  5112     1666  02C8               	subwf	___lwdiv@dividend+1,f
  5113     1667                     l4343:
  5114     1667  144A               	bsf	___lwdiv@quotient,0
  5115     1668                     l4345:
  5116     1668  3001               	movlw	1
  5117     1669                     u3665:
  5118     1669  1003               	clrc
  5119     166A  0CC6               	rrf	___lwdiv@divisor+1,f
  5120     166B  0CC5               	rrf	___lwdiv@divisor,f
  5121     166C  3EFF               	addlw	-1
  5122     166D  1D03               	skipz
  5123     166E  2E69               	goto	u3665
  5124     166F                     l4347:
  5125     166F  3001               	movlw	1
  5126     1670  02C9               	subwf	___lwdiv@counter,f
  5127     1671  1D03               	btfss	3,2
  5128     1672  2E74               	goto	u3671
  5129     1673  2E75               	goto	u3670
  5130     1674                     u3671:
  5131     1674  2E50               	goto	l4339
  5132     1675                     u3670:
  5133     1675                     l4349:
  5134     1675  084B               	movf	___lwdiv@quotient+1,w
  5135     1676  00C6               	movwf	?___lwdiv+1
  5136     1677  084A               	movf	___lwdiv@quotient,w
  5137     1678  00C5               	movwf	?___lwdiv
  5138     1679                     l890:
  5139     1679  0008               	return
  5140     167A                     __end_of___lwdiv:
  5141                           
  5142                           	psect	text7
  5143     140A                     __ptext7:	
  5144 ;; *************** function _read_digital_keypad *****************
  5145 ;; Defined at:
  5146 ;;		line 15 in file "digital_keypad.c"
  5147 ;; Parameters:    Size  Location     Type
  5148 ;;  mode            1    wreg     unsigned char 
  5149 ;; Auto vars:     Size  Location     Type
  5150 ;;  mode            1    3[COMMON] unsigned char 
  5151 ;; Return value:  Size  Location     Type
  5152 ;;                  1    wreg      unsigned char 
  5153 ;; Registers used:
  5154 ;;		wreg, status,2, status,0
  5155 ;; Tracked objects:
  5156 ;;		On entry : 0/0
  5157 ;;		On exit  : 0/0
  5158 ;;		Unchanged: 0/0
  5159 ;; Data sizes:     COMMON   BANK0   BANK1   BANK3   BANK2
  5160 ;;      Params:         0       0       0       0       0
  5161 ;;      Locals:         1       0       0       0       0
  5162 ;;      Temps:          1       0       0       0       0
  5163 ;;      Totals:         2       0       0       0       0
  5164 ;;Total ram usage:        2 bytes
  5165 ;; Hardware stack levels used: 1
  5166 ;; Hardware stack levels required when called: 1
  5167 ;; This function calls:
  5168 ;;		Nothing
  5169 ;; This function is called by:
  5170 ;;		_main
  5171 ;; This function uses a non-reentrant model
  5172 ;;
  5173                           
  5174     140A                     _read_digital_keypad:	
  5175                           ;psect for function _read_digital_keypad
  5176                           
  5177                           
  5178                           ;incstack = 0
  5179                           ; Regs used in _read_digital_keypad: [wreg+status,2+status,0]
  5180                           ;read_digital_keypad@mode stored from wreg
  5181     140A  00F3               	movwf	read_digital_keypad@mode
  5182     140B                     l4409:
  5183                           
  5184                           ;digital_keypad.c: 15: unsigned char read_digital_keypad(unsigned char mode);digital_key
      +                          pad.c: 16: {;digital_keypad.c: 17:     static unsigned char once = 1;;digital_keypad.c: 
      +                          20:     if (mode == 0)
  5185     140B  0873               	movf	read_digital_keypad@mode,w
  5186     140C  1D03               	btfss	3,2
  5187     140D  2C0F               	goto	u3751
  5188     140E  2C10               	goto	u3750
  5189     140F                     u3751:
  5190     140F  2C15               	goto	l4417
  5191     1410                     u3750:
  5192     1410                     l4411:
  5193                           
  5194                           ;digital_keypad.c: 21:     {;digital_keypad.c: 22:         return PORTB & 0x3F;
  5195     1410  1283               	bcf	3,5	;RP0=0, select bank0
  5196     1411  1303               	bcf	3,6	;RP1=0, select bank0
  5197     1412  0806               	movf	6,w	;volatile
  5198     1413  393F               	andlw	63
  5199     1414  2C33               	goto	l439
  5200     1415                     l4417:
  5201                           
  5202                           ;digital_keypad.c: 25:     {;digital_keypad.c: 26:         if (((PORTB & 0x3F) != 0x3F) 
      +                          && once)
  5203     1415  303F               	movlw	63
  5204     1416  1283               	bcf	3,5	;RP0=0, select bank0
  5205     1417  1303               	bcf	3,6	;RP1=0, select bank0
  5206     1418  0506               	andwf	6,w	;volatile
  5207     1419  00F2               	movwf	??_read_digital_keypad
  5208     141A  303F               	movlw	63
  5209     141B  0672               	xorwf	??_read_digital_keypad,w
  5210     141C  1903               	btfsc	3,2
  5211     141D  2C1F               	goto	u3761
  5212     141E  2C20               	goto	u3760
  5213     141F                     u3761:
  5214     141F  2C27               	goto	l4429
  5215     1420                     u3760:
  5216     1420                     l4419:
  5217     1420  0863               	movf	read_digital_keypad@once,w
  5218     1421  1903               	btfsc	3,2
  5219     1422  2C24               	goto	u3771
  5220     1423  2C25               	goto	u3770
  5221     1424                     u3771:
  5222     1424  2C27               	goto	l4429
  5223     1425                     u3770:
  5224     1425                     l4421:
  5225                           
  5226                           ;digital_keypad.c: 27:         {;digital_keypad.c: 28:             once = 0;
  5227     1425  01E3               	clrf	read_digital_keypad@once
  5228     1426  2C10               	goto	l4411
  5229     1427                     l4429:
  5230     1427  303F               	movlw	63
  5231     1428  0506               	andwf	6,w	;volatile
  5232     1429  00F2               	movwf	??_read_digital_keypad
  5233     142A  303F               	movlw	63
  5234     142B  0672               	xorwf	??_read_digital_keypad,w
  5235     142C  1D03               	btfss	3,2
  5236     142D  2C2F               	goto	u3781
  5237     142E  2C30               	goto	u3780
  5238     142F                     u3781:
  5239     142F  2C32               	goto	l4433
  5240     1430                     u3780:
  5241     1430                     l4431:
  5242                           
  5243                           ;digital_keypad.c: 33:         {;digital_keypad.c: 34:             once = 1;
  5244     1430  01E3               	clrf	read_digital_keypad@once
  5245     1431  0AE3               	incf	read_digital_keypad@once,f
  5246     1432                     l4433:
  5247                           
  5248                           ;digital_keypad.c: 39:     return 0x3F;
  5249     1432  303F               	movlw	63
  5250     1433                     l439:
  5251     1433  0008               	return
  5252     1434                     __end_of_read_digital_keypad:
  5253                           
  5254                           	psect	text8
  5255     1299                     __ptext8:	
  5256 ;; *************** function _read_adc *****************
  5257 ;; Defined at:
  5258 ;;		line 18 in file "adc.c"
  5259 ;; Parameters:    Size  Location     Type
  5260 ;;		None
  5261 ;; Auto vars:     Size  Location     Type
  5262 ;;  adc_reg_val     2    4[COMMON] unsigned short 
  5263 ;; Return value:  Size  Location     Type
  5264 ;;                  2    2[COMMON] unsigned short 
  5265 ;; Registers used:
  5266 ;;		wreg
  5267 ;; Tracked objects:
  5268 ;;		On entry : 0/0
  5269 ;;		On exit  : 0/0
  5270 ;;		Unchanged: 0/0
  5271 ;; Data sizes:     COMMON   BANK0   BANK1   BANK3   BANK2
  5272 ;;      Params:         2       0       0       0       0
  5273 ;;      Locals:         2       0       0       0       0
  5274 ;;      Temps:          0       0       0       0       0
  5275 ;;      Totals:         4       0       0       0       0
  5276 ;;Total ram usage:        4 bytes
  5277 ;; Hardware stack levels used: 1
  5278 ;; Hardware stack levels required when called: 1
  5279 ;; This function calls:
  5280 ;;		Nothing
  5281 ;; This function is called by:
  5282 ;;		_main
  5283 ;; This function uses a non-reentrant model
  5284 ;;
  5285                           
  5286     1299                     _read_adc:	
  5287                           ;psect for function _read_adc
  5288                           
  5289     1299                     l4375:	
  5290                           ;incstack = 0
  5291                           ; Regs used in _read_adc: [wreg]
  5292                           
  5293                           
  5294                           ;adc.c: 20:     unsigned short adc_reg_val;;adc.c: 23:     GO = 1;
  5295     1299  1283               	bcf	3,5	;RP0=0, select bank0
  5296     129A  1303               	bcf	3,6	;RP1=0, select bank0
  5297     129B  151F               	bsf	31,2	;volatile
  5298     129C                     l125:	
  5299                           ;adc.c: 26:     while (nDONE);
  5300                           
  5301     129C  191F               	btfsc	31,2	;volatile
  5302     129D  2A9F               	goto	u3741
  5303     129E  2AA0               	goto	u3740
  5304     129F                     u3741:
  5305     129F  2A9C               	goto	l125
  5306     12A0                     u3740:
  5307     12A0                     l4377:
  5308                           
  5309                           ;adc.c: 29:     adc_reg_val = (ADRESH << 8) | ADRESL;
  5310     12A0  081E               	movf	30,w	;volatile
  5311     12A1  00F5               	movwf	read_adc@adc_reg_val+1
  5312     12A2  1683               	bsf	3,5	;RP0=1, select bank1
  5313     12A3  1303               	bcf	3,6	;RP1=0, select bank1
  5314     12A4  081E               	movf	30,w	;volatile
  5315     12A5  00F4               	movwf	read_adc@adc_reg_val
  5316                           
  5317                           ;adc.c: 31:     return adc_reg_val;
  5318     12A6  0875               	movf	read_adc@adc_reg_val+1,w
  5319     12A7  00F3               	movwf	?_read_adc+1
  5320     12A8  0874               	movf	read_adc@adc_reg_val,w
  5321     12A9  00F2               	movwf	?_read_adc
  5322     12AA                     l128:
  5323     12AA  0008               	return
  5324     12AB                     __end_of_read_adc:
  5325                           
  5326                           	psect	text9
  5327     0A7F                     __ptext9:	
  5328 ;; *************** function _login_menu *****************
  5329 ;; Defined at:
  5330 ;;		line 195 in file "car_bb.c"
  5331 ;; Parameters:    Size  Location     Type
  5332 ;;  key             1    wreg     unsigned char 
  5333 ;;  reset_flag      1    9[BANK0 ] unsigned char 
  5334 ;; Auto vars:     Size  Location     Type
  5335 ;;  key             1   12[BANK0 ] unsigned char 
  5336 ;; Return value:  Size  Location     Type
  5337 ;;                  1    wreg      unsigned char 
  5338 ;; Registers used:
  5339 ;;		wreg, fsr0l, fsr0h, status,2, status,0, btemp+1, pclath, cstack
  5340 ;; Tracked objects:
  5341 ;;		On entry : 0/0
  5342 ;;		On exit  : 0/0
  5343 ;;		Unchanged: 0/0
  5344 ;; Data sizes:     COMMON   BANK0   BANK1   BANK3   BANK2
  5345 ;;      Params:         0       1       0       0       0
  5346 ;;      Locals:         0       1       0       0       0
  5347 ;;      Temps:          0       2       0       0       0
  5348 ;;      Totals:         0       4       0       0       0
  5349 ;;Total ram usage:        4 bytes
  5350 ;; Hardware stack levels used: 1
  5351 ;; Hardware stack levels required when called: 3
  5352 ;; This function calls:
  5353 ;;		_clcd_print
  5354 ;;		_clcd_putch
  5355 ;;		_clear_screen
  5356 ;; This function is called by:
  5357 ;;		_main
  5358 ;; This function uses a non-reentrant model
  5359 ;;
  5360                           
  5361     0A7F                     _login_menu:	
  5362                           ;psect for function _login_menu
  5363                           
  5364                           
  5365                           ;incstack = 0
  5366                           ; Regs used in _login_menu: [wreg-fsr0h+status,2+status,0+btemp+1+pclath+cstack]
  5367                           ;login_menu@key stored from wreg
  5368     0A7F  1283               	bcf	3,5	;RP0=0, select bank0
  5369     0A80  1303               	bcf	3,6	;RP1=0, select bank0
  5370     0A81  00D1               	movwf	login_menu@key
  5371     0A82                     l4565:
  5372                           
  5373                           ;car_bb.c: 195: char login_menu(unsigned char key, unsigned char reset_flag);car_bb.c: 1
      +                          96: {;car_bb.c: 198:     static char menu_pos;;car_bb.c: 199:     if(reset_flag == 0x30)
  5374     0A82  3030               	movlw	48
  5375     0A83  064E               	xorwf	login_menu@reset_flag,w
  5376     0A84  1D03               	btfss	3,2
  5377     0A85  2A87               	goto	u3911
  5378     0A86  2A88               	goto	u3910
  5379     0A87                     u3911:
  5380     0A87  2A8E               	goto	l4571
  5381     0A88                     u3910:
  5382     0A88                     l4567:
  5383                           
  5384                           ;car_bb.c: 200:     {;car_bb.c: 201:         menu_pos = 0;
  5385     0A88  01B5               	clrf	login_menu@menu_pos
  5386     0A89                     l4569:
  5387                           
  5388                           ;car_bb.c: 202:         clear_screen();
  5389     0A89  160A  118A  2288  120A  158A  	fcall	_clear_screen
  5390     0A8E                     l4571:
  5391                           
  5392                           ;car_bb.c: 204:     if(key == 0x37 && menu_pos <= 3)
  5393     0A8E  3037               	movlw	55
  5394     0A8F  1283               	bcf	3,5	;RP0=0, select bank0
  5395     0A90  1303               	bcf	3,6	;RP1=0, select bank0
  5396     0A91  0651               	xorwf	login_menu@key,w
  5397     0A92  1D03               	btfss	3,2
  5398     0A93  2A95               	goto	u3921
  5399     0A94  2A96               	goto	u3920
  5400     0A95                     u3921:
  5401     0A95  2AA6               	goto	l4579
  5402     0A96                     u3920:
  5403     0A96                     l4573:
  5404     0A96  3004               	movlw	4
  5405     0A97  0235               	subwf	login_menu@menu_pos,w
  5406     0A98  1803               	skipnc
  5407     0A99  2A9B               	goto	u3931
  5408     0A9A  2A9C               	goto	u3930
  5409     0A9B                     u3931:
  5410     0A9B  2AA6               	goto	l4579
  5411     0A9C                     u3930:
  5412     0A9C                     l4575:
  5413                           
  5414                           ;car_bb.c: 205:     {;car_bb.c: 206:         menu_pos++;
  5415     0A9C  3001               	movlw	1
  5416     0A9D  00CF               	movwf	??_login_menu
  5417     0A9E  084F               	movf	??_login_menu,w
  5418     0A9F  07B5               	addwf	login_menu@menu_pos,f
  5419     0AA0                     l4577:
  5420                           
  5421                           ;car_bb.c: 207:         clear_screen();
  5422     0AA0  160A  118A  2288  120A  158A  	fcall	_clear_screen
  5423                           
  5424                           ;car_bb.c: 208:     }
  5425     0AA5  2AB4               	goto	l4587
  5426     0AA6                     l4579:
  5427     0AA6  302F               	movlw	47
  5428     0AA7  0651               	xorwf	login_menu@key,w
  5429     0AA8  1D03               	btfss	3,2
  5430     0AA9  2AAB               	goto	u3941
  5431     0AAA  2AAC               	goto	u3940
  5432     0AAB                     u3941:
  5433     0AAB  2AB4               	goto	l4587
  5434     0AAC                     u3940:
  5435     0AAC                     l4581:
  5436     0AAC  0835               	movf	login_menu@menu_pos,w
  5437     0AAD  1903               	btfsc	3,2
  5438     0AAE  2AB0               	goto	u3951
  5439     0AAF  2AB1               	goto	u3950
  5440     0AB0                     u3951:
  5441     0AB0  2AB4               	goto	l4587
  5442     0AB1                     u3950:
  5443     0AB1                     l4583:
  5444                           
  5445                           ;car_bb.c: 210:     {;car_bb.c: 211:         menu_pos--;
  5446     0AB1  3001               	movlw	1
  5447     0AB2  02B5               	subwf	login_menu@menu_pos,f
  5448     0AB3  2AA0               	goto	l4577
  5449     0AB4                     l4587:
  5450                           
  5451                           ;car_bb.c: 215:     if(menu_pos < 4)
  5452     0AB4  3004               	movlw	4
  5453     0AB5  1283               	bcf	3,5	;RP0=0, select bank0
  5454     0AB6  1303               	bcf	3,6	;RP1=0, select bank0
  5455     0AB7  0235               	subwf	login_menu@menu_pos,w
  5456     0AB8  1803               	skipnc
  5457     0AB9  2ABB               	goto	u3961
  5458     0ABA  2ABC               	goto	u3960
  5459     0ABB                     u3961:
  5460     0ABB  2AEF               	goto	l4595
  5461     0ABC                     u3960:
  5462     0ABC                     l4589:
  5463                           
  5464                           ;car_bb.c: 216:     {;car_bb.c: 217:         clcd_putch('*', (0x80 + 0));
  5465     0ABC  3080               	movlw	128
  5466     0ABD  00CC               	movwf	clcd_putch@addr
  5467     0ABE  302A               	movlw	42
  5468     0ABF  160A  118A  22D1  120A  158A  	fcall	_clcd_putch
  5469     0AC4                     l4591:
  5470                           
  5471                           ;car_bb.c: 218:         clcd_print(menu[menu_pos], (0x80 + 2));
  5472     0AC4  1283               	bcf	3,5	;RP0=0, select bank0
  5473     0AC5  1303               	bcf	3,6	;RP1=0, select bank0
  5474     0AC6  0835               	movf	login_menu@menu_pos,w
  5475     0AC7  00CF               	movwf	??_login_menu
  5476     0AC8  074F               	addwf	??_login_menu,w
  5477     0AC9  3EAC               	addlw	(low (_menu| 0))& (0+255)
  5478     0ACA  0084               	movwf	4
  5479     0ACB  1383               	bcf	3,7	;select IRP bank1
  5480     0ACC  0800               	movf	0,w
  5481     0ACD  00F6               	movwf	clcd_print@str
  5482     0ACE  0A84               	incf	4,f
  5483     0ACF  0800               	movf	0,w
  5484     0AD0  0384               	decf	4,f
  5485     0AD1  00F7               	movwf	clcd_print@str+1
  5486     0AD2  3082               	movlw	130
  5487     0AD3  00F8               	movwf	clcd_print@addr
  5488     0AD4  160A  118A  24B5  120A  158A  	fcall	_clcd_print
  5489     0AD9                     l4593:
  5490                           
  5491                           ;car_bb.c: 219:         clcd_print(menu[menu_pos + 1], (0xC0 + 2));
  5492     0AD9  1283               	bcf	3,5	;RP0=0, select bank0
  5493     0ADA  1303               	bcf	3,6	;RP1=0, select bank0
  5494     0ADB  0835               	movf	login_menu@menu_pos,w
  5495     0ADC  00CF               	movwf	??_login_menu
  5496     0ADD  074F               	addwf	??_login_menu,w
  5497     0ADE  3EAE               	addlw	(low ((_menu| 0+2)))& (0+255)
  5498     0ADF  0084               	movwf	4
  5499     0AE0  1383               	bcf	3,7	;select IRP bank1
  5500     0AE1  0800               	movf	0,w
  5501     0AE2  00F6               	movwf	clcd_print@str
  5502     0AE3  0A84               	incf	4,f
  5503     0AE4  0800               	movf	0,w
  5504     0AE5  0384               	decf	4,f
  5505     0AE6  00F7               	movwf	clcd_print@str+1
  5506     0AE7  30C2               	movlw	194
  5507     0AE8  00F8               	movwf	clcd_print@addr
  5508     0AE9  160A  118A  24B5  120A  158A  	fcall	_clcd_print
  5509                           
  5510                           ;car_bb.c: 220:     }
  5511     0AEE  2B27               	goto	l4601
  5512     0AEF                     l4595:
  5513     0AEF  3004               	movlw	4
  5514     0AF0  0635               	xorwf	login_menu@menu_pos,w
  5515     0AF1  1D03               	btfss	3,2
  5516     0AF2  2AF4               	goto	u3971
  5517     0AF3  2AF5               	goto	u3970
  5518     0AF4                     u3971:
  5519     0AF4  2B27               	goto	l4601
  5520     0AF5                     u3970:
  5521     0AF5                     l4597:
  5522                           
  5523                           ;car_bb.c: 222:     {;car_bb.c: 223:         clcd_print(menu[menu_pos - 1], (0x80 + 2));
  5524     0AF5  0835               	movf	login_menu@menu_pos,w
  5525     0AF6  00CF               	movwf	??_login_menu
  5526     0AF7  074F               	addwf	??_login_menu,w
  5527     0AF8  3EAA               	addlw	(low ((_menu| 0+254)))& (0+255)
  5528     0AF9  0084               	movwf	4
  5529     0AFA  1383               	bcf	3,7	;select IRP bank1
  5530     0AFB  0800               	movf	0,w
  5531     0AFC  00F6               	movwf	clcd_print@str
  5532     0AFD  0A84               	incf	4,f
  5533     0AFE  0800               	movf	0,w
  5534     0AFF  0384               	decf	4,f
  5535     0B00  00F7               	movwf	clcd_print@str+1
  5536     0B01  3082               	movlw	130
  5537     0B02  00F8               	movwf	clcd_print@addr
  5538     0B03  160A  118A  24B5  120A  158A  	fcall	_clcd_print
  5539                           
  5540                           ;car_bb.c: 224:         clcd_print(menu[menu_pos], (0xC0 + 2));
  5541     0B08  1283               	bcf	3,5	;RP0=0, select bank0
  5542     0B09  1303               	bcf	3,6	;RP1=0, select bank0
  5543     0B0A  0835               	movf	login_menu@menu_pos,w
  5544     0B0B  00CF               	movwf	??_login_menu
  5545     0B0C  074F               	addwf	??_login_menu,w
  5546     0B0D  3EAC               	addlw	(low (_menu| 0))& (0+255)
  5547     0B0E  0084               	movwf	4
  5548     0B0F  1383               	bcf	3,7	;select IRP bank1
  5549     0B10  0800               	movf	0,w
  5550     0B11  00F6               	movwf	clcd_print@str
  5551     0B12  0A84               	incf	4,f
  5552     0B13  0800               	movf	0,w
  5553     0B14  0384               	decf	4,f
  5554     0B15  00F7               	movwf	clcd_print@str+1
  5555     0B16  30C2               	movlw	194
  5556     0B17  00F8               	movwf	clcd_print@addr
  5557     0B18  160A  118A  24B5  120A  158A  	fcall	_clcd_print
  5558     0B1D                     l4599:
  5559                           
  5560                           ;car_bb.c: 225:         clcd_putch('*', (0xC0 + 0));
  5561     0B1D  30C0               	movlw	192
  5562     0B1E  1283               	bcf	3,5	;RP0=0, select bank0
  5563     0B1F  1303               	bcf	3,6	;RP1=0, select bank0
  5564     0B20  00CC               	movwf	clcd_putch@addr
  5565     0B21  302A               	movlw	42
  5566     0B22  160A  118A  22D1  120A  158A  	fcall	_clcd_putch
  5567     0B27                     l4601:
  5568                           
  5569                           ;car_bb.c: 227:     return menu_pos;
  5570     0B27  1283               	bcf	3,5	;RP0=0, select bank0
  5571     0B28  1303               	bcf	3,6	;RP1=0, select bank0
  5572     0B29  0835               	movf	login_menu@menu_pos,w
  5573     0B2A                     l343:
  5574     0B2A  0008               	return
  5575     0B2B                     __end_of_login_menu:
  5576                           
  5577                           	psect	text10
  5578     0E93                     __ptext10:	
  5579 ;; *************** function _login *****************
  5580 ;; Defined at:
  5581 ;;		line 104 in file "car_bb.c"
  5582 ;; Parameters:    Size  Location     Type
  5583 ;;  key             1    wreg     unsigned char 
  5584 ;;  reset_flag      1    9[BANK0 ] unsigned char 
  5585 ;; Auto vars:     Size  Location     Type
  5586 ;;  key             1   17[BANK0 ] unsigned char 
  5587 ;;  j               2   18[BANK0 ] int 
  5588 ;;  spassword       4   13[BANK0 ] unsigned char [4]
  5589 ;; Return value:  Size  Location     Type
  5590 ;;                  1    wreg      unsigned char 
  5591 ;; Registers used:
  5592 ;;		wreg, fsr0l, fsr0h, status,2, status,0, btemp+1, pclath, cstack
  5593 ;; Tracked objects:
  5594 ;;		On entry : 0/0
  5595 ;;		On exit  : 0/0
  5596 ;;		Unchanged: 0/0
  5597 ;; Data sizes:     COMMON   BANK0   BANK1   BANK3   BANK2
  5598 ;;      Params:         0       1       0       0       0
  5599 ;;      Locals:         0       7       0       0       0
  5600 ;;      Temps:          0       3       0       0       0
  5601 ;;      Totals:         0      11       0       0       0
  5602 ;;Total ram usage:       11 bytes
  5603 ;; Hardware stack levels used: 1
  5604 ;; Hardware stack levels required when called: 5
  5605 ;; This function calls:
  5606 ;;		___awdiv
  5607 ;;		___awmod
  5608 ;;		_clcd_print
  5609 ;;		_clcd_putch
  5610 ;;		_clcd_write
  5611 ;;		_clear_screen
  5612 ;;		_eeprom_at24c04_random_read
  5613 ;;		_strncmp
  5614 ;; This function is called by:
  5615 ;;		_main
  5616 ;; This function uses a non-reentrant model
  5617 ;;
  5618                           
  5619     0E93                     _login:	
  5620                           ;psect for function _login
  5621                           
  5622                           
  5623                           ;incstack = 0
  5624                           ; Regs used in _login: [wreg-fsr0h+status,2+status,0+btemp+1+pclath+cstack]
  5625                           ;login@key stored from wreg
  5626     0E93  1283               	bcf	3,5	;RP0=0, select bank0
  5627     0E94  1303               	bcf	3,6	;RP1=0, select bank0
  5628     0E95  00D6               	movwf	login@key
  5629     0E96                     l4451:
  5630                           
  5631                           ;car_bb.c: 104: unsigned char login(unsigned char key, unsigned char reset_flag);car_bb.
      +                          c: 105: {;car_bb.c: 106:     static char npassword[4], i;;car_bb.c: 107:     char spassw
      +                          ord[4];;car_bb.c: 108:     static unsigned char attempts_rem = 3;;car_bb.c: 110:     if(
      +                          reset_flag == 0x10)
  5632     0E96  3010               	movlw	16
  5633     0E97  064E               	xorwf	login@reset_flag,w
  5634     0E98  1D03               	btfss	3,2
  5635     0E99  2E9B               	goto	u3801
  5636     0E9A  2E9C               	goto	u3800
  5637     0E9B                     u3801:
  5638     0E9B  2EA7               	goto	l4469
  5639     0E9C                     u3800:
  5640     0E9C                     l4453:
  5641                           
  5642                           ;car_bb.c: 111:     {;car_bb.c: 112:         attempts_rem = 3;
  5643     0E9C  3003               	movlw	3
  5644     0E9D  00E4               	movwf	login@attempts_rem
  5645     0E9E                     l4455:
  5646                           
  5647                           ;car_bb.c: 113:         npassword[0] ='\0';
  5648     0E9E  01C1               	clrf	login@npassword
  5649     0E9F                     l4457:
  5650                           
  5651                           ;car_bb.c: 114:         npassword[1] ='\0';
  5652     0E9F  01C2               	clrf	login@npassword+1
  5653     0EA0                     l4459:
  5654                           
  5655                           ;car_bb.c: 115:         npassword[2] ='\0';
  5656     0EA0  01C3               	clrf	login@npassword+2
  5657     0EA1                     l4461:
  5658                           
  5659                           ;car_bb.c: 116:         npassword[3] ='\0';
  5660     0EA1  01C4               	clrf	login@npassword+3
  5661     0EA2                     l4463:
  5662                           
  5663                           ;car_bb.c: 117:         i = 0;
  5664     0EA2  01B6               	clrf	login@i
  5665     0EA3                     l4465:
  5666                           
  5667                           ;car_bb.c: 118:         key = 0xFF;
  5668     0EA3  30FF               	movlw	255
  5669     0EA4  00D6               	movwf	login@key
  5670     0EA5                     l4467:
  5671                           
  5672                           ;car_bb.c: 120:         return_time = 5;
  5673     0EA5  3005               	movlw	5
  5674     0EA6  00E5               	movwf	_return_time
  5675     0EA7                     l4469:
  5676                           
  5677                           ;car_bb.c: 123:     if(return_time == 0)
  5678     0EA7  0865               	movf	_return_time,w
  5679     0EA8  1D03               	btfss	3,2
  5680     0EA9  2EAB               	goto	u3811
  5681     0EAA  2EAC               	goto	u3810
  5682     0EAB                     u3811:
  5683     0EAB  2EAE               	goto	l4475
  5684     0EAC                     u3810:
  5685     0EAC                     l4471:
  5686                           
  5687                           ;car_bb.c: 124:     {;car_bb.c: 125:         return 0x0A;
  5688     0EAC  300A               	movlw	10
  5689     0EAD  2FFF               	goto	l318
  5690     0EAE                     l4475:
  5691                           
  5692                           ;car_bb.c: 128:     if(key == 0x37 && i < 4)
  5693     0EAE  3037               	movlw	55
  5694     0EAF  0656               	xorwf	login@key,w
  5695     0EB0  1D03               	btfss	3,2
  5696     0EB1  2EB3               	goto	u3821
  5697     0EB2  2EB4               	goto	u3820
  5698     0EB3                     u3821:
  5699     0EB3  2ED2               	goto	l4487
  5700     0EB4                     u3820:
  5701     0EB4                     l4477:
  5702     0EB4  3004               	movlw	4
  5703     0EB5  0236               	subwf	login@i,w
  5704     0EB6  1803               	skipnc
  5705     0EB7  2EB9               	goto	u3831
  5706     0EB8  2EBA               	goto	u3830
  5707     0EB9                     u3831:
  5708     0EB9  2ED2               	goto	l4487
  5709     0EBA                     u3830:
  5710     0EBA                     l4479:
  5711                           
  5712                           ;car_bb.c: 129:     {;car_bb.c: 130:         npassword[i] = '1';
  5713     0EBA  0836               	movf	login@i,w
  5714     0EBB  3E41               	addlw	(low (login@npassword| 0))& (0+255)
  5715     0EBC  0084               	movwf	4
  5716     0EBD  3031               	movlw	49
  5717     0EBE  1383               	bcf	3,7	;select IRP bank0
  5718     0EBF  0080               	movwf	0
  5719     0EC0                     l4481:
  5720                           
  5721                           ;car_bb.c: 131:         clcd_putch('*', (0xC0 + 6 + i));
  5722     0EC0  0836               	movf	login@i,w
  5723     0EC1  3EC6               	addlw	198
  5724     0EC2  00CC               	movwf	clcd_putch@addr
  5725     0EC3  302A               	movlw	42
  5726     0EC4  160A  118A  22D1  120A  158A  	fcall	_clcd_putch
  5727     0EC9                     l4483:
  5728                           
  5729                           ;car_bb.c: 132:         i++;
  5730     0EC9  3001               	movlw	1
  5731     0ECA  1283               	bcf	3,5	;RP0=0, select bank0
  5732     0ECB  1303               	bcf	3,6	;RP1=0, select bank0
  5733     0ECC  00CF               	movwf	??_login
  5734     0ECD  084F               	movf	??_login,w
  5735     0ECE  07B6               	addwf	login@i,f
  5736     0ECF                     l4485:
  5737                           
  5738                           ;car_bb.c: 133:         return_time = 5;
  5739     0ECF  3005               	movlw	5
  5740     0ED0  00E5               	movwf	_return_time
  5741                           
  5742                           ;car_bb.c: 134:     }
  5743     0ED1  2EEE               	goto	l4499
  5744     0ED2                     l4487:
  5745     0ED2  302F               	movlw	47
  5746     0ED3  0656               	xorwf	login@key,w
  5747     0ED4  1D03               	btfss	3,2
  5748     0ED5  2ED7               	goto	u3841
  5749     0ED6  2ED8               	goto	u3840
  5750     0ED7                     u3841:
  5751     0ED7  2EEE               	goto	l4499
  5752     0ED8                     u3840:
  5753     0ED8                     l4489:
  5754     0ED8  3004               	movlw	4
  5755     0ED9  0236               	subwf	login@i,w
  5756     0EDA  1803               	skipnc
  5757     0EDB  2EDD               	goto	u3851
  5758     0EDC  2EDE               	goto	u3850
  5759     0EDD                     u3851:
  5760     0EDD  2EEE               	goto	l4499
  5761     0EDE                     u3850:
  5762     0EDE                     l4491:
  5763                           
  5764                           ;car_bb.c: 136:     {;car_bb.c: 137:         npassword[i] = '0';
  5765     0EDE  0836               	movf	login@i,w
  5766     0EDF  3E41               	addlw	(low (login@npassword| 0))& (0+255)
  5767     0EE0  0084               	movwf	4
  5768     0EE1  3030               	movlw	48
  5769     0EE2  1383               	bcf	3,7	;select IRP bank0
  5770     0EE3  0080               	movwf	0
  5771     0EE4                     l4493:
  5772                           
  5773                           ;car_bb.c: 138:         clcd_putch('*', (0xC0 + 6 + i));
  5774     0EE4  0836               	movf	login@i,w
  5775     0EE5  3EC6               	addlw	198
  5776     0EE6  00CC               	movwf	clcd_putch@addr
  5777     0EE7  302A               	movlw	42
  5778     0EE8  160A  118A  22D1  120A  158A  	fcall	_clcd_putch
  5779     0EED  2EC9               	goto	l4483
  5780     0EEE                     l4499:
  5781                           
  5782                           ;car_bb.c: 142:     if(i == 4)
  5783     0EEE  3004               	movlw	4
  5784     0EEF  0636               	xorwf	login@i,w
  5785     0EF0  1D03               	btfss	3,2
  5786     0EF1  2EF3               	goto	u3861
  5787     0EF2  2EF4               	goto	u3860
  5788     0EF3                     u3861:
  5789     0EF3  2FFE               	goto	l4561
  5790     0EF4                     u3860:
  5791     0EF4                     l4501:
  5792                           
  5793                           ;car_bb.c: 143:     {;car_bb.c: 145:         for(int j = 0; j < 4; j++)
  5794     0EF4  01D7               	clrf	login@j
  5795     0EF5  01D8               	clrf	login@j+1
  5796     0EF6                     l4507:
  5797                           
  5798                           ;car_bb.c: 146:         {;car_bb.c: 147:             spassword[j] = eeprom_at24c04_rando
      +                          m_read(j);
  5799     0EF6  1283               	bcf	3,5	;RP0=0, select bank0
  5800     0EF7  1303               	bcf	3,6	;RP1=0, select bank0
  5801     0EF8  0857               	movf	login@j,w
  5802     0EF9  3E52               	addlw	(low (login@spassword| 0))& (0+255)
  5803     0EFA  0084               	movwf	4
  5804     0EFB  0857               	movf	login@j,w
  5805     0EFC  160A  118A  248A  120A  158A  	fcall	_eeprom_at24c04_random_read
  5806     0F01  1383               	bcf	3,7	;select IRP bank0
  5807     0F02  0080               	movwf	0
  5808     0F03                     l4509:
  5809                           
  5810                           ;car_bb.c: 148:         }
  5811     0F03  3001               	movlw	1
  5812     0F04  1283               	bcf	3,5	;RP0=0, select bank0
  5813     0F05  1303               	bcf	3,6	;RP1=0, select bank0
  5814     0F06  07D7               	addwf	login@j,f
  5815     0F07  1803               	skipnc
  5816     0F08  0AD8               	incf	login@j+1,f
  5817     0F09  3000               	movlw	0
  5818     0F0A  07D8               	addwf	login@j+1,f
  5819     0F0B                     l4511:
  5820     0F0B  0858               	movf	login@j+1,w
  5821     0F0C  3A80               	xorlw	128
  5822     0F0D  00FF               	movwf	btemp+1
  5823     0F0E  3080               	movlw	128
  5824     0F0F  027F               	subwf	btemp+1,w
  5825     0F10  1D03               	skipz
  5826     0F11  2F14               	goto	u3875
  5827     0F12  3004               	movlw	4
  5828     0F13  0257               	subwf	login@j,w
  5829     0F14                     u3875:
  5830     0F14  1C03               	skipc
  5831     0F15  2F17               	goto	u3871
  5832     0F16  2F18               	goto	u3870
  5833     0F17                     u3871:
  5834     0F17  2EF6               	goto	l4507
  5835     0F18                     u3870:
  5836     0F18                     l4513:
  5837                           
  5838                           ;car_bb.c: 150:         if(strncmp(spassword, npassword, 4) == 0)
  5839     0F18  3041               	movlw	(low (login@npassword| 0))& (0+255)
  5840     0F19  00F2               	movwf	strncmp@s2
  5841     0F1A  3004               	movlw	4
  5842     0F1B  00F3               	movwf	strncmp@len
  5843     0F1C  3000               	movlw	0
  5844     0F1D  00F4               	movwf	strncmp@len+1
  5845     0F1E  3052               	movlw	(low (login@spassword| 0))& (0+255)
  5846     0F1F  160A  118A  25F6  120A  158A  	fcall	_strncmp
  5847     0F24  0872               	movf	?_strncmp,w
  5848     0F25  0473               	iorwf	?_strncmp+1,w
  5849     0F26  1D03               	btfss	3,2
  5850     0F27  2F29               	goto	u3881
  5851     0F28  2F2A               	goto	u3880
  5852     0F29                     u3881:
  5853     0F29  2F2C               	goto	l4521
  5854     0F2A                     u3880:
  5855     0F2A                     l4515:
  5856                           
  5857                           ;car_bb.c: 151:         {;car_bb.c: 152:             return 0x0B;
  5858     0F2A  300B               	movlw	11
  5859     0F2B  2FFF               	goto	l318
  5860     0F2C                     l4521:
  5861                           
  5862                           ;car_bb.c: 155:         {;car_bb.c: 156:             attempts_rem--;
  5863     0F2C  3001               	movlw	1
  5864     0F2D  1283               	bcf	3,5	;RP0=0, select bank0
  5865     0F2E  1303               	bcf	3,6	;RP1=0, select bank0
  5866     0F2F  02E4               	subwf	login@attempts_rem,f
  5867                           
  5868                           ;car_bb.c: 157:             if(attempts_rem == 0)
  5869     0F30  0864               	movf	login@attempts_rem,w
  5870     0F31  1D03               	btfss	3,2
  5871     0F32  2F34               	goto	u3891
  5872     0F33  2F35               	goto	u3890
  5873     0F34                     u3891:
  5874     0F34  2F9F               	goto	l4539
  5875     0F35                     u3890:
  5876     0F35                     l4523:
  5877                           
  5878                           ;car_bb.c: 158:             {;car_bb.c: 160:                 min = 15;
  5879     0F35  300F               	movlw	15
  5880     0F36  00B8               	movwf	_min
  5881     0F37                     l4525:
  5882                           
  5883                           ;car_bb.c: 161:                 clear_screen();
  5884     0F37  160A  118A  2288  120A  158A  	fcall	_clear_screen
  5885     0F3C                     l4527:
  5886                           
  5887                           ;car_bb.c: 162:                 clcd_write(0x0C, 0);
  5888     0F3C  01F2               	clrf	clcd_write@mode
  5889     0F3D  300C               	movlw	12
  5890     0F3E  160A  118A  2332  120A  158A  	fcall	_clcd_write
  5891                           
  5892                           ;car_bb.c: 163:                 _delay((unsigned long)((100)*(20000000/4000000.0)));
  5893     0F43  30A5               	movlw	165
  5894     0F44  1283               	bcf	3,5	;RP0=0, select bank0
  5895     0F45  1303               	bcf	3,6	;RP1=0, select bank0
  5896     0F46  00CF               	movwf	??_login
  5897     0F47                     u4607:
  5898     0F47  0BCF               	decfsz	??_login,f
  5899     0F48  2F47               	goto	u4607
  5900     0F49  2F4A               	nop2
  5901     0F4A                     l4529:
  5902                           
  5903                           ;car_bb.c: 164:                 clcd_print(" You are blocked", (0x80 + 0));
  5904     0F4A  306D               	movlw	low (STR_19| (0+32768))
  5905     0F4B  00F6               	movwf	clcd_print@str
  5906     0F4C  3087               	movlw	high (STR_19| (0+32768))
  5907     0F4D  00F7               	movwf	clcd_print@str+1
  5908     0F4E  3080               	movlw	128
  5909     0F4F  00F8               	movwf	clcd_print@addr
  5910     0F50  160A  118A  24B5  120A  158A  	fcall	_clcd_print
  5911     0F55                     l4531:
  5912                           
  5913                           ;car_bb.c: 165:                 clcd_print("Wait for...  min", (0xC0 + 0));
  5914     0F55  30A0               	movlw	low (STR_20| (0+32768))
  5915     0F56  00F6               	movwf	clcd_print@str
  5916     0F57  3087               	movlw	high (STR_20| (0+32768))
  5917     0F58  00F7               	movwf	clcd_print@str+1
  5918     0F59  30C0               	movlw	192
  5919     0F5A  00F8               	movwf	clcd_print@addr
  5920     0F5B  160A  118A  24B5  120A  158A  	fcall	_clcd_print
  5921                           
  5922                           ;car_bb.c: 166:                 while(min)
  5923     0F60  2F95               	goto	l4535
  5924     0F61                     l4533:
  5925                           
  5926                           ;car_bb.c: 167:                 {;car_bb.c: 168:                     clcd_putch((min / 1
      +                          0) + '0', (0xC0 + 11));
  5927     0F61  30CB               	movlw	203
  5928     0F62  00CC               	movwf	clcd_putch@addr
  5929     0F63  300A               	movlw	10
  5930     0F64  00F2               	movwf	___awdiv@divisor
  5931     0F65  3000               	movlw	0
  5932     0F66  00F3               	movwf	___awdiv@divisor+1
  5933     0F67  0838               	movf	_min,w
  5934     0F68  00CF               	movwf	??_login
  5935     0F69  01D0               	clrf	??_login+1
  5936     0F6A  084F               	movf	??_login,w
  5937     0F6B  00F4               	movwf	___awdiv@dividend
  5938     0F6C  0850               	movf	??_login+1,w
  5939     0F6D  00F5               	movwf	___awdiv@dividend+1
  5940     0F6E  120A  158A  2216  120A  158A  	fcall	___awdiv
  5941     0F73  0872               	movf	?___awdiv,w
  5942     0F74  3E30               	addlw	48
  5943     0F75  160A  118A  22D1  120A  158A  	fcall	_clcd_putch
  5944                           
  5945                           ;car_bb.c: 169:                     clcd_putch((min % 10) + '0', (0xC0 + 12));
  5946     0F7A  30CC               	movlw	204
  5947     0F7B  1283               	bcf	3,5	;RP0=0, select bank0
  5948     0F7C  1303               	bcf	3,6	;RP1=0, select bank0
  5949     0F7D  00CC               	movwf	clcd_putch@addr
  5950     0F7E  300A               	movlw	10
  5951     0F7F  00F2               	movwf	___awmod@divisor
  5952     0F80  3000               	movlw	0
  5953     0F81  00F3               	movwf	___awmod@divisor+1
  5954     0F82  0838               	movf	_min,w
  5955     0F83  00CF               	movwf	??_login
  5956     0F84  01D0               	clrf	??_login+1
  5957     0F85  084F               	movf	??_login,w
  5958     0F86  00F4               	movwf	___awmod@dividend
  5959     0F87  0850               	movf	??_login+1,w
  5960     0F88  00F5               	movwf	___awmod@dividend+1
  5961     0F89  120A  158A  2155  120A  158A  	fcall	___awmod
  5962     0F8E  0872               	movf	?___awmod,w
  5963     0F8F  3E30               	addlw	48
  5964     0F90  160A  118A  22D1  120A  158A  	fcall	_clcd_putch
  5965     0F95                     l4535:
  5966                           
  5967                           ;car_bb.c: 166:                 while(min)
  5968     0F95  1283               	bcf	3,5	;RP0=0, select bank0
  5969     0F96  1303               	bcf	3,6	;RP1=0, select bank0
  5970     0F97  0838               	movf	_min,w
  5971     0F98  1D03               	btfss	3,2
  5972     0F99  2F9B               	goto	u3901
  5973     0F9A  2F9C               	goto	u3900
  5974     0F9B                     u3901:
  5975     0F9B  2F61               	goto	l4533
  5976     0F9C                     u3900:
  5977     0F9C                     l4537:
  5978                           
  5979                           ;car_bb.c: 171:                 attempts_rem = 3;
  5980     0F9C  3003               	movlw	3
  5981     0F9D  00E4               	movwf	login@attempts_rem
  5982                           
  5983                           ;car_bb.c: 173:             }
  5984     0F9E  2FD4               	goto	l4547
  5985     0F9F                     l4539:
  5986                           
  5987                           ;car_bb.c: 176:             {;car_bb.c: 177:                 clear_screen();
  5988     0F9F  160A  118A  2288  120A  158A  	fcall	_clear_screen
  5989     0FA4                     l4541:
  5990                           
  5991                           ;car_bb.c: 178:                 clcd_print("Wrong Password", (0x80 + 0));
  5992     0FA4  30E1               	movlw	low (STR_21| (0+32768))
  5993     0FA5  00F6               	movwf	clcd_print@str
  5994     0FA6  3087               	movlw	high (STR_21| (0+32768))
  5995     0FA7  00F7               	movwf	clcd_print@str+1
  5996     0FA8  3080               	movlw	128
  5997     0FA9  00F8               	movwf	clcd_print@addr
  5998     0FAA  160A  118A  24B5  120A  158A  	fcall	_clcd_print
  5999     0FAF                     l4543:
  6000                           
  6001                           ;car_bb.c: 179:                 clcd_putch(attempts_rem + '0', (0xC0 + 0));
  6002     0FAF  30C0               	movlw	192
  6003     0FB0  1283               	bcf	3,5	;RP0=0, select bank0
  6004     0FB1  1303               	bcf	3,6	;RP1=0, select bank0
  6005     0FB2  00CC               	movwf	clcd_putch@addr
  6006     0FB3  0864               	movf	login@attempts_rem,w
  6007     0FB4  3E30               	addlw	48
  6008     0FB5  160A  118A  22D1  120A  158A  	fcall	_clcd_putch
  6009                           
  6010                           ;car_bb.c: 180:                 clcd_print(" Attempt remain", (0xC0 + 1));
  6011     0FBA  30C1               	movlw	low (STR_22| (0+32768))
  6012     0FBB  00F6               	movwf	clcd_print@str
  6013     0FBC  3087               	movlw	high (STR_22| (0+32768))
  6014     0FBD  00F7               	movwf	clcd_print@str+1
  6015     0FBE  30C1               	movlw	193
  6016     0FBF  00F8               	movwf	clcd_print@addr
  6017     0FC0  160A  118A  24B5  120A  158A  	fcall	_clcd_print
  6018     0FC5                     l4545:
  6019                           
  6020                           ;car_bb.c: 181:                 _delay((unsigned long)((4000)*(20000000/4000.0)));
  6021     0FC5  3066               	movlw	102
  6022     0FC6  1283               	bcf	3,5	;RP0=0, select bank0
  6023     0FC7  1303               	bcf	3,6	;RP1=0, select bank0
  6024     0FC8  00D1               	movwf	??_login+2
  6025     0FC9  3076               	movlw	118
  6026     0FCA  00D0               	movwf	??_login+1
  6027     0FCB  30C0               	movlw	192
  6028     0FCC  00CF               	movwf	??_login
  6029     0FCD                     u4617:
  6030     0FCD  0BCF               	decfsz	??_login,f
  6031     0FCE  2FCD               	goto	u4617
  6032     0FCF  0BD0               	decfsz	??_login+1,f
  6033     0FD0  2FCD               	goto	u4617
  6034     0FD1  0BD1               	decfsz	??_login+2,f
  6035     0FD2  2FCD               	goto	u4617
  6036     0FD3  0000               	nop
  6037     0FD4                     l4547:
  6038                           
  6039                           ;car_bb.c: 183:             clear_screen();
  6040     0FD4  160A  118A  2288  120A  158A  	fcall	_clear_screen
  6041     0FD9                     l4549:
  6042                           
  6043                           ;car_bb.c: 184:             clcd_print(" Enter Password",(0x80 + 0));
  6044     0FD9  30D1               	movlw	low (STR_9| (0+32768))
  6045     0FDA  00F6               	movwf	clcd_print@str
  6046     0FDB  3087               	movlw	high (STR_9| (0+32768))
  6047     0FDC  00F7               	movwf	clcd_print@str+1
  6048     0FDD  3080               	movlw	128
  6049     0FDE  00F8               	movwf	clcd_print@addr
  6050     0FDF  160A  118A  24B5  120A  158A  	fcall	_clcd_print
  6051     0FE4                     l4551:
  6052                           
  6053                           ;car_bb.c: 185:             i = 0;
  6054     0FE4  1283               	bcf	3,5	;RP0=0, select bank0
  6055     0FE5  1303               	bcf	3,6	;RP1=0, select bank0
  6056     0FE6  01B6               	clrf	login@i
  6057     0FE7                     l4553:
  6058                           
  6059                           ;car_bb.c: 186:             return_time = 5;
  6060     0FE7  3005               	movlw	5
  6061     0FE8  00E5               	movwf	_return_time
  6062     0FE9                     l4555:
  6063                           
  6064                           ;car_bb.c: 187:             clcd_write(0xC6, 0);
  6065     0FE9  01F2               	clrf	clcd_write@mode
  6066     0FEA  30C6               	movlw	198
  6067     0FEB  160A  118A  2332  120A  158A  	fcall	_clcd_write
  6068     0FF0                     l4557:
  6069                           
  6070                           ;car_bb.c: 188:             clcd_write(0x0F, 0);
  6071     0FF0  01F2               	clrf	clcd_write@mode
  6072     0FF1  300F               	movlw	15
  6073     0FF2  160A  118A  2332  120A  158A  	fcall	_clcd_write
  6074     0FF7                     l4559:
  6075                           
  6076                           ;car_bb.c: 189:             _delay((unsigned long)((100)*(20000000/4000000.0)));
  6077     0FF7  30A5               	movlw	165
  6078     0FF8  1283               	bcf	3,5	;RP0=0, select bank0
  6079     0FF9  1303               	bcf	3,6	;RP1=0, select bank0
  6080     0FFA  00CF               	movwf	??_login
  6081     0FFB                     u4627:
  6082     0FFB  0BCF               	decfsz	??_login,f
  6083     0FFC  2FFB               	goto	u4627
  6084     0FFD  2FFE               	nop2
  6085     0FFE                     l4561:
  6086                           
  6087                           ;car_bb.c: 192:     return 0xFF;
  6088     0FFE  30FF               	movlw	255
  6089     0FFF                     l318:
  6090     0FFF  0008               	return
  6091     1000                     __end_of_login:
  6092                           
  6093                           	psect	text11
  6094     08FD                     __ptext11:	
  6095 ;; *************** function _log_car_event *****************
  6096 ;; Defined at:
  6097 ;;		line 84 in file "car_bb.c"
  6098 ;; Parameters:    Size  Location     Type
  6099 ;;  event           2    4[BANK0 ] PTR unsigned char 
  6100 ;;		 -> STR_12(3), STR_11(3), main@event(3), 
  6101 ;;  speed           1    6[BANK0 ] unsigned char 
  6102 ;; Auto vars:     Size  Location     Type
  6103 ;;		None
  6104 ;; Return value:  Size  Location     Type
  6105 ;;                  1    wreg      void 
  6106 ;; Registers used:
  6107 ;;		wreg, fsr0l, fsr0h, status,2, status,0, btemp+1, pclath, cstack
  6108 ;; Tracked objects:
  6109 ;;		On entry : 0/0
  6110 ;;		On exit  : 0/0
  6111 ;;		Unchanged: 0/0
  6112 ;; Data sizes:     COMMON   BANK0   BANK1   BANK3   BANK2
  6113 ;;      Params:         0       3       0       0       0
  6114 ;;      Locals:         0       0       0       0       0
  6115 ;;      Temps:          0       2       0       0       0
  6116 ;;      Totals:         0       5       0       0       0
  6117 ;;Total ram usage:        5 bytes
  6118 ;; Hardware stack levels used: 1
  6119 ;; Hardware stack levels required when called: 6
  6120 ;; This function calls:
  6121 ;;		___awdiv
  6122 ;;		___awmod
  6123 ;;		_get_time
  6124 ;;		_log_event
  6125 ;;		_strncpy
  6126 ;; This function is called by:
  6127 ;;		_main
  6128 ;; This function uses a non-reentrant model
  6129 ;;
  6130                           
  6131     08FD                     _log_car_event:	
  6132                           ;psect for function _log_car_event
  6133                           
  6134     08FD                     l4399:	
  6135                           ;incstack = 0
  6136                           ; Regs used in _log_car_event: [wreg-fsr0h+status,2+status,0+btemp+1+pclath+cstack]
  6137                           
  6138                           
  6139                           ;car_bb.c: 84: void log_car_event(char event[],unsigned char speed);car_bb.c: 85: {;car_
      +                          bb.c: 87:     get_time();
  6140     08FD  160A  118A  270A  120A  158A  	fcall	_get_time
  6141     0902                     l4401:
  6142                           
  6143                           ;car_bb.c: 88:     strncpy(log, time, 6);
  6144     0902  303A               	movlw	(low (_time| 0))& (0+255)
  6145     0903  00F2               	movwf	strncpy@from
  6146     0904  3000               	movlw	0
  6147     0905  00F3               	movwf	strncpy@from+1
  6148     0906  3006               	movlw	6
  6149     0907  00F4               	movwf	strncpy@size
  6150     0908  3000               	movlw	0
  6151     0909  00F5               	movwf	strncpy@size+1
  6152     090A  30B9               	movlw	(low (_log| 0))& (0+255)
  6153     090B  160A  118A  26C2  120A  158A  	fcall	_strncpy
  6154     0910                     l4403:
  6155                           
  6156                           ;car_bb.c: 89:     strncpy(&log[6], event, 2);
  6157     0910  1283               	bcf	3,5	;RP0=0, select bank0
  6158     0911  1303               	bcf	3,6	;RP1=0, select bank0
  6159     0912  0849               	movf	log_car_event@event,w
  6160     0913  00F2               	movwf	strncpy@from
  6161     0914  084A               	movf	log_car_event@event+1,w
  6162     0915  00F3               	movwf	strncpy@from+1
  6163     0916  3002               	movlw	2
  6164     0917  00F4               	movwf	strncpy@size
  6165     0918  3000               	movlw	0
  6166     0919  00F5               	movwf	strncpy@size+1
  6167     091A  30BF               	movlw	(low ((_log| 0+6)))& (0+255)
  6168     091B  160A  118A  26C2  120A  158A  	fcall	_strncpy
  6169                           
  6170                           ;car_bb.c: 90:     log[8] = (speed / 10) + '0';
  6171     0920  300A               	movlw	10
  6172     0921  00F2               	movwf	___awdiv@divisor
  6173     0922  3000               	movlw	0
  6174     0923  00F3               	movwf	___awdiv@divisor+1
  6175     0924  1283               	bcf	3,5	;RP0=0, select bank0
  6176     0925  1303               	bcf	3,6	;RP1=0, select bank0
  6177     0926  084B               	movf	log_car_event@speed,w
  6178     0927  00CC               	movwf	??_log_car_event
  6179     0928  01CD               	clrf	??_log_car_event+1
  6180     0929  084C               	movf	??_log_car_event,w
  6181     092A  00F4               	movwf	___awdiv@dividend
  6182     092B  084D               	movf	??_log_car_event+1,w
  6183     092C  00F5               	movwf	___awdiv@dividend+1
  6184     092D  120A  158A  2216  120A  158A  	fcall	___awdiv
  6185     0932  0872               	movf	?___awdiv,w
  6186     0933  3E30               	addlw	48
  6187     0934  1683               	bsf	3,5	;RP0=1, select bank1
  6188     0935  1303               	bcf	3,6	;RP1=0, select bank1
  6189     0936  00C1               	movwf	(_log^(0+128)+8)
  6190                           
  6191                           ;car_bb.c: 91:     log[8] = (speed % 10) + '0';
  6192     0937  300A               	movlw	10
  6193     0938  00F2               	movwf	___awmod@divisor
  6194     0939  3000               	movlw	0
  6195     093A  00F3               	movwf	___awmod@divisor+1
  6196     093B  1283               	bcf	3,5	;RP0=0, select bank0
  6197     093C  1303               	bcf	3,6	;RP1=0, select bank0
  6198     093D  084B               	movf	log_car_event@speed,w
  6199     093E  00CC               	movwf	??_log_car_event
  6200     093F  01CD               	clrf	??_log_car_event+1
  6201     0940  084C               	movf	??_log_car_event,w
  6202     0941  00F4               	movwf	___awmod@dividend
  6203     0942  084D               	movf	??_log_car_event+1,w
  6204     0943  00F5               	movwf	___awmod@dividend+1
  6205     0944  120A  158A  2155  120A  158A  	fcall	___awmod
  6206     0949  0872               	movf	?___awmod,w
  6207     094A  3E30               	addlw	48
  6208     094B  1683               	bsf	3,5	;RP0=1, select bank1
  6209     094C  1303               	bcf	3,6	;RP1=0, select bank1
  6210     094D  00C1               	movwf	(_log^(0+128)+8)
  6211     094E                     l4405:
  6212                           
  6213                           ;car_bb.c: 92:     log[10] = '\0';
  6214     094E  01C3               	clrf	(_log^(0+128)+10)
  6215     094F                     l4407:
  6216                           
  6217                           ;car_bb.c: 93:     log_event();
  6218     094F  160A  118A  25B9  120A  158A  	fcall	_log_event
  6219     0954                     l304:
  6220     0954  0008               	return
  6221     0955                     __end_of_log_car_event:
  6222                           
  6223                           	psect	text12
  6224     15B9                     __ptext12:	
  6225 ;; *************** function _log_event *****************
  6226 ;; Defined at:
  6227 ;;		line 63 in file "car_bb.c"
  6228 ;; Parameters:    Size  Location     Type
  6229 ;;		None
  6230 ;; Auto vars:     Size  Location     Type
  6231 ;;  addr            1    3[BANK0 ] unsigned char 
  6232 ;; Return value:  Size  Location     Type
  6233 ;;                  1    wreg      void 
  6234 ;; Registers used:
  6235 ;;		wreg, fsr0l, fsr0h, status,2, status,0, btemp+1, pclath, cstack
  6236 ;; Tracked objects:
  6237 ;;		On entry : 0/0
  6238 ;;		On exit  : 0/0
  6239 ;;		Unchanged: 0/0
  6240 ;; Data sizes:     COMMON   BANK0   BANK1   BANK3   BANK2
  6241 ;;      Params:         0       0       0       0       0
  6242 ;;      Locals:         0       1       0       0       0
  6243 ;;      Temps:          0       1       0       0       0
  6244 ;;      Totals:         0       2       0       0       0
  6245 ;;Total ram usage:        2 bytes
  6246 ;; Hardware stack levels used: 1
  6247 ;; Hardware stack levels required when called: 5
  6248 ;; This function calls:
  6249 ;;		___bmul
  6250 ;;		_eeprom_at24c04_str_write
  6251 ;; This function is called by:
  6252 ;;		_log_car_event
  6253 ;; This function uses a non-reentrant model
  6254 ;;
  6255                           
  6256     15B9                     _log_event:	
  6257                           ;psect for function _log_event
  6258                           
  6259     15B9                     l4153:	
  6260                           ;incstack = 0
  6261                           ; Regs used in _log_event: [wreg-fsr0h+status,2+status,0+btemp+1+pclath+cstack]
  6262                           
  6263     15B9                     l4155:
  6264                           
  6265                           ;car_bb.c: 66:     pos++;
  6266     15B9  3001               	movlw	1
  6267     15BA  1283               	bcf	3,5	;RP0=0, select bank0
  6268     15BB  1303               	bcf	3,6	;RP1=0, select bank0
  6269     15BC  00C7               	movwf	??_log_event
  6270     15BD  0847               	movf	??_log_event,w
  6271     15BE  07E6               	addwf	_pos,f
  6272     15BF                     l4157:
  6273                           
  6274                           ;car_bb.c: 67:     if(pos == 10)
  6275     15BF  300A               	movlw	10
  6276     15C0  0666               	xorwf	_pos,w
  6277     15C1  1D03               	btfss	3,2
  6278     15C2  2DC4               	goto	u3291
  6279     15C3  2DC5               	goto	u3290
  6280     15C4                     u3291:
  6281     15C4  2DC8               	goto	l4163
  6282     15C5                     u3290:
  6283     15C5                     l4159:
  6284                           
  6285                           ;car_bb.c: 68:     {;car_bb.c: 69:         pos = 0;
  6286     15C5  01E6               	clrf	_pos
  6287     15C6                     l4161:
  6288                           
  6289                           ;car_bb.c: 71:         overflow =1;
  6290     15C6  01B7               	clrf	_overflow
  6291     15C7  0AB7               	incf	_overflow,f
  6292     15C8                     l4163:
  6293                           
  6294                           ;car_bb.c: 74:     addr = pos * 10 + 5;
  6295     15C8  300A               	movlw	10
  6296     15C9  00F2               	movwf	___bmul@multiplicand
  6297     15CA  0866               	movf	_pos,w
  6298     15CB  160A  118A  22E6  160A  118A  	fcall	___bmul
  6299     15D0  3E05               	addlw	5
  6300     15D1  1283               	bcf	3,5	;RP0=0, select bank0
  6301     15D2  1303               	bcf	3,6	;RP1=0, select bank0
  6302     15D3  00C8               	movwf	log_event@addr
  6303     15D4                     l4165:
  6304                           
  6305                           ;car_bb.c: 75:     eeprom_at24c04_str_write(addr, log);
  6306     15D4  30B9               	movlw	(low (_log| 0))& (0+255)
  6307     15D5  00F7               	movwf	eeprom_at24c04_str_write@data
  6308     15D6  3000               	movlw	0
  6309     15D7  00F8               	movwf	eeprom_at24c04_str_write@data+1
  6310     15D8  0848               	movf	log_event@addr,w
  6311     15D9  160A  118A  24E4  160A  118A  	fcall	_eeprom_at24c04_str_write
  6312     15DE                     l4167:
  6313                           
  6314                           ;car_bb.c: 78:     if(event_count < 9)
  6315     15DE  1283               	bcf	3,5	;RP0=0, select bank0
  6316     15DF  1303               	bcf	3,6	;RP1=0, select bank0
  6317     15E0  082F               	movf	_event_count+1,w
  6318     15E1  3A80               	xorlw	128
  6319     15E2  00FF               	movwf	btemp+1
  6320     15E3  3080               	movlw	128
  6321     15E4  027F               	subwf	btemp+1,w
  6322     15E5  1D03               	skipz
  6323     15E6  2DE9               	goto	u3305
  6324     15E7  3009               	movlw	9
  6325     15E8  022E               	subwf	_event_count,w
  6326     15E9                     u3305:
  6327     15E9  1803               	skipnc
  6328     15EA  2DEC               	goto	u3301
  6329     15EB  2DED               	goto	u3300
  6330     15EC                     u3301:
  6331     15EC  2DF5               	goto	l301
  6332     15ED                     u3300:
  6333     15ED                     l4169:
  6334                           
  6335                           ;car_bb.c: 79:     {;car_bb.c: 80:         event_count++;
  6336     15ED  3001               	movlw	1
  6337     15EE  1283               	bcf	3,5	;RP0=0, select bank0
  6338     15EF  1303               	bcf	3,6	;RP1=0, select bank0
  6339     15F0  07AE               	addwf	_event_count,f
  6340     15F1  1803               	skipnc
  6341     15F2  0AAF               	incf	_event_count+1,f
  6342     15F3  3000               	movlw	0
  6343     15F4  07AF               	addwf	_event_count+1,f
  6344     15F5                     l301:
  6345     15F5  0008               	return
  6346     15F6                     __end_of_log_event:
  6347                           
  6348                           	psect	text13
  6349     1545                     __ptext13:	
  6350 ;; *************** function _init_config *****************
  6351 ;; Defined at:
  6352 ;;		line 16 in file "main.c"
  6353 ;; Parameters:    Size  Location     Type
  6354 ;;		None
  6355 ;; Auto vars:     Size  Location     Type
  6356 ;;		None
  6357 ;; Return value:  Size  Location     Type
  6358 ;;                  1    wreg      void 
  6359 ;; Registers used:
  6360 ;;		wreg, status,2, status,0, pclath, cstack
  6361 ;; Tracked objects:
  6362 ;;		On entry : 0/0
  6363 ;;		On exit  : 0/0
  6364 ;;		Unchanged: 0/0
  6365 ;; Data sizes:     COMMON   BANK0   BANK1   BANK3   BANK2
  6366 ;;      Params:         0       0       0       0       0
  6367 ;;      Locals:         0       0       0       0       0
  6368 ;;      Temps:          0       0       0       0       0
  6369 ;;      Totals:         0       0       0       0       0
  6370 ;;Total ram usage:        0 bytes
  6371 ;; Hardware stack levels used: 1
  6372 ;; Hardware stack levels required when called: 6
  6373 ;; This function calls:
  6374 ;;		_init_adc
  6375 ;;		_init_clcd
  6376 ;;		_init_digital_keypad
  6377 ;;		_init_ds1307
  6378 ;;		_init_i2c
  6379 ;;		_init_timer2
  6380 ;;		_init_uart
  6381 ;; This function is called by:
  6382 ;;		_main
  6383 ;; This function uses a non-reentrant model
  6384 ;;
  6385                           
  6386     1545                     _init_config:	
  6387                           ;psect for function _init_config
  6388                           
  6389     1545                     l4381:	
  6390                           ;incstack = 0
  6391                           ; Regs used in _init_config: [wreg+status,2+status,0+pclath+cstack]
  6392                           
  6393                           
  6394                           ;main.c: 18:     unsigned char control_flag = 0x01, reset_flag;
  6395     1545  160A  118A  2270  160A  118A  	fcall	_init_clcd
  6396     154A                     l4383:
  6397                           
  6398                           ;main.c: 19:     unsigned char event[3] = {"ON"};
  6399     154A  160A  118A  222E  160A  118A  	fcall	_init_adc
  6400     154F                     l4385:
  6401                           
  6402                           ;main.c: 20:     unsigned char speed = 0, key, gr = 0;
  6403     154F  3000               	movlw	0
  6404     1550  1283               	bcf	3,5	;RP0=0, select bank0
  6405     1551  1303               	bcf	3,6	;RP1=0, select bank0
  6406     1552  00D0               	movwf	init_i2c@baud+3
  6407     1553  3001               	movlw	1
  6408     1554  00CF               	movwf	init_i2c@baud+2
  6409     1555  3086               	movlw	134
  6410     1556  00CE               	movwf	init_i2c@baud+1
  6411     1557  30A0               	movlw	160
  6412     1558  00CD               	movwf	init_i2c@baud
  6413     1559  120A  118A  26CC  160A  118A  	fcall	_init_i2c
  6414     155E                     l4387:
  6415                           
  6416                           ;main.c: 21:     unsigned long int wait_time = 0;
  6417     155E  160A  118A  22AB  160A  118A  	fcall	_init_ds1307
  6418     1563                     l4389:
  6419                           
  6420                           ;main.c: 22:     init_config();
  6421     1563  160A  118A  2228  160A  118A  	fcall	_init_digital_keypad
  6422     1568                     l4391:
  6423                           
  6424                           ;main.c: 23: 
  6425     1568  120A  158A  2099  160A  118A  	fcall	_init_timer2
  6426     156D                     l4393:
  6427                           
  6428                           ;main.c: 24: 
  6429     156D  3000               	movlw	0
  6430     156E  1283               	bcf	3,5	;RP0=0, select bank0
  6431     156F  1303               	bcf	3,6	;RP1=0, select bank0
  6432     1570  00D0               	movwf	init_uart@baud+3
  6433     1571  3000               	movlw	0
  6434     1572  00CF               	movwf	init_uart@baud+2
  6435     1573  3025               	movlw	37
  6436     1574  00CE               	movwf	init_uart@baud+1
  6437     1575  3080               	movlw	128
  6438     1576  00CD               	movwf	init_uart@baud
  6439     1577  160A  118A  2513  160A  118A  	fcall	_init_uart
  6440     157C                     l4395:
  6441                           
  6442                           ;main.c: 26:     log_car_event(event, speed);
  6443     157C  178B               	bsf	11,7	;volatile
  6444     157D                     l4397:
  6445                           
  6446                           ;main.c: 27:     while (1) {
  6447     157D  170B               	bsf	11,6	;volatile
  6448     157E                     l189:
  6449     157E  0008               	return
  6450     157F                     __end_of_init_config:
  6451                           
  6452                           	psect	text14
  6453     1513                     __ptext14:	
  6454 ;; *************** function _init_uart *****************
  6455 ;; Defined at:
  6456 ;;		line 10 in file "uart.c"
  6457 ;; Parameters:    Size  Location     Type
  6458 ;;  baud            4    8[BANK0 ] unsigned long 
  6459 ;; Auto vars:     Size  Location     Type
  6460 ;;		None
  6461 ;; Return value:  Size  Location     Type
  6462 ;;                  1    wreg      void 
  6463 ;; Registers used:
  6464 ;;		wreg, status,2, status,0, pclath, cstack
  6465 ;; Tracked objects:
  6466 ;;		On entry : 0/0
  6467 ;;		On exit  : 0/0
  6468 ;;		Unchanged: 0/0
  6469 ;; Data sizes:     COMMON   BANK0   BANK1   BANK3   BANK2
  6470 ;;      Params:         0       4       0       0       0
  6471 ;;      Locals:         0       0       0       0       0
  6472 ;;      Temps:          0       4       0       0       0
  6473 ;;      Totals:         0       8       0       0       0
  6474 ;;Total ram usage:        8 bytes
  6475 ;; Hardware stack levels used: 1
  6476 ;; Hardware stack levels required when called: 2
  6477 ;; This function calls:
  6478 ;;		___lldiv
  6479 ;; This function is called by:
  6480 ;;		_init_config
  6481 ;; This function uses a non-reentrant model
  6482 ;;
  6483                           
  6484     1513                     _init_uart:	
  6485                           ;psect for function _init_uart
  6486                           
  6487     1513                     l4143:	
  6488                           ;incstack = 0
  6489                           ; Regs used in _init_uart: [wreg+status,2+status,0+pclath+cstack]
  6490                           
  6491                           
  6492                           ;uart.c: 10: void init_uart(unsigned long baud);uart.c: 11: {;uart.c: 13:     SPEN = 1;
  6493     1513  1283               	bcf	3,5	;RP0=0, select bank0
  6494     1514  1303               	bcf	3,6	;RP1=0, select bank0
  6495     1515  1798               	bsf	24,7	;volatile
  6496                           
  6497                           ;uart.c: 16:     CREN = 1;
  6498     1516  1618               	bsf	24,4	;volatile
  6499     1517                     l4145:
  6500                           
  6501                           ;uart.c: 19:     SPBRG = (20000000 / (16 * baud)) - 1;
  6502     1517  084D               	movf	init_uart@baud,w
  6503     1518  00D1               	movwf	??_init_uart
  6504     1519  084E               	movf	init_uart@baud+1,w
  6505     151A  00D2               	movwf	??_init_uart+1
  6506     151B  084F               	movf	init_uart@baud+2,w
  6507     151C  00D3               	movwf	??_init_uart+2
  6508     151D  0850               	movf	init_uart@baud+3,w
  6509     151E  00D4               	movwf	??_init_uart+3
  6510     151F  3004               	movlw	4
  6511     1520                     u3285:
  6512     1520  1003               	clrc
  6513     1521  0DD1               	rlf	??_init_uart,f
  6514     1522  0DD2               	rlf	??_init_uart+1,f
  6515     1523  0DD3               	rlf	??_init_uart+2,f
  6516     1524  0DD4               	rlf	??_init_uart+3,f
  6517     1525                     u3280:
  6518     1525  3EFF               	addlw	-1
  6519     1526  1D03               	skipz
  6520     1527  2D20               	goto	u3285
  6521     1528  0854               	movf	??_init_uart+3,w
  6522     1529  00C8               	movwf	___lldiv@divisor+3
  6523     152A  0853               	movf	??_init_uart+2,w
  6524     152B  00C7               	movwf	___lldiv@divisor+2
  6525     152C  0852               	movf	??_init_uart+1,w
  6526     152D  00C6               	movwf	___lldiv@divisor+1
  6527     152E  0851               	movf	??_init_uart,w
  6528     152F  00C5               	movwf	___lldiv@divisor
  6529     1530  3001               	movlw	1
  6530     1531  00CC               	movwf	___lldiv@dividend+3
  6531     1532  3031               	movlw	49
  6532     1533  00CB               	movwf	___lldiv@dividend+2
  6533     1534  302D               	movlw	45
  6534     1535  00CA               	movwf	___lldiv@dividend+1
  6535     1536  3000               	movlw	0
  6536     1537  00C9               	movwf	___lldiv@dividend
  6537     1538  120A  158A  21AE  160A  118A  	fcall	___lldiv
  6538     153D  1283               	bcf	3,5	;RP0=0, select bank0
  6539     153E  1303               	bcf	3,6	;RP1=0, select bank0
  6540     153F  0845               	movf	?___lldiv,w
  6541     1540  3EFF               	addlw	255
  6542     1541  1683               	bsf	3,5	;RP0=1, select bank1
  6543     1542  1303               	bcf	3,6	;RP1=0, select bank1
  6544     1543  0099               	movwf	25	;volatile
  6545     1544                     l514:
  6546     1544  0008               	return
  6547     1545                     __end_of_init_uart:
  6548                           
  6549                           	psect	text15
  6550     0899                     __ptext15:	
  6551 ;; *************** function _init_timer2 *****************
  6552 ;; Defined at:
  6553 ;;		line 9 in file "timers.c"
  6554 ;; Parameters:    Size  Location     Type
  6555 ;;		None
  6556 ;; Auto vars:     Size  Location     Type
  6557 ;;		None
  6558 ;; Return value:  Size  Location     Type
  6559 ;;                  1    wreg      void 
  6560 ;; Registers used:
  6561 ;;		wreg
  6562 ;; Tracked objects:
  6563 ;;		On entry : 0/0
  6564 ;;		On exit  : 0/0
  6565 ;;		Unchanged: 0/0
  6566 ;; Data sizes:     COMMON   BANK0   BANK1   BANK3   BANK2
  6567 ;;      Params:         0       0       0       0       0
  6568 ;;      Locals:         0       0       0       0       0
  6569 ;;      Temps:          0       0       0       0       0
  6570 ;;      Totals:         0       0       0       0       0
  6571 ;;Total ram usage:        0 bytes
  6572 ;; Hardware stack levels used: 1
  6573 ;; Hardware stack levels required when called: 1
  6574 ;; This function calls:
  6575 ;;		Nothing
  6576 ;; This function is called by:
  6577 ;;		_init_config
  6578 ;; This function uses a non-reentrant model
  6579 ;;
  6580                           
  6581     0899                     _init_timer2:	
  6582                           ;psect for function _init_timer2
  6583                           
  6584     0899                     l4135:	
  6585                           ;incstack = 0
  6586                           ; Regs used in _init_timer2: [wreg]
  6587                           
  6588                           
  6589                           ;timers.c: 12:     T2CKPS0 = 1;
  6590     0899  1283               	bcf	3,5	;RP0=0, select bank0
  6591     089A  1303               	bcf	3,6	;RP1=0, select bank0
  6592     089B  1412               	bsf	18,0	;volatile
  6593                           
  6594                           ;timers.c: 13:     T2CKPS1 = 1;
  6595     089C  1492               	bsf	18,1	;volatile
  6596     089D                     l4137:
  6597                           
  6598                           ;timers.c: 16:     PR2 = 250;
  6599     089D  30FA               	movlw	250
  6600     089E  1683               	bsf	3,5	;RP0=1, select bank1
  6601     089F  1303               	bcf	3,6	;RP1=0, select bank1
  6602     08A0  0092               	movwf	18	;volatile
  6603     08A1                     l4139:
  6604                           
  6605                           ;timers.c: 19:     TMR2IE = 1;
  6606     08A1  148C               	bsf	12,1	;volatile
  6607     08A2                     l4141:
  6608                           
  6609                           ;timers.c: 22:     TMR2ON = 1;
  6610     08A2  1283               	bcf	3,5	;RP0=0, select bank0
  6611     08A3  1303               	bcf	3,6	;RP1=0, select bank0
  6612     08A4  1512               	bsf	18,2	;volatile
  6613     08A5                     l480:
  6614     08A5  0008               	return
  6615     08A6                     __end_of_init_timer2:
  6616                           
  6617                           	psect	text16
  6618     06CC                     __ptext16:	
  6619 ;; *************** function _init_i2c *****************
  6620 ;; Defined at:
  6621 ;;		line 10 in file "i2c.c"
  6622 ;; Parameters:    Size  Location     Type
  6623 ;;  baud            4    8[BANK0 ] unsigned long 
  6624 ;; Auto vars:     Size  Location     Type
  6625 ;;		None
  6626 ;; Return value:  Size  Location     Type
  6627 ;;                  1    wreg      void 
  6628 ;; Registers used:
  6629 ;;		wreg, status,2, status,0, pclath, cstack
  6630 ;; Tracked objects:
  6631 ;;		On entry : 0/0
  6632 ;;		On exit  : 0/0
  6633 ;;		Unchanged: 0/0
  6634 ;; Data sizes:     COMMON   BANK0   BANK1   BANK3   BANK2
  6635 ;;      Params:         0       4       0       0       0
  6636 ;;      Locals:         0       0       0       0       0
  6637 ;;      Temps:          0       4       0       0       0
  6638 ;;      Totals:         0       8       0       0       0
  6639 ;;Total ram usage:        8 bytes
  6640 ;; Hardware stack levels used: 1
  6641 ;; Hardware stack levels required when called: 2
  6642 ;; This function calls:
  6643 ;;		___lldiv
  6644 ;; This function is called by:
  6645 ;;		_init_config
  6646 ;; This function uses a non-reentrant model
  6647 ;;
  6648                           
  6649     06CC                     _init_i2c:	
  6650                           ;psect for function _init_i2c
  6651                           
  6652     06CC                     l4125:	
  6653                           ;incstack = 0
  6654                           ; Regs used in _init_i2c: [wreg+status,2+status,0+pclath+cstack]
  6655                           
  6656                           
  6657                           ;i2c.c: 10: void init_i2c(unsigned long baud);i2c.c: 11: {;i2c.c: 13:     SSPM3 = 1;
  6658     06CC  1283               	bcf	3,5	;RP0=0, select bank0
  6659     06CD  1303               	bcf	3,6	;RP1=0, select bank0
  6660     06CE  1594               	bsf	20,3	;volatile
  6661     06CF                     l4127:
  6662                           
  6663                           ;i2c.c: 16:     SSPADD = (unsigned char)(20000000 / (4 * baud)) - 1;
  6664     06CF  084D               	movf	init_i2c@baud,w
  6665     06D0  00D1               	movwf	??_init_i2c
  6666     06D1  084E               	movf	init_i2c@baud+1,w
  6667     06D2  00D2               	movwf	??_init_i2c+1
  6668     06D3  084F               	movf	init_i2c@baud+2,w
  6669     06D4  00D3               	movwf	??_init_i2c+2
  6670     06D5  0850               	movf	init_i2c@baud+3,w
  6671     06D6  00D4               	movwf	??_init_i2c+3
  6672     06D7  3002               	movlw	2
  6673     06D8                     u3275:
  6674     06D8  1003               	clrc
  6675     06D9  0DD1               	rlf	??_init_i2c,f
  6676     06DA  0DD2               	rlf	??_init_i2c+1,f
  6677     06DB  0DD3               	rlf	??_init_i2c+2,f
  6678     06DC  0DD4               	rlf	??_init_i2c+3,f
  6679     06DD                     u3270:
  6680     06DD  3EFF               	addlw	-1
  6681     06DE  1D03               	skipz
  6682     06DF  2ED8               	goto	u3275
  6683     06E0  0854               	movf	??_init_i2c+3,w
  6684     06E1  00C8               	movwf	___lldiv@divisor+3
  6685     06E2  0853               	movf	??_init_i2c+2,w
  6686     06E3  00C7               	movwf	___lldiv@divisor+2
  6687     06E4  0852               	movf	??_init_i2c+1,w
  6688     06E5  00C6               	movwf	___lldiv@divisor+1
  6689     06E6  0851               	movf	??_init_i2c,w
  6690     06E7  00C5               	movwf	___lldiv@divisor
  6691     06E8  3001               	movlw	1
  6692     06E9  00CC               	movwf	___lldiv@dividend+3
  6693     06EA  3031               	movlw	49
  6694     06EB  00CB               	movwf	___lldiv@dividend+2
  6695     06EC  302D               	movlw	45
  6696     06ED  00CA               	movwf	___lldiv@dividend+1
  6697     06EE  3000               	movlw	0
  6698     06EF  00C9               	movwf	___lldiv@dividend
  6699     06F0  120A  158A  21AE  120A  118A  	fcall	___lldiv
  6700     06F5  1283               	bcf	3,5	;RP0=0, select bank0
  6701     06F6  1303               	bcf	3,6	;RP1=0, select bank0
  6702     06F7  0845               	movf	?___lldiv,w
  6703     06F8  3EFF               	addlw	255
  6704     06F9  1683               	bsf	3,5	;RP0=1, select bank1
  6705     06FA  1303               	bcf	3,6	;RP1=0, select bank1
  6706     06FB  0093               	movwf	19	;volatile
  6707     06FC                     l4129:
  6708                           
  6709                           ;i2c.c: 19:     SSPEN = 1;
  6710     06FC  1283               	bcf	3,5	;RP0=0, select bank0
  6711     06FD  1303               	bcf	3,6	;RP1=0, select bank0
  6712     06FE  1694               	bsf	20,5	;volatile
  6713     06FF                     l84:
  6714     06FF  0008               	return
  6715     0700                     __end_of_init_i2c:
  6716                           
  6717                           	psect	text17
  6718     09AE                     __ptext17:	
  6719 ;; *************** function ___lldiv *****************
  6720 ;; Defined at:
  6721 ;;		line 5 in file "C:\Program Files\Microchip\xc8\v2.40\pic\sources\c90\common\__lldiv.c"
  6722 ;; Parameters:    Size  Location     Type
  6723 ;;  divisor         4    0[BANK0 ] unsigned long 
  6724 ;;  dividend        4    4[BANK0 ] unsigned long 
  6725 ;; Auto vars:     Size  Location     Type
  6726 ;;  quotient        4    3[COMMON] unsigned long 
  6727 ;;  counter         1    7[COMMON] unsigned char 
  6728 ;; Return value:  Size  Location     Type
  6729 ;;                  4    0[BANK0 ] unsigned long 
  6730 ;; Registers used:
  6731 ;;		wreg, status,2, status,0
  6732 ;; Tracked objects:
  6733 ;;		On entry : 0/0
  6734 ;;		On exit  : 0/0
  6735 ;;		Unchanged: 0/0
  6736 ;; Data sizes:     COMMON   BANK0   BANK1   BANK3   BANK2
  6737 ;;      Params:         0       8       0       0       0
  6738 ;;      Locals:         5       0       0       0       0
  6739 ;;      Temps:          1       0       0       0       0
  6740 ;;      Totals:         6       8       0       0       0
  6741 ;;Total ram usage:       14 bytes
  6742 ;; Hardware stack levels used: 1
  6743 ;; Hardware stack levels required when called: 1
  6744 ;; This function calls:
  6745 ;;		Nothing
  6746 ;; This function is called by:
  6747 ;;		_init_i2c
  6748 ;;		_init_uart
  6749 ;; This function uses a non-reentrant model
  6750 ;;
  6751                           
  6752     09AE                     ___lldiv:	
  6753                           ;psect for function ___lldiv
  6754                           
  6755     09AE                     l4079:	
  6756                           ;incstack = 0
  6757                           ; Regs used in ___lldiv: [wreg+status,2+status,0]
  6758                           
  6759     09AE  3000               	movlw	0
  6760     09AF  00F6               	movwf	___lldiv@quotient+3
  6761     09B0  3000               	movlw	0
  6762     09B1  00F5               	movwf	___lldiv@quotient+2
  6763     09B2  3000               	movlw	0
  6764     09B3  00F4               	movwf	___lldiv@quotient+1
  6765     09B4  3000               	movlw	0
  6766     09B5  00F3               	movwf	___lldiv@quotient
  6767     09B6  1283               	bcf	3,5	;RP0=0, select bank0
  6768     09B7  1303               	bcf	3,6	;RP1=0, select bank0
  6769     09B8  0848               	movf	___lldiv@divisor+3,w
  6770     09B9  0447               	iorwf	___lldiv@divisor+2,w
  6771     09BA  0446               	iorwf	___lldiv@divisor+1,w
  6772     09BB  0445               	iorwf	___lldiv@divisor,w
  6773     09BC  1903               	skipnz
  6774     09BD  29BF               	goto	u3191
  6775     09BE  29C0               	goto	u3190
  6776     09BF                     u3191:
  6777     09BF  2A0D               	goto	l4099
  6778     09C0                     u3190:
  6779     09C0                     l4081:
  6780     09C0  01F7               	clrf	___lldiv@counter
  6781     09C1  0AF7               	incf	___lldiv@counter,f
  6782     09C2  29D0               	goto	l4085
  6783     09C3                     l4083:
  6784     09C3  3001               	movlw	1
  6785     09C4  00F2               	movwf	??___lldiv
  6786     09C5                     u3205:
  6787     09C5  1003               	clrc
  6788     09C6  0DC5               	rlf	___lldiv@divisor,f
  6789     09C7  0DC6               	rlf	___lldiv@divisor+1,f
  6790     09C8  0DC7               	rlf	___lldiv@divisor+2,f
  6791     09C9  0DC8               	rlf	___lldiv@divisor+3,f
  6792     09CA  0BF2               	decfsz	??___lldiv,f
  6793     09CB  29C5               	goto	u3205
  6794     09CC  3001               	movlw	1
  6795     09CD  00F2               	movwf	??___lldiv
  6796     09CE  0872               	movf	??___lldiv,w
  6797     09CF  07F7               	addwf	___lldiv@counter,f
  6798     09D0                     l4085:
  6799     09D0  1FC8               	btfss	___lldiv@divisor+3,7
  6800     09D1  29D3               	goto	u3211
  6801     09D2  29D4               	goto	u3210
  6802     09D3                     u3211:
  6803     09D3  29C3               	goto	l4083
  6804     09D4                     u3210:
  6805     09D4                     l4087:
  6806     09D4  3001               	movlw	1
  6807     09D5  00F2               	movwf	??___lldiv
  6808     09D6                     u3225:
  6809     09D6  1003               	clrc
  6810     09D7  0DF3               	rlf	___lldiv@quotient,f
  6811     09D8  0DF4               	rlf	___lldiv@quotient+1,f
  6812     09D9  0DF5               	rlf	___lldiv@quotient+2,f
  6813     09DA  0DF6               	rlf	___lldiv@quotient+3,f
  6814     09DB  0BF2               	decfsz	??___lldiv,f
  6815     09DC  29D6               	goto	u3225
  6816     09DD                     l4089:
  6817     09DD  0848               	movf	___lldiv@divisor+3,w
  6818     09DE  024C               	subwf	___lldiv@dividend+3,w
  6819     09DF  1D03               	skipz
  6820     09E0  29EB               	goto	u3235
  6821     09E1  0847               	movf	___lldiv@divisor+2,w
  6822     09E2  024B               	subwf	___lldiv@dividend+2,w
  6823     09E3  1D03               	skipz
  6824     09E4  29EB               	goto	u3235
  6825     09E5  0846               	movf	___lldiv@divisor+1,w
  6826     09E6  024A               	subwf	___lldiv@dividend+1,w
  6827     09E7  1D03               	skipz
  6828     09E8  29EB               	goto	u3235
  6829     09E9  0845               	movf	___lldiv@divisor,w
  6830     09EA  0249               	subwf	___lldiv@dividend,w
  6831     09EB                     u3235:
  6832     09EB  1C03               	skipc
  6833     09EC  29EE               	goto	u3231
  6834     09ED  29EF               	goto	u3230
  6835     09EE                     u3231:
  6836     09EE  29FE               	goto	l4095
  6837     09EF                     u3230:
  6838     09EF                     l4091:
  6839     09EF  0845               	movf	___lldiv@divisor,w
  6840     09F0  02C9               	subwf	___lldiv@dividend,f
  6841     09F1  0846               	movf	___lldiv@divisor+1,w
  6842     09F2  1C03               	skipc
  6843     09F3  0F46               	incfsz	___lldiv@divisor+1,w
  6844     09F4  02CA               	subwf	___lldiv@dividend+1,f
  6845     09F5  0847               	movf	___lldiv@divisor+2,w
  6846     09F6  1C03               	skipc
  6847     09F7  0F47               	incfsz	___lldiv@divisor+2,w
  6848     09F8  02CB               	subwf	___lldiv@dividend+2,f
  6849     09F9  0848               	movf	___lldiv@divisor+3,w
  6850     09FA  1C03               	skipc
  6851     09FB  0F48               	incfsz	___lldiv@divisor+3,w
  6852     09FC  02CC               	subwf	___lldiv@dividend+3,f
  6853     09FD                     l4093:
  6854     09FD  1473               	bsf	___lldiv@quotient,0
  6855     09FE                     l4095:
  6856     09FE  3001               	movlw	1
  6857     09FF                     u3245:
  6858     09FF  1003               	clrc
  6859     0A00  0CC8               	rrf	___lldiv@divisor+3,f
  6860     0A01  0CC7               	rrf	___lldiv@divisor+2,f
  6861     0A02  0CC6               	rrf	___lldiv@divisor+1,f
  6862     0A03  0CC5               	rrf	___lldiv@divisor,f
  6863     0A04  3EFF               	addlw	-1
  6864     0A05  1D03               	skipz
  6865     0A06  29FF               	goto	u3245
  6866     0A07                     l4097:
  6867     0A07  3001               	movlw	1
  6868     0A08  02F7               	subwf	___lldiv@counter,f
  6869     0A09  1D03               	btfss	3,2
  6870     0A0A  2A0C               	goto	u3251
  6871     0A0B  2A0D               	goto	u3250
  6872     0A0C                     u3251:
  6873     0A0C  29D4               	goto	l4087
  6874     0A0D                     u3250:
  6875     0A0D                     l4099:
  6876     0A0D  0876               	movf	___lldiv@quotient+3,w
  6877     0A0E  00C8               	movwf	?___lldiv+3
  6878     0A0F  0875               	movf	___lldiv@quotient+2,w
  6879     0A10  00C7               	movwf	?___lldiv+2
  6880     0A11  0874               	movf	___lldiv@quotient+1,w
  6881     0A12  00C6               	movwf	?___lldiv+1
  6882     0A13  0873               	movf	___lldiv@quotient,w
  6883     0A14  00C5               	movwf	?___lldiv
  6884     0A15                     l654:
  6885     0A15  0008               	return
  6886     0A16                     __end_of___lldiv:
  6887                           
  6888                           	psect	text18
  6889     12AB                     __ptext18:	
  6890 ;; *************** function _init_ds1307 *****************
  6891 ;; Defined at:
  6892 ;;		line 10 in file "ds1307.c"
  6893 ;; Parameters:    Size  Location     Type
  6894 ;;		None
  6895 ;; Auto vars:     Size  Location     Type
  6896 ;;  dummy           1    6[COMMON] unsigned char 
  6897 ;; Return value:  Size  Location     Type
  6898 ;;                  1    wreg      void 
  6899 ;; Registers used:
  6900 ;;		wreg, status,2, status,0, pclath, cstack
  6901 ;; Tracked objects:
  6902 ;;		On entry : 0/0
  6903 ;;		On exit  : 0/0
  6904 ;;		Unchanged: 0/0
  6905 ;; Data sizes:     COMMON   BANK0   BANK1   BANK3   BANK2
  6906 ;;      Params:         0       0       0       0       0
  6907 ;;      Locals:         1       0       0       0       0
  6908 ;;      Temps:          0       0       0       0       0
  6909 ;;      Totals:         1       0       0       0       0
  6910 ;;Total ram usage:        1 bytes
  6911 ;; Hardware stack levels used: 1
  6912 ;; Hardware stack levels required when called: 5
  6913 ;; This function calls:
  6914 ;;		_read_ds1307
  6915 ;;		_write_ds1307
  6916 ;; This function is called by:
  6917 ;;		_init_config
  6918 ;; This function uses a non-reentrant model
  6919 ;;
  6920                           
  6921     12AB                     _init_ds1307:	
  6922                           ;psect for function _init_ds1307
  6923                           
  6924     12AB                     l4119:	
  6925                           ;incstack = 0
  6926                           ; Regs used in _init_ds1307: [wreg+status,2+status,0+pclath+cstack]
  6927                           
  6928                           
  6929                           ;ds1307.c: 12:     unsigned char dummy;;ds1307.c: 14:     dummy = read_ds1307(0x00);
  6930     12AB  3000               	movlw	0
  6931     12AC  160A  118A  245F  160A  118A  	fcall	_read_ds1307
  6932     12B1  00F6               	movwf	init_ds1307@dummy
  6933     12B2                     l4121:
  6934                           
  6935                           ;ds1307.c: 15:     dummy = dummy & 0x7F;
  6936     12B2  0876               	movf	init_ds1307@dummy,w
  6937     12B3  397F               	andlw	127
  6938     12B4  00F6               	movwf	init_ds1307@dummy
  6939     12B5                     l4123:
  6940                           
  6941                           ;ds1307.c: 16:     write_ds1307(0x00, dummy);
  6942     12B5  0876               	movf	init_ds1307@dummy,w
  6943     12B6  00F3               	movwf	write_ds1307@data
  6944     12B7  3000               	movlw	0
  6945     12B8  160A  118A  2314  160A  118A  	fcall	_write_ds1307
  6946     12BD                     l49:
  6947     12BD  0008               	return
  6948     12BE                     __end_of_init_ds1307:
  6949                           
  6950                           	psect	text19
  6951     1314                     __ptext19:	
  6952 ;; *************** function _write_ds1307 *****************
  6953 ;; Defined at:
  6954 ;;		line 34 in file "ds1307.c"
  6955 ;; Parameters:    Size  Location     Type
  6956 ;;  addr            1    wreg     unsigned char 
  6957 ;;  data            1    3[COMMON] unsigned char 
  6958 ;; Auto vars:     Size  Location     Type
  6959 ;;  addr            1    4[COMMON] unsigned char 
  6960 ;; Return value:  Size  Location     Type
  6961 ;;                  1    wreg      void 
  6962 ;; Registers used:
  6963 ;;		wreg, status,2, status,0, pclath, cstack
  6964 ;; Tracked objects:
  6965 ;;		On entry : 0/0
  6966 ;;		On exit  : 0/0
  6967 ;;		Unchanged: 0/0
  6968 ;; Data sizes:     COMMON   BANK0   BANK1   BANK3   BANK2
  6969 ;;      Params:         1       0       0       0       0
  6970 ;;      Locals:         1       0       0       0       0
  6971 ;;      Temps:          0       0       0       0       0
  6972 ;;      Totals:         2       0       0       0       0
  6973 ;;Total ram usage:        2 bytes
  6974 ;; Hardware stack levels used: 1
  6975 ;; Hardware stack levels required when called: 3
  6976 ;; This function calls:
  6977 ;;		_i2c_start
  6978 ;;		_i2c_stop
  6979 ;;		_i2c_write
  6980 ;; This function is called by:
  6981 ;;		_init_ds1307
  6982 ;;		_set_time
  6983 ;; This function uses a non-reentrant model
  6984 ;;
  6985                           
  6986     1314                     _write_ds1307:	
  6987                           ;psect for function _write_ds1307
  6988                           
  6989                           
  6990                           ;incstack = 0
  6991                           ; Regs used in _write_ds1307: [wreg+status,2+status,0+pclath+cstack]
  6992                           ;write_ds1307@addr stored from wreg
  6993     1314  00F4               	movwf	write_ds1307@addr
  6994     1315                     l4035:
  6995                           
  6996                           ;ds1307.c: 34: void write_ds1307(unsigned char addr, unsigned char data);ds1307.c: 35: {
      +                          ;ds1307.c: 36:     i2c_start();
  6997     1315  160A  118A  223D  160A  118A  	fcall	_i2c_start
  6998                           
  6999                           ;ds1307.c: 37:     i2c_write(0b11010000);
  7000     131A  30D0               	movlw	208
  7001     131B  160A  118A  224F  160A  118A  	fcall	_i2c_write
  7002                           
  7003                           ;ds1307.c: 38:     i2c_write(addr);
  7004     1320  0874               	movf	write_ds1307@addr,w
  7005     1321  160A  118A  224F  160A  118A  	fcall	_i2c_write
  7006                           
  7007                           ;ds1307.c: 39:     i2c_write(data);
  7008     1326  0873               	movf	write_ds1307@data,w
  7009     1327  160A  118A  224F  160A  118A  	fcall	_i2c_write
  7010                           
  7011                           ;ds1307.c: 40:     i2c_stop();
  7012     132C  160A  118A  2246  160A  118A  	fcall	_i2c_stop
  7013     1331                     l55:
  7014     1331  0008               	return
  7015     1332                     __end_of_write_ds1307:
  7016                           
  7017                           	psect	text20
  7018     1228                     __ptext20:	
  7019 ;; *************** function _init_digital_keypad *****************
  7020 ;; Defined at:
  7021 ;;		line 9 in file "digital_keypad.c"
  7022 ;; Parameters:    Size  Location     Type
  7023 ;;		None
  7024 ;; Auto vars:     Size  Location     Type
  7025 ;;		None
  7026 ;; Return value:  Size  Location     Type
  7027 ;;                  1    wreg      void 
  7028 ;; Registers used:
  7029 ;;		wreg, status,2
  7030 ;; Tracked objects:
  7031 ;;		On entry : 0/0
  7032 ;;		On exit  : 0/0
  7033 ;;		Unchanged: 0/0
  7034 ;; Data sizes:     COMMON   BANK0   BANK1   BANK3   BANK2
  7035 ;;      Params:         0       0       0       0       0
  7036 ;;      Locals:         0       0       0       0       0
  7037 ;;      Temps:          0       0       0       0       0
  7038 ;;      Totals:         0       0       0       0       0
  7039 ;;Total ram usage:        0 bytes
  7040 ;; Hardware stack levels used: 1
  7041 ;; Hardware stack levels required when called: 1
  7042 ;; This function calls:
  7043 ;;		Nothing
  7044 ;; This function is called by:
  7045 ;;		_init_config
  7046 ;; This function uses a non-reentrant model
  7047 ;;
  7048                           
  7049     1228                     _init_digital_keypad:	
  7050                           ;psect for function _init_digital_keypad
  7051                           
  7052     1228                     l4133:	
  7053                           ;incstack = 0
  7054                           ; Regs used in _init_digital_keypad: [wreg+status,2]
  7055                           
  7056                           
  7057                           ;digital_keypad.c: 12:     TRISB = TRISB | 0x3F;
  7058     1228  1683               	bsf	3,5	;RP0=1, select bank1
  7059     1229  1303               	bcf	3,6	;RP1=0, select bank1
  7060     122A  0806               	movf	6,w	;volatile
  7061     122B  383F               	iorlw	63
  7062     122C  0086               	movwf	6	;volatile
  7063     122D                     l433:
  7064     122D  0008               	return
  7065     122E                     __end_of_init_digital_keypad:
  7066                           
  7067                           	psect	text21
  7068     1270                     __ptext21:	
  7069 ;; *************** function _init_clcd *****************
  7070 ;; Defined at:
  7071 ;;		line 42 in file "clcd.c"
  7072 ;; Parameters:    Size  Location     Type
  7073 ;;		None
  7074 ;; Auto vars:     Size  Location     Type
  7075 ;;		None
  7076 ;; Return value:  Size  Location     Type
  7077 ;;                  1    wreg      void 
  7078 ;; Registers used:
  7079 ;;		wreg, status,2, status,0, pclath, cstack
  7080 ;; Tracked objects:
  7081 ;;		On entry : 0/0
  7082 ;;		On exit  : 0/0
  7083 ;;		Unchanged: 0/0
  7084 ;; Data sizes:     COMMON   BANK0   BANK1   BANK3   BANK2
  7085 ;;      Params:         0       0       0       0       0
  7086 ;;      Locals:         0       0       0       0       0
  7087 ;;      Temps:          0       0       0       0       0
  7088 ;;      Totals:         0       0       0       0       0
  7089 ;;Total ram usage:        0 bytes
  7090 ;; Hardware stack levels used: 1
  7091 ;; Hardware stack levels required when called: 3
  7092 ;; This function calls:
  7093 ;;		_init_display_controller
  7094 ;; This function is called by:
  7095 ;;		_init_config
  7096 ;; This function uses a non-reentrant model
  7097 ;;
  7098                           
  7099     1270                     _init_clcd:	
  7100                           ;psect for function _init_clcd
  7101                           
  7102     1270                     l4103:	
  7103                           ;incstack = 0
  7104                           ; Regs used in _init_clcd: [wreg+status,2+status,0+pclath+cstack]
  7105                           
  7106                           
  7107                           ;clcd.c: 45:     TRISD = 0x00;
  7108     1270  1683               	bsf	3,5	;RP0=1, select bank1
  7109     1271  1303               	bcf	3,6	;RP1=0, select bank1
  7110     1272  0188               	clrf	8	;volatile
  7111     1273                     l4105:
  7112                           
  7113                           ;clcd.c: 48:     TRISE2 = 0;
  7114     1273  1109               	bcf	9,2	;volatile
  7115     1274                     l4107:
  7116                           
  7117                           ;clcd.c: 49:     TRISE1 = 0;
  7118     1274  1089               	bcf	9,1	;volatile
  7119     1275                     l4109:
  7120                           
  7121                           ;clcd.c: 51:     init_display_controller();
  7122     1275  120A  158A  20A6  160A  118A  	fcall	_init_display_controller
  7123     127A                     l23:
  7124     127A  0008               	return
  7125     127B                     __end_of_init_clcd:
  7126                           
  7127                           	psect	text22
  7128     08A6                     __ptext22:	
  7129 ;; *************** function _init_display_controller *****************
  7130 ;; Defined at:
  7131 ;;		line 21 in file "clcd.c"
  7132 ;; Parameters:    Size  Location     Type
  7133 ;;		None
  7134 ;; Auto vars:     Size  Location     Type
  7135 ;;		None
  7136 ;; Return value:  Size  Location     Type
  7137 ;;                  1    wreg      void 
  7138 ;; Registers used:
  7139 ;;		wreg, status,2, status,0, pclath, cstack
  7140 ;; Tracked objects:
  7141 ;;		On entry : 0/0
  7142 ;;		On exit  : 0/0
  7143 ;;		Unchanged: 0/0
  7144 ;; Data sizes:     COMMON   BANK0   BANK1   BANK3   BANK2
  7145 ;;      Params:         0       0       0       0       0
  7146 ;;      Locals:         0       0       0       0       0
  7147 ;;      Temps:          2       0       0       0       0
  7148 ;;      Totals:         2       0       0       0       0
  7149 ;;Total ram usage:        2 bytes
  7150 ;; Hardware stack levels used: 1
  7151 ;; Hardware stack levels required when called: 2
  7152 ;; This function calls:
  7153 ;;		_clcd_write
  7154 ;; This function is called by:
  7155 ;;		_init_clcd
  7156 ;; This function uses a non-reentrant model
  7157 ;;
  7158                           
  7159     08A6                     _init_display_controller:	
  7160                           ;psect for function _init_display_controller
  7161                           
  7162     08A6                     l4013:	
  7163                           ;incstack = 0
  7164                           ; Regs used in _init_display_controller: [wreg+status,2+status,0+pclath+cstack]
  7165                           
  7166                           
  7167                           ;clcd.c: 24:     _delay((unsigned long)((30)*(20000000/4000.0)));
  7168     08A6  30C3               	movlw	195
  7169     08A7  00F7               	movwf	??_init_display_controller+1
  7170     08A8  30CD               	movlw	205
  7171     08A9  00F6               	movwf	??_init_display_controller
  7172     08AA                     u4637:
  7173     08AA  0BF6               	decfsz	??_init_display_controller,f
  7174     08AB  28AA               	goto	u4637
  7175     08AC  0BF7               	decfsz	??_init_display_controller+1,f
  7176     08AD  28AA               	goto	u4637
  7177     08AE                     l4015:
  7178                           
  7179                           ;clcd.c: 27:     clcd_write(0x33, 0);
  7180     08AE  01F2               	clrf	clcd_write@mode
  7181     08AF  3033               	movlw	51
  7182     08B0  160A  118A  2332  120A  158A  	fcall	_clcd_write
  7183     08B5                     l4017:
  7184                           
  7185                           ;clcd.c: 28:     _delay((unsigned long)((4100)*(20000000/4000000.0)));
  7186     08B5  301B               	movlw	27
  7187     08B6  00F7               	movwf	??_init_display_controller+1
  7188     08B7  309E               	movlw	158
  7189     08B8  00F6               	movwf	??_init_display_controller
  7190     08B9                     u4647:
  7191     08B9  0BF6               	decfsz	??_init_display_controller,f
  7192     08BA  28B9               	goto	u4647
  7193     08BB  0BF7               	decfsz	??_init_display_controller+1,f
  7194     08BC  28B9               	goto	u4647
  7195     08BD  0000               	nop
  7196                           
  7197                           ;clcd.c: 29:     clcd_write(0x33, 0);
  7198     08BE  01F2               	clrf	clcd_write@mode
  7199     08BF  3033               	movlw	51
  7200     08C0  160A  118A  2332  120A  158A  	fcall	_clcd_write
  7201     08C5                     l4019:
  7202                           
  7203                           ;clcd.c: 30:     _delay((unsigned long)((100)*(20000000/4000000.0)));
  7204     08C5  30A6               	movlw	166
  7205     08C6  00F6               	movwf	??_init_display_controller
  7206     08C7                     u4657:
  7207     08C7  0BF6               	decfsz	??_init_display_controller,f
  7208     08C8  28C7               	goto	u4657
  7209     08C9  0000               	nop
  7210     08CA                     l4021:
  7211                           
  7212                           ;clcd.c: 31:     clcd_write(0x33, 0);
  7213     08CA  01F2               	clrf	clcd_write@mode
  7214     08CB  3033               	movlw	51
  7215     08CC  160A  118A  2332  120A  158A  	fcall	_clcd_write
  7216     08D1                     l4023:
  7217                           
  7218                           ;clcd.c: 32:     _delay((unsigned long)((1)*(20000000/4000000.0)));
  7219     08D1  28D2               	nop2	;2 cycle nop
  7220     08D2  28D3               	nop2	;2 cycle nop
  7221     08D3  0000               	nop
  7222     08D4                     l4025:
  7223                           
  7224                           ;clcd.c: 34:     clcd_write(0x38, 0);
  7225     08D4  01F2               	clrf	clcd_write@mode
  7226     08D5  3038               	movlw	56
  7227     08D6  160A  118A  2332  120A  158A  	fcall	_clcd_write
  7228     08DB                     l4027:
  7229                           
  7230                           ;clcd.c: 35:     _delay((unsigned long)((100)*(20000000/4000000.0)));
  7231     08DB  30A6               	movlw	166
  7232     08DC  00F6               	movwf	??_init_display_controller
  7233     08DD                     u4667:
  7234     08DD  0BF6               	decfsz	??_init_display_controller,f
  7235     08DE  28DD               	goto	u4667
  7236     08DF  0000               	nop
  7237                           
  7238                           ;clcd.c: 36:     clcd_write(0x01, 0);
  7239     08E0  01F2               	clrf	clcd_write@mode
  7240     08E1  3001               	movlw	1
  7241     08E2  160A  118A  2332  120A  158A  	fcall	_clcd_write
  7242     08E7                     l4029:
  7243                           
  7244                           ;clcd.c: 37:     _delay((unsigned long)((500)*(20000000/4000000.0)));
  7245     08E7  3004               	movlw	4
  7246     08E8  00F7               	movwf	??_init_display_controller+1
  7247     08E9  303D               	movlw	61
  7248     08EA  00F6               	movwf	??_init_display_controller
  7249     08EB                     u4677:
  7250     08EB  0BF6               	decfsz	??_init_display_controller,f
  7251     08EC  28EB               	goto	u4677
  7252     08ED  0BF7               	decfsz	??_init_display_controller+1,f
  7253     08EE  28EB               	goto	u4677
  7254     08EF  28F0               	nop2
  7255     08F0                     l4031:
  7256                           
  7257                           ;clcd.c: 38:     clcd_write(0x0C, 0);
  7258     08F0  01F2               	clrf	clcd_write@mode
  7259     08F1  300C               	movlw	12
  7260     08F2  160A  118A  2332  120A  158A  	fcall	_clcd_write
  7261                           
  7262                           ;clcd.c: 39:     _delay((unsigned long)((100)*(20000000/4000000.0)));
  7263     08F7  30A6               	movlw	166
  7264     08F8  00F6               	movwf	??_init_display_controller
  7265     08F9                     u4687:
  7266     08F9  0BF6               	decfsz	??_init_display_controller,f
  7267     08FA  28F9               	goto	u4687
  7268     08FB  0000               	nop
  7269     08FC                     l20:
  7270     08FC  0008               	return
  7271     08FD                     __end_of_init_display_controller:
  7272                           
  7273                           	psect	text23
  7274     122E                     __ptext23:	
  7275 ;; *************** function _init_adc *****************
  7276 ;; Defined at:
  7277 ;;		line 9 in file "adc.c"
  7278 ;; Parameters:    Size  Location     Type
  7279 ;;		None
  7280 ;; Auto vars:     Size  Location     Type
  7281 ;;		None
  7282 ;; Return value:  Size  Location     Type
  7283 ;;                  1    wreg      void 
  7284 ;; Registers used:
  7285 ;;		None
  7286 ;; Tracked objects:
  7287 ;;		On entry : 0/0
  7288 ;;		On exit  : 0/0
  7289 ;;		Unchanged: 0/0
  7290 ;; Data sizes:     COMMON   BANK0   BANK1   BANK3   BANK2
  7291 ;;      Params:         0       0       0       0       0
  7292 ;;      Locals:         0       0       0       0       0
  7293 ;;      Temps:          0       0       0       0       0
  7294 ;;      Totals:         0       0       0       0       0
  7295 ;;Total ram usage:        0 bytes
  7296 ;; Hardware stack levels used: 1
  7297 ;; Hardware stack levels required when called: 1
  7298 ;; This function calls:
  7299 ;;		Nothing
  7300 ;; This function is called by:
  7301 ;;		_init_config
  7302 ;; This function uses a non-reentrant model
  7303 ;;
  7304                           
  7305     122E                     _init_adc:	
  7306                           ;psect for function _init_adc
  7307                           
  7308     122E                     l4131:	
  7309                           ;incstack = 0
  7310                           ; Regs used in _init_adc: []
  7311                           
  7312                           
  7313                           ;adc.c: 12:     ADFM = 1;
  7314     122E  1683               	bsf	3,5	;RP0=1, select bank1
  7315     122F  1303               	bcf	3,6	;RP1=0, select bank1
  7316     1230  179F               	bsf	31,7	;volatile
  7317                           
  7318                           ;adc.c: 15:     ADON = 1;
  7319     1231  1283               	bcf	3,5	;RP0=0, select bank0
  7320     1232  1303               	bcf	3,6	;RP1=0, select bank0
  7321     1233  141F               	bsf	31,0	;volatile
  7322     1234                     l122:
  7323     1234  0008               	return
  7324     1235                     __end_of_init_adc:
  7325                           
  7326                           	psect	text24
  7327     0D69                     __ptext24:	
  7328 ;; *************** function _download_log *****************
  7329 ;; Defined at:
  7330 ;;		line 298 in file "car_bb.c"
  7331 ;; Parameters:    Size  Location     Type
  7332 ;;		None
  7333 ;; Auto vars:     Size  Location     Type
  7334 ;;  i               2   15[BANK0 ] int 
  7335 ;;  logs            9    1[BANK0 ] unsigned char [9]
  7336 ;;  next            2   13[BANK0 ] int 
  7337 ;;  lpos            2   11[BANK0 ] int 
  7338 ;;  addr            1   10[BANK0 ] unsigned char 
  7339 ;; Return value:  Size  Location     Type
  7340 ;;                  1    wreg      void 
  7341 ;; Registers used:
  7342 ;;		wreg, fsr0l, fsr0h, status,2, status,0, btemp+1, pclath, cstack
  7343 ;; Tracked objects:
  7344 ;;		On entry : 0/0
  7345 ;;		On exit  : 0/0
  7346 ;;		Unchanged: 0/0
  7347 ;; Data sizes:     COMMON   BANK0   BANK1   BANK3   BANK2
  7348 ;;      Params:         0       0       0       0       0
  7349 ;;      Locals:         0      16       0       0       0
  7350 ;;      Temps:          0       1       0       0       0
  7351 ;;      Totals:         0      17       0       0       0
  7352 ;;Total ram usage:       17 bytes
  7353 ;; Hardware stack levels used: 1
  7354 ;; Hardware stack levels required when called: 5
  7355 ;; This function calls:
  7356 ;;		___awmod
  7357 ;;		___bmul
  7358 ;;		_eeprom_at24c04_random_read
  7359 ;;		_putchar
  7360 ;;		_puts
  7361 ;; This function is called by:
  7362 ;;		_main
  7363 ;; This function uses a non-reentrant model
  7364 ;;
  7365                           
  7366     0D69                     _download_log:	
  7367                           ;psect for function _download_log
  7368                           
  7369     0D69                     l4655:	
  7370                           ;incstack = 0
  7371                           ; Regs used in _download_log: [wreg-fsr0h+status,2+status,0+btemp+1+pclath+cstack]
  7372                           
  7373                           
  7374                           ;car_bb.c: 300:     int next = -1;
  7375     0D69  30FF               	movlw	255
  7376     0D6A  1283               	bcf	3,5	;RP0=0, select bank0
  7377     0D6B  1303               	bcf	3,6	;RP1=0, select bank0
  7378     0D6C  00D2               	movwf	download_log@next
  7379     0D6D  30FF               	movlw	255
  7380     0D6E  00D3               	movwf	download_log@next+1
  7381     0D6F                     l4657:
  7382     0D6F                     l4659:
  7383                           
  7384                           ;car_bb.c: 303:     unsigned char addr;;car_bb.c: 305:     if (event_count == -1)
  7385     0D6F  0A2E               	incf	_event_count,w
  7386     0D70  1D03               	skipz
  7387     0D71  2D76               	goto	u4051
  7388     0D72  0A2F               	incf	_event_count+1,w
  7389     0D73  1D03               	btfss	3,2
  7390     0D74  2D76               	goto	u4051
  7391     0D75  2D77               	goto	u4050
  7392     0D76                     u4051:
  7393     0D76  2D81               	goto	l4663
  7394     0D77                     u4050:
  7395     0D77                     l4661:
  7396                           
  7397                           ;car_bb.c: 306:  {;car_bb.c: 307:   puts("No logs avaiable");
  7398     0D77  308F               	movlw	low (STR_29| (0+32768))
  7399     0D78  00F3               	movwf	puts@s
  7400     0D79  3087               	movlw	high (STR_29| (0+32768))
  7401     0D7A  00F4               	movwf	puts@s+1
  7402     0D7B  160A  118A  23BD  120A  158A  	fcall	_puts
  7403                           
  7404                           ;car_bb.c: 308:  }
  7405     0D80  2E92               	goto	l373
  7406     0D81                     l4663:
  7407                           
  7408                           ;car_bb.c: 310:  {;car_bb.c: 312:   puts("Logs :");
  7409     0D81  3066               	movlw	low (STR_30| (0+32768))
  7410     0D82  00F3               	movwf	puts@s
  7411     0D83  3088               	movlw	high (STR_30| (0+32768))
  7412     0D84  00F4               	movwf	puts@s+1
  7413     0D85  160A  118A  23BD  120A  158A  	fcall	_puts
  7414     0D8A                     l4665:
  7415                           
  7416                           ;car_bb.c: 313:   putchar('\n');
  7417     0D8A  300A               	movlw	10
  7418     0D8B  160A  118A  2265  120A  158A  	fcall	_putchar
  7419                           
  7420                           ;car_bb.c: 315:   while ( next < event_count )
  7421     0D90  2E82               	goto	l4691
  7422     0D91                     l4667:
  7423                           
  7424                           ;car_bb.c: 316:   {;car_bb.c: 317:    next++;
  7425     0D91  3001               	movlw	1
  7426     0D92  1283               	bcf	3,5	;RP0=0, select bank0
  7427     0D93  1303               	bcf	3,6	;RP1=0, select bank0
  7428     0D94  07D2               	addwf	download_log@next,f
  7429     0D95  1803               	skipnc
  7430     0D96  0AD3               	incf	download_log@next+1,f
  7431     0D97  3000               	movlw	0
  7432     0D98  07D3               	addwf	download_log@next+1,f
  7433     0D99                     l4669:
  7434                           
  7435                           ;car_bb.c: 318:    lpos = (overflow)? (pos + 1) % 10 : 0;
  7436     0D99  0837               	movf	_overflow,w
  7437     0D9A  1D03               	btfss	3,2
  7438     0D9B  2D9D               	goto	u4061
  7439     0D9C  2D9E               	goto	u4060
  7440     0D9D                     u4061:
  7441     0D9D  2DA1               	goto	l4673
  7442     0D9E                     u4060:
  7443     0D9E                     l4671:
  7444     0D9E  01D0               	clrf	download_log@lpos
  7445     0D9F  01D1               	clrf	download_log@lpos+1
  7446     0DA0  2DB7               	goto	l369
  7447     0DA1                     l4673:
  7448     0DA1  300A               	movlw	10
  7449     0DA2  00F2               	movwf	___awmod@divisor
  7450     0DA3  3000               	movlw	0
  7451     0DA4  00F3               	movwf	___awmod@divisor+1
  7452     0DA5  0866               	movf	_pos,w
  7453     0DA6  3E01               	addlw	1
  7454     0DA7  00F4               	movwf	___awmod@dividend
  7455     0DA8  3000               	movlw	0
  7456     0DA9  1803               	skipnc
  7457     0DAA  3001               	movlw	1
  7458     0DAB  00F5               	movwf	___awmod@dividend+1
  7459     0DAC  120A  158A  2155  120A  158A  	fcall	___awmod
  7460     0DB1  0873               	movf	?___awmod+1,w
  7461     0DB2  1283               	bcf	3,5	;RP0=0, select bank0
  7462     0DB3  1303               	bcf	3,6	;RP1=0, select bank0
  7463     0DB4  00D1               	movwf	download_log@lpos+1
  7464     0DB5  0872               	movf	?___awmod,w
  7465     0DB6  00D0               	movwf	download_log@lpos
  7466     0DB7                     l369:
  7467                           
  7468                           ;car_bb.c: 319:    lpos = (lpos + next) % 10;
  7469     0DB7  300A               	movlw	10
  7470     0DB8  00F2               	movwf	___awmod@divisor
  7471     0DB9  3000               	movlw	0
  7472     0DBA  00F3               	movwf	___awmod@divisor+1
  7473     0DBB  0852               	movf	download_log@next,w
  7474     0DBC  0750               	addwf	download_log@lpos,w
  7475     0DBD  00F4               	movwf	___awmod@dividend
  7476     0DBE  0853               	movf	download_log@next+1,w
  7477     0DBF  1803               	skipnc
  7478     0DC0  0A53               	incf	download_log@next+1,w
  7479     0DC1  0751               	addwf	download_log@lpos+1,w
  7480     0DC2  00F5               	movwf	___awmod@dividend+1
  7481     0DC3  120A  158A  2155  120A  158A  	fcall	___awmod
  7482     0DC8  0873               	movf	?___awmod+1,w
  7483     0DC9  1283               	bcf	3,5	;RP0=0, select bank0
  7484     0DCA  1303               	bcf	3,6	;RP1=0, select bank0
  7485     0DCB  00D1               	movwf	download_log@lpos+1
  7486     0DCC  0872               	movf	?___awmod,w
  7487     0DCD  00D0               	movwf	download_log@lpos
  7488     0DCE                     l4675:
  7489                           
  7490                           ;car_bb.c: 321:    for ( int i = 0 ; i < 10 ; i++ )
  7491     0DCE  01D4               	clrf	download_log@i
  7492     0DCF  01D5               	clrf	download_log@i+1
  7493     0DD0                     l4681:
  7494                           
  7495                           ;car_bb.c: 322:    {;car_bb.c: 323:     addr = lpos * 10 + 5 + i ;
  7496     0DD0  300A               	movlw	10
  7497     0DD1  00F2               	movwf	___bmul@multiplicand
  7498     0DD2  1283               	bcf	3,5	;RP0=0, select bank0
  7499     0DD3  1303               	bcf	3,6	;RP1=0, select bank0
  7500     0DD4  0850               	movf	download_log@lpos,w
  7501     0DD5  160A  118A  22E6  120A  158A  	fcall	___bmul
  7502     0DDA  1283               	bcf	3,5	;RP0=0, select bank0
  7503     0DDB  1303               	bcf	3,6	;RP1=0, select bank0
  7504     0DDC  0754               	addwf	download_log@i,w
  7505     0DDD  3E05               	addlw	5
  7506     0DDE  00CF               	movwf	download_log@addr
  7507     0DDF                     l4683:
  7508                           
  7509                           ;car_bb.c: 324:     logs[i] = eeprom_at24c04_random_read(addr);
  7510     0DDF  0854               	movf	download_log@i,w
  7511     0DE0  3E46               	addlw	(low (download_log@logs| 0))& (0+255)
  7512     0DE1  0084               	movwf	4
  7513     0DE2  084F               	movf	download_log@addr,w
  7514     0DE3  160A  118A  248A  120A  158A  	fcall	_eeprom_at24c04_random_read
  7515     0DE8  1383               	bcf	3,7	;select IRP bank0
  7516     0DE9  0080               	movwf	0
  7517     0DEA                     l4685:
  7518                           
  7519                           ;car_bb.c: 325:    }
  7520     0DEA  3001               	movlw	1
  7521     0DEB  1283               	bcf	3,5	;RP0=0, select bank0
  7522     0DEC  1303               	bcf	3,6	;RP1=0, select bank0
  7523     0DED  07D4               	addwf	download_log@i,f
  7524     0DEE  1803               	skipnc
  7525     0DEF  0AD5               	incf	download_log@i+1,f
  7526     0DF0  3000               	movlw	0
  7527     0DF1  07D5               	addwf	download_log@i+1,f
  7528     0DF2                     l4687:
  7529     0DF2  0855               	movf	download_log@i+1,w
  7530     0DF3  3A80               	xorlw	128
  7531     0DF4  00FF               	movwf	btemp+1
  7532     0DF5  3080               	movlw	128
  7533     0DF6  027F               	subwf	btemp+1,w
  7534     0DF7  1D03               	skipz
  7535     0DF8  2DFB               	goto	u4075
  7536     0DF9  300A               	movlw	10
  7537     0DFA  0254               	subwf	download_log@i,w
  7538     0DFB                     u4075:
  7539     0DFB  1C03               	skipc
  7540     0DFC  2DFE               	goto	u4071
  7541     0DFD  2DFF               	goto	u4070
  7542     0DFE                     u4071:
  7543     0DFE  2DD0               	goto	l4681
  7544     0DFF                     u4070:
  7545     0DFF                     l4689:
  7546                           
  7547                           ;car_bb.c: 327:    putchar ( next + '0');
  7548     0DFF  1283               	bcf	3,5	;RP0=0, select bank0
  7549     0E00  1303               	bcf	3,6	;RP1=0, select bank0
  7550     0E01  0852               	movf	download_log@next,w
  7551     0E02  3E30               	addlw	48
  7552     0E03  160A  118A  2265  120A  158A  	fcall	_putchar
  7553                           
  7554                           ;car_bb.c: 328:    putchar(' ');
  7555     0E08  3020               	movlw	32
  7556     0E09  160A  118A  2265  120A  158A  	fcall	_putchar
  7557                           
  7558                           ;car_bb.c: 329:    putchar ( logs[0] );
  7559     0E0E  1283               	bcf	3,5	;RP0=0, select bank0
  7560     0E0F  1303               	bcf	3,6	;RP1=0, select bank0
  7561     0E10  0846               	movf	download_log@logs,w
  7562     0E11  160A  118A  2265  120A  158A  	fcall	_putchar
  7563                           
  7564                           ;car_bb.c: 330:    putchar ( logs[1] );
  7565     0E16  1283               	bcf	3,5	;RP0=0, select bank0
  7566     0E17  1303               	bcf	3,6	;RP1=0, select bank0
  7567     0E18  0847               	movf	download_log@logs+1,w
  7568     0E19  160A  118A  2265  120A  158A  	fcall	_putchar
  7569                           
  7570                           ;car_bb.c: 331:    putchar (':');
  7571     0E1E  303A               	movlw	58
  7572     0E1F  160A  118A  2265  120A  158A  	fcall	_putchar
  7573                           
  7574                           ;car_bb.c: 332:    putchar ( logs[2] );
  7575     0E24  1283               	bcf	3,5	;RP0=0, select bank0
  7576     0E25  1303               	bcf	3,6	;RP1=0, select bank0
  7577     0E26  0848               	movf	download_log@logs+2,w
  7578     0E27  160A  118A  2265  120A  158A  	fcall	_putchar
  7579                           
  7580                           ;car_bb.c: 333:    putchar ( logs[3] );
  7581     0E2C  1283               	bcf	3,5	;RP0=0, select bank0
  7582     0E2D  1303               	bcf	3,6	;RP1=0, select bank0
  7583     0E2E  0849               	movf	download_log@logs+3,w
  7584     0E2F  160A  118A  2265  120A  158A  	fcall	_putchar
  7585                           
  7586                           ;car_bb.c: 334:    putchar (':');
  7587     0E34  303A               	movlw	58
  7588     0E35  160A  118A  2265  120A  158A  	fcall	_putchar
  7589                           
  7590                           ;car_bb.c: 335:    putchar ( logs[4] );
  7591     0E3A  1283               	bcf	3,5	;RP0=0, select bank0
  7592     0E3B  1303               	bcf	3,6	;RP1=0, select bank0
  7593     0E3C  084A               	movf	download_log@logs+4,w
  7594     0E3D  160A  118A  2265  120A  158A  	fcall	_putchar
  7595                           
  7596                           ;car_bb.c: 336:    putchar ( logs[5] );
  7597     0E42  1283               	bcf	3,5	;RP0=0, select bank0
  7598     0E43  1303               	bcf	3,6	;RP1=0, select bank0
  7599     0E44  084B               	movf	download_log@logs+5,w
  7600     0E45  160A  118A  2265  120A  158A  	fcall	_putchar
  7601                           
  7602                           ;car_bb.c: 337:    putchar (' ');
  7603     0E4A  3020               	movlw	32
  7604     0E4B  160A  118A  2265  120A  158A  	fcall	_putchar
  7605                           
  7606                           ;car_bb.c: 338:    putchar ( logs[6] );
  7607     0E50  1283               	bcf	3,5	;RP0=0, select bank0
  7608     0E51  1303               	bcf	3,6	;RP1=0, select bank0
  7609     0E52  084C               	movf	download_log@logs+6,w
  7610     0E53  160A  118A  2265  120A  158A  	fcall	_putchar
  7611                           
  7612                           ;car_bb.c: 339:    putchar ( logs[7] );
  7613     0E58  1283               	bcf	3,5	;RP0=0, select bank0
  7614     0E59  1303               	bcf	3,6	;RP1=0, select bank0
  7615     0E5A  084D               	movf	download_log@logs+7,w
  7616     0E5B  160A  118A  2265  120A  158A  	fcall	_putchar
  7617                           
  7618                           ;car_bb.c: 340:    putchar (' ');
  7619     0E60  3020               	movlw	32
  7620     0E61  160A  118A  2265  120A  158A  	fcall	_putchar
  7621                           
  7622                           ;car_bb.c: 341:    putchar ( logs[8] );
  7623     0E66  1283               	bcf	3,5	;RP0=0, select bank0
  7624     0E67  1303               	bcf	3,6	;RP1=0, select bank0
  7625     0E68  084E               	movf	download_log@logs+8,w
  7626     0E69  160A  118A  2265  120A  158A  	fcall	_putchar
  7627                           
  7628                           ;car_bb.c: 342:    putchar ( logs[9] );
  7629     0E6E  1283               	bcf	3,5	;RP0=0, select bank0
  7630     0E6F  1303               	bcf	3,6	;RP1=0, select bank0
  7631     0E70  084F               	movf	download_log@logs+9,w
  7632     0E71  160A  118A  2265  120A  158A  	fcall	_putchar
  7633                           
  7634                           ;car_bb.c: 343:    putchar ( '\n' );
  7635     0E76  300A               	movlw	10
  7636     0E77  160A  118A  2265  120A  158A  	fcall	_putchar
  7637                           
  7638                           ;car_bb.c: 344:    putchar ('\r');
  7639     0E7C  300D               	movlw	13
  7640     0E7D  160A  118A  2265  120A  158A  	fcall	_putchar
  7641     0E82                     l4691:
  7642                           
  7643                           ;car_bb.c: 315:   while ( next < event_count )
  7644     0E82  1283               	bcf	3,5	;RP0=0, select bank0
  7645     0E83  1303               	bcf	3,6	;RP1=0, select bank0
  7646     0E84  0853               	movf	download_log@next+1,w
  7647     0E85  3A80               	xorlw	128
  7648     0E86  00C5               	movwf	??_download_log
  7649     0E87  082F               	movf	_event_count+1,w
  7650     0E88  3A80               	xorlw	128
  7651     0E89  0245               	subwf	??_download_log,w
  7652     0E8A  1D03               	skipz
  7653     0E8B  2E8E               	goto	u4085
  7654     0E8C  082E               	movf	_event_count,w
  7655     0E8D  0252               	subwf	download_log@next,w
  7656     0E8E                     u4085:
  7657     0E8E  1C03               	skipc
  7658     0E8F  2E91               	goto	u4081
  7659     0E90  2E92               	goto	u4080
  7660     0E91                     u4081:
  7661     0E91  2D91               	goto	l4667
  7662     0E92                     u4080:
  7663     0E92                     l373:
  7664     0E92  0008               	return
  7665     0E93                     __end_of_download_log:
  7666                           
  7667                           	psect	text25
  7668     13BD                     __ptext25:	
  7669 ;; *************** function _puts *****************
  7670 ;; Defined at:
  7671 ;;		line 52 in file "uart.c"
  7672 ;; Parameters:    Size  Location     Type
  7673 ;;  s               2    3[COMMON] PTR const unsigned char 
  7674 ;;		 -> STR_30(7), STR_29(17), 
  7675 ;; Auto vars:     Size  Location     Type
  7676 ;;		None
  7677 ;; Return value:  Size  Location     Type
  7678 ;;                  1    wreg      void 
  7679 ;; Registers used:
  7680 ;;		wreg, fsr0l, fsr0h, status,2, status,0, btemp+1, pclath, cstack
  7681 ;; Tracked objects:
  7682 ;;		On entry : 0/0
  7683 ;;		On exit  : 0/0
  7684 ;;		Unchanged: 0/0
  7685 ;; Data sizes:     COMMON   BANK0   BANK1   BANK3   BANK2
  7686 ;;      Params:         2       0       0       0       0
  7687 ;;      Locals:         0       0       0       0       0
  7688 ;;      Temps:          0       0       0       0       0
  7689 ;;      Totals:         2       0       0       0       0
  7690 ;;Total ram usage:        2 bytes
  7691 ;; Hardware stack levels used: 1
  7692 ;; Hardware stack levels required when called: 2
  7693 ;; This function calls:
  7694 ;;		_putchar
  7695 ;; This function is called by:
  7696 ;;		_download_log
  7697 ;; This function uses a non-reentrant model
  7698 ;;
  7699                           
  7700     13BD                     _puts:	
  7701                           ;psect for function _puts
  7702                           
  7703     13BD                     l4223:	
  7704                           ;incstack = 0
  7705                           ; Regs used in _puts: [wreg-fsr0h+status,2+status,0+btemp+1+pclath+cstack]
  7706                           
  7707                           
  7708                           ;uart.c: 52: void puts(const char *s);uart.c: 53: {;uart.c: 54:     while (*s)
  7709     13BD  2BD2               	goto	l4229
  7710     13BE                     l4225:
  7711                           
  7712                           ;uart.c: 55:     {;uart.c: 56:         putchar(*s++);
  7713     13BE  0874               	movf	puts@s+1,w
  7714     13BF  00FF               	movwf	btemp+1
  7715     13C0  0873               	movf	puts@s,w
  7716     13C1  0084               	movwf	4
  7717     13C2  160A  118A  2000  160A  118A  	fcall	stringtab
  7718     13C7  160A  118A  2265  160A  118A  	fcall	_putchar
  7719     13CC                     l4227:
  7720     13CC  3001               	movlw	1
  7721     13CD  07F3               	addwf	puts@s,f
  7722     13CE  1803               	skipnc
  7723     13CF  0AF4               	incf	puts@s+1,f
  7724     13D0  3000               	movlw	0
  7725     13D1  07F4               	addwf	puts@s+1,f
  7726     13D2                     l4229:
  7727                           
  7728                           ;uart.c: 54:     while (*s)
  7729     13D2  0874               	movf	puts@s+1,w
  7730     13D3  1283               	bcf	3,5	;RP0=0, select bank0
  7731     13D4  1303               	bcf	3,6	;RP1=0, select bank0
  7732     13D5  00FF               	movwf	btemp+1
  7733     13D6  0873               	movf	puts@s,w
  7734     13D7  0084               	movwf	4
  7735     13D8  160A  118A  2000  160A  118A  	fcall	stringtab
  7736     13DD  3A00               	xorlw	0
  7737     13DE  1D03               	skipz
  7738     13DF  2BE1               	goto	u3371
  7739     13E0  2BE2               	goto	u3370
  7740     13E1                     u3371:
  7741     13E1  2BBE               	goto	l4225
  7742     13E2                     u3370:
  7743     13E2                     l532:
  7744     13E2  0008               	return
  7745     13E3                     __end_of_puts:
  7746                           
  7747                           	psect	text26
  7748     1265                     __ptext26:	
  7749 ;; *************** function _putchar *****************
  7750 ;; Defined at:
  7751 ;;		line 37 in file "uart.c"
  7752 ;; Parameters:    Size  Location     Type
  7753 ;;  data            1    wreg     unsigned char 
  7754 ;; Auto vars:     Size  Location     Type
  7755 ;;  data            1    2[COMMON] unsigned char 
  7756 ;; Return value:  Size  Location     Type
  7757 ;;                  1    wreg      void 
  7758 ;; Registers used:
  7759 ;;		wreg
  7760 ;; Tracked objects:
  7761 ;;		On entry : 0/0
  7762 ;;		On exit  : 0/0
  7763 ;;		Unchanged: 0/0
  7764 ;; Data sizes:     COMMON   BANK0   BANK1   BANK3   BANK2
  7765 ;;      Params:         0       0       0       0       0
  7766 ;;      Locals:         1       0       0       0       0
  7767 ;;      Temps:          0       0       0       0       0
  7768 ;;      Totals:         1       0       0       0       0
  7769 ;;Total ram usage:        1 bytes
  7770 ;; Hardware stack levels used: 1
  7771 ;; Hardware stack levels required when called: 1
  7772 ;; This function calls:
  7773 ;;		Nothing
  7774 ;; This function is called by:
  7775 ;;		_download_log
  7776 ;;		_puts
  7777 ;; This function uses a non-reentrant model
  7778 ;;
  7779                           
  7780     1265                     _putchar:	
  7781                           ;psect for function _putchar
  7782                           
  7783                           
  7784                           ;incstack = 0
  7785                           ; Regs used in _putchar: [wreg]
  7786                           ;putchar@data stored from wreg
  7787     1265  00F2               	movwf	putchar@data
  7788     1266                     l4063:
  7789                           
  7790                           ;uart.c: 37: void putchar(unsigned char data);uart.c: 38: {;uart.c: 40:     TXREG = data
      +                          ;
  7791     1266  0872               	movf	putchar@data,w
  7792     1267  1283               	bcf	3,5	;RP0=0, select bank0
  7793     1268  1303               	bcf	3,6	;RP1=0, select bank0
  7794     1269  0099               	movwf	25	;volatile
  7795     126A                     l524:	
  7796                           ;uart.c: 46:     } while (TXIF != 1);
  7797                           
  7798     126A  1E0C               	btfss	12,4	;volatile
  7799     126B  2A6D               	goto	u3161
  7800     126C  2A6E               	goto	u3160
  7801     126D                     u3161:
  7802     126D  2A6A               	goto	l524
  7803     126E                     u3160:
  7804     126E                     l525:
  7805                           
  7806                           ;uart.c: 49:     TXIF = 0;
  7807     126E  120C               	bcf	12,4	;volatile
  7808     126F                     l526:
  7809     126F  0008               	return
  7810     1270                     __end_of_putchar:
  7811                           
  7812                           	psect	text27
  7813     148A                     __ptext27:	
  7814 ;; *************** function _eeprom_at24c04_random_read *****************
  7815 ;; Defined at:
  7816 ;;		line 11 in file "at24c04.c"
  7817 ;; Parameters:    Size  Location     Type
  7818 ;;  memory_loc      1    wreg     unsigned char 
  7819 ;; Auto vars:     Size  Location     Type
  7820 ;;  memory_loc      1    4[COMMON] unsigned char 
  7821 ;;  received_dat    1    5[COMMON] unsigned char 
  7822 ;; Return value:  Size  Location     Type
  7823 ;;                  1    wreg      unsigned char 
  7824 ;; Registers used:
  7825 ;;		wreg, status,2, status,0, pclath, cstack
  7826 ;; Tracked objects:
  7827 ;;		On entry : 0/0
  7828 ;;		On exit  : 0/0
  7829 ;;		Unchanged: 0/0
  7830 ;; Data sizes:     COMMON   BANK0   BANK1   BANK3   BANK2
  7831 ;;      Params:         0       0       0       0       0
  7832 ;;      Locals:         2       0       0       0       0
  7833 ;;      Temps:          0       0       0       0       0
  7834 ;;      Totals:         2       0       0       0       0
  7835 ;;Total ram usage:        2 bytes
  7836 ;; Hardware stack levels used: 1
  7837 ;; Hardware stack levels required when called: 4
  7838 ;; This function calls:
  7839 ;;		_i2c_read
  7840 ;;		_i2c_rep_start
  7841 ;;		_i2c_start
  7842 ;;		_i2c_stop
  7843 ;;		_i2c_write
  7844 ;; This function is called by:
  7845 ;;		_login
  7846 ;;		_view_log
  7847 ;;		_download_log
  7848 ;; This function uses a non-reentrant model
  7849 ;;
  7850                           
  7851     148A                     _eeprom_at24c04_random_read:	
  7852                           ;psect for function _eeprom_at24c04_random_read
  7853                           
  7854                           
  7855                           ;incstack = 0
  7856                           ; Regs used in _eeprom_at24c04_random_read: [wreg+status,2+status,0+pclath+cstack]
  7857                           ;eeprom_at24c04_random_read@memory_loc stored from wreg
  7858     148A  00F4               	movwf	eeprom_at24c04_random_read@memory_loc
  7859     148B                     l4187:
  7860     148B                     l4189:
  7861                           
  7862                           ;at24c04.c: 15:     i2c_start();
  7863     148B  160A  118A  223D  160A  118A  	fcall	_i2c_start
  7864     1490                     l4191:
  7865                           
  7866                           ;at24c04.c: 16:     i2c_write(0xA0);
  7867     1490  30A0               	movlw	160
  7868     1491  160A  118A  224F  160A  118A  	fcall	_i2c_write
  7869     1496                     l4193:
  7870                           
  7871                           ;at24c04.c: 17:     i2c_write(memory_loc);
  7872     1496  0874               	movf	eeprom_at24c04_random_read@memory_loc,w
  7873     1497  160A  118A  224F  160A  118A  	fcall	_i2c_write
  7874     149C                     l4195:
  7875                           
  7876                           ;at24c04.c: 18:     i2c_rep_start();
  7877     149C  160A  118A  225A  160A  118A  	fcall	_i2c_rep_start
  7878     14A1                     l4197:
  7879                           
  7880                           ;at24c04.c: 19:     i2c_write(0xA1);
  7881     14A1  30A1               	movlw	161
  7882     14A2  160A  118A  224F  160A  118A  	fcall	_i2c_write
  7883     14A7                     l4199:
  7884                           
  7885                           ;at24c04.c: 20:     received_data = i2c_read(0);
  7886     14A7  3000               	movlw	0
  7887     14A8  160A  118A  2352  160A  118A  	fcall	_i2c_read
  7888     14AD  00F5               	movwf	eeprom_at24c04_random_read@received_data
  7889     14AE                     l4201:
  7890                           
  7891                           ;at24c04.c: 21:     i2c_stop();
  7892     14AE  160A  118A  2246  160A  118A  	fcall	_i2c_stop
  7893     14B3                     l4203:
  7894                           
  7895                           ;at24c04.c: 23:     return received_data;
  7896     14B3  0875               	movf	eeprom_at24c04_random_read@received_data,w
  7897     14B4                     l458:
  7898     14B4  0008               	return
  7899     14B5                     __end_of_eeprom_at24c04_random_read:
  7900                           
  7901                           	psect	text28
  7902     12E6                     __ptext28:	
  7903 ;; *************** function ___bmul *****************
  7904 ;; Defined at:
  7905 ;;		line 4 in file "C:\Program Files\Microchip\xc8\v2.40\pic\sources\c90\common\Umul8.c"
  7906 ;; Parameters:    Size  Location     Type
  7907 ;;  multiplier      1    wreg     unsigned char 
  7908 ;;  multiplicand    1    2[COMMON] unsigned char 
  7909 ;; Auto vars:     Size  Location     Type
  7910 ;;  multiplier      1    5[COMMON] unsigned char 
  7911 ;;  product         1    4[COMMON] unsigned char 
  7912 ;; Return value:  Size  Location     Type
  7913 ;;                  1    wreg      unsigned char 
  7914 ;; Registers used:
  7915 ;;		wreg, status,2, status,0
  7916 ;; Tracked objects:
  7917 ;;		On entry : 0/0
  7918 ;;		On exit  : 0/0
  7919 ;;		Unchanged: 0/0
  7920 ;; Data sizes:     COMMON   BANK0   BANK1   BANK3   BANK2
  7921 ;;      Params:         1       0       0       0       0
  7922 ;;      Locals:         2       0       0       0       0
  7923 ;;      Temps:          1       0       0       0       0
  7924 ;;      Totals:         4       0       0       0       0
  7925 ;;Total ram usage:        4 bytes
  7926 ;; Hardware stack levels used: 1
  7927 ;; Hardware stack levels required when called: 1
  7928 ;; This function calls:
  7929 ;;		Nothing
  7930 ;; This function is called by:
  7931 ;;		_log_event
  7932 ;;		_view_log
  7933 ;;		_download_log
  7934 ;; This function uses a non-reentrant model
  7935 ;;
  7936                           
  7937     12E6                     ___bmul:	
  7938                           ;psect for function ___bmul
  7939                           
  7940                           
  7941                           ;incstack = 0
  7942                           ; Regs used in ___bmul: [wreg+status,2+status,0]
  7943                           ;___bmul@multiplier stored from wreg
  7944     12E6  00F5               	movwf	___bmul@multiplier
  7945     12E7                     l4065:
  7946     12E7  01F4               	clrf	___bmul@product
  7947     12E8                     l4067:
  7948     12E8  1C75               	btfss	___bmul@multiplier,0
  7949     12E9  2AEB               	goto	u3171
  7950     12EA  2AEC               	goto	u3170
  7951     12EB                     u3171:
  7952     12EB  2AF0               	goto	l4071
  7953     12EC                     u3170:
  7954     12EC                     l4069:
  7955     12EC  0872               	movf	___bmul@multiplicand,w
  7956     12ED  00F3               	movwf	??___bmul
  7957     12EE  0873               	movf	??___bmul,w
  7958     12EF  07F4               	addwf	___bmul@product,f
  7959     12F0                     l4071:
  7960     12F0  1003               	clrc
  7961     12F1  0DF2               	rlf	___bmul@multiplicand,f
  7962     12F2                     l4073:
  7963     12F2  1003               	clrc
  7964     12F3  0CF5               	rrf	___bmul@multiplier,f
  7965     12F4  0875               	movf	___bmul@multiplier,w
  7966     12F5  1D03               	btfss	3,2
  7967     12F6  2AF8               	goto	u3181
  7968     12F7  2AF9               	goto	u3180
  7969     12F8                     u3181:
  7970     12F8  2AE8               	goto	l4067
  7971     12F9                     u3180:
  7972     12F9                     l4075:
  7973     12F9  0874               	movf	___bmul@product,w
  7974     12FA                     l644:
  7975     12FA  0008               	return
  7976     12FB                     __end_of___bmul:
  7977                           
  7978                           	psect	text29
  7979     17A9                     __ptext29:	
  7980 ;; *************** function _display_dashboard *****************
  7981 ;; Defined at:
  7982 ;;		line 51 in file "car_bb.c"
  7983 ;; Parameters:    Size  Location     Type
  7984 ;;  event           1    wreg     PTR unsigned char 
  7985 ;;		 -> main@event(3), 
  7986 ;;  speed           1    9[BANK0 ] unsigned char 
  7987 ;; Auto vars:     Size  Location     Type
  7988 ;;  event           1   12[BANK0 ] PTR unsigned char 
  7989 ;;		 -> main@event(3), 
  7990 ;; Return value:  Size  Location     Type
  7991 ;;                  1    wreg      void 
  7992 ;; Registers used:
  7993 ;;		wreg, fsr0l, fsr0h, status,2, status,0, btemp+1, pclath, cstack
  7994 ;; Tracked objects:
  7995 ;;		On entry : 0/0
  7996 ;;		On exit  : 0/0
  7997 ;;		Unchanged: 0/0
  7998 ;; Data sizes:     COMMON   BANK0   BANK1   BANK3   BANK2
  7999 ;;      Params:         0       1       0       0       0
  8000 ;;      Locals:         0       1       0       0       0
  8001 ;;      Temps:          0       2       0       0       0
  8002 ;;      Totals:         0       4       0       0       0
  8003 ;;Total ram usage:        4 bytes
  8004 ;; Hardware stack levels used: 1
  8005 ;; Hardware stack levels required when called: 7
  8006 ;; This function calls:
  8007 ;;		___awdiv
  8008 ;;		___awmod
  8009 ;;		_clcd_print
  8010 ;;		_clcd_putch
  8011 ;;		_display_time
  8012 ;; This function is called by:
  8013 ;;		_main
  8014 ;; This function uses a non-reentrant model
  8015 ;;
  8016                           
  8017     17A9                     _display_dashboard:	
  8018                           ;psect for function _display_dashboard
  8019                           
  8020                           
  8021                           ;incstack = 0
  8022                           ; Regs used in _display_dashboard: [wreg-fsr0h+status,2+status,0+btemp+1+pclath+cstack]
  8023                           ;display_dashboard@event stored from wreg
  8024     17A9  1283               	bcf	3,5	;RP0=0, select bank0
  8025     17AA  1303               	bcf	3,6	;RP1=0, select bank0
  8026     17AB  00D1               	movwf	display_dashboard@event
  8027     17AC                     l4445:
  8028                           
  8029                           ;car_bb.c: 51: void display_dashboard(unsigned char event[], unsigned char speed);car_bb
      +                          .c: 52: {;car_bb.c: 53:     clcd_print("  TIME     E  SP", (0x80 + 0));
  8030     17AC  304B               	movlw	low (STR_18| (0+32768))
  8031     17AD  00F6               	movwf	clcd_print@str
  8032     17AE  3087               	movlw	high (STR_18| (0+32768))
  8033     17AF  00F7               	movwf	clcd_print@str+1
  8034     17B0  3080               	movlw	128
  8035     17B1  00F8               	movwf	clcd_print@addr
  8036     17B2  160A  118A  24B5  160A  118A  	fcall	_clcd_print
  8037     17B7                     l4447:
  8038                           
  8039                           ;car_bb.c: 54:     display_time();
  8040     17B7  160A  118A  2753  160A  118A  	fcall	_display_time
  8041     17BC                     l4449:
  8042                           
  8043                           ;car_bb.c: 56:     clcd_print(event, (0xC0 + 11));
  8044     17BC  1283               	bcf	3,5	;RP0=0, select bank0
  8045     17BD  1303               	bcf	3,6	;RP1=0, select bank0
  8046     17BE  0851               	movf	display_dashboard@event,w
  8047     17BF  00F6               	movwf	clcd_print@str
  8048     17C0  3000               	movlw	0
  8049     17C1  00F7               	movwf	clcd_print@str+1
  8050     17C2  30CB               	movlw	203
  8051     17C3  00F8               	movwf	clcd_print@addr
  8052     17C4  160A  118A  24B5  160A  118A  	fcall	_clcd_print
  8053                           
  8054                           ;car_bb.c: 58:     clcd_putch(speed / 10 + '0', (0xC0 + 14));
  8055     17C9  30CE               	movlw	206
  8056     17CA  1283               	bcf	3,5	;RP0=0, select bank0
  8057     17CB  1303               	bcf	3,6	;RP1=0, select bank0
  8058     17CC  00CC               	movwf	clcd_putch@addr
  8059     17CD  300A               	movlw	10
  8060     17CE  00F2               	movwf	___awdiv@divisor
  8061     17CF  3000               	movlw	0
  8062     17D0  00F3               	movwf	___awdiv@divisor+1
  8063     17D1  084E               	movf	display_dashboard@speed,w
  8064     17D2  00CF               	movwf	??_display_dashboard
  8065     17D3  01D0               	clrf	??_display_dashboard+1
  8066     17D4  084F               	movf	??_display_dashboard,w
  8067     17D5  00F4               	movwf	___awdiv@dividend
  8068     17D6  0850               	movf	??_display_dashboard+1,w
  8069     17D7  00F5               	movwf	___awdiv@dividend+1
  8070     17D8  120A  158A  2216  160A  118A  	fcall	___awdiv
  8071     17DD  0872               	movf	?___awdiv,w
  8072     17DE  3E30               	addlw	48
  8073     17DF  160A  118A  22D1  160A  118A  	fcall	_clcd_putch
  8074                           
  8075                           ;car_bb.c: 59:     clcd_putch(speed % 10 + '0', (0xC0 + 15));
  8076     17E4  30CF               	movlw	207
  8077     17E5  1283               	bcf	3,5	;RP0=0, select bank0
  8078     17E6  1303               	bcf	3,6	;RP1=0, select bank0
  8079     17E7  00CC               	movwf	clcd_putch@addr
  8080     17E8  300A               	movlw	10
  8081     17E9  00F2               	movwf	___awmod@divisor
  8082     17EA  3000               	movlw	0
  8083     17EB  00F3               	movwf	___awmod@divisor+1
  8084     17EC  084E               	movf	display_dashboard@speed,w
  8085     17ED  00CF               	movwf	??_display_dashboard
  8086     17EE  01D0               	clrf	??_display_dashboard+1
  8087     17EF  084F               	movf	??_display_dashboard,w
  8088     17F0  00F4               	movwf	___awmod@dividend
  8089     17F1  0850               	movf	??_display_dashboard+1,w
  8090     17F2  00F5               	movwf	___awmod@dividend+1
  8091     17F3  120A  158A  2155  160A  118A  	fcall	___awmod
  8092     17F8  0872               	movf	?___awmod,w
  8093     17F9  3E30               	addlw	48
  8094     17FA  160A  118A  22D1  160A  118A  	fcall	_clcd_putch
  8095     17FF                     l296:
  8096     17FF  0008               	return
  8097     1800                     __end_of_display_dashboard:
  8098                           
  8099                           	psect	text30
  8100     1753                     __ptext30:	
  8101 ;; *************** function _display_time *****************
  8102 ;; Defined at:
  8103 ;;		line 37 in file "car_bb.c"
  8104 ;; Parameters:    Size  Location     Type
  8105 ;;		None
  8106 ;; Auto vars:     Size  Location     Type
  8107 ;;		None
  8108 ;; Return value:  Size  Location     Type
  8109 ;;                  1    wreg      void 
  8110 ;; Registers used:
  8111 ;;		wreg, status,2, status,0, pclath, cstack
  8112 ;; Tracked objects:
  8113 ;;		On entry : 0/0
  8114 ;;		On exit  : 0/0
  8115 ;;		Unchanged: 0/0
  8116 ;; Data sizes:     COMMON   BANK0   BANK1   BANK3   BANK2
  8117 ;;      Params:         0       0       0       0       0
  8118 ;;      Locals:         0       0       0       0       0
  8119 ;;      Temps:          0       0       0       0       0
  8120 ;;      Totals:         0       0       0       0       0
  8121 ;;Total ram usage:        0 bytes
  8122 ;; Hardware stack levels used: 1
  8123 ;; Hardware stack levels required when called: 6
  8124 ;; This function calls:
  8125 ;;		_clcd_putch
  8126 ;;		_get_time
  8127 ;; This function is called by:
  8128 ;;		_display_dashboard
  8129 ;; This function uses a non-reentrant model
  8130 ;;
  8131                           
  8132     1753                     _display_time:	
  8133                           ;psect for function _display_time
  8134                           
  8135     1753                     l4151:	
  8136                           ;incstack = 0
  8137                           ; Regs used in _display_time: [wreg+status,2+status,0+pclath+cstack]
  8138                           
  8139                           
  8140                           ;car_bb.c: 39:     get_time();
  8141     1753  160A  118A  270A  160A  118A  	fcall	_get_time
  8142                           
  8143                           ;car_bb.c: 41:     clcd_putch(time[0], (0xC0 + 2));
  8144     1758  30C2               	movlw	194
  8145     1759  1283               	bcf	3,5	;RP0=0, select bank0
  8146     175A  1303               	bcf	3,6	;RP1=0, select bank0
  8147     175B  00CC               	movwf	clcd_putch@addr
  8148     175C  083A               	movf	_time,w
  8149     175D  160A  118A  22D1  160A  118A  	fcall	_clcd_putch
  8150                           
  8151                           ;car_bb.c: 42:     clcd_putch(time[1], (0xC0 + 3));
  8152     1762  30C3               	movlw	195
  8153     1763  1283               	bcf	3,5	;RP0=0, select bank0
  8154     1764  1303               	bcf	3,6	;RP1=0, select bank0
  8155     1765  00CC               	movwf	clcd_putch@addr
  8156     1766  083B               	movf	_time+1,w
  8157     1767  160A  118A  22D1  160A  118A  	fcall	_clcd_putch
  8158                           
  8159                           ;car_bb.c: 43:     clcd_putch(':', (0xC0 + 4));
  8160     176C  30C4               	movlw	196
  8161     176D  1283               	bcf	3,5	;RP0=0, select bank0
  8162     176E  1303               	bcf	3,6	;RP1=0, select bank0
  8163     176F  00CC               	movwf	clcd_putch@addr
  8164     1770  303A               	movlw	58
  8165     1771  160A  118A  22D1  160A  118A  	fcall	_clcd_putch
  8166                           
  8167                           ;car_bb.c: 44:     clcd_putch(time[2], (0xC0 + 5));
  8168     1776  30C5               	movlw	197
  8169     1777  1283               	bcf	3,5	;RP0=0, select bank0
  8170     1778  1303               	bcf	3,6	;RP1=0, select bank0
  8171     1779  00CC               	movwf	clcd_putch@addr
  8172     177A  083C               	movf	_time+2,w
  8173     177B  160A  118A  22D1  160A  118A  	fcall	_clcd_putch
  8174                           
  8175                           ;car_bb.c: 45:     clcd_putch(time[3], (0xC0 + 6));
  8176     1780  30C6               	movlw	198
  8177     1781  1283               	bcf	3,5	;RP0=0, select bank0
  8178     1782  1303               	bcf	3,6	;RP1=0, select bank0
  8179     1783  00CC               	movwf	clcd_putch@addr
  8180     1784  083D               	movf	_time+3,w
  8181     1785  160A  118A  22D1  160A  118A  	fcall	_clcd_putch
  8182                           
  8183                           ;car_bb.c: 46:     clcd_putch(':', (0xC0 + 7));
  8184     178A  30C7               	movlw	199
  8185     178B  1283               	bcf	3,5	;RP0=0, select bank0
  8186     178C  1303               	bcf	3,6	;RP1=0, select bank0
  8187     178D  00CC               	movwf	clcd_putch@addr
  8188     178E  303A               	movlw	58
  8189     178F  160A  118A  22D1  160A  118A  	fcall	_clcd_putch
  8190                           
  8191                           ;car_bb.c: 47:     clcd_putch(time[4], (0xC0 + 8));
  8192     1794  30C8               	movlw	200
  8193     1795  1283               	bcf	3,5	;RP0=0, select bank0
  8194     1796  1303               	bcf	3,6	;RP1=0, select bank0
  8195     1797  00CC               	movwf	clcd_putch@addr
  8196     1798  083E               	movf	_time+4,w
  8197     1799  160A  118A  22D1  160A  118A  	fcall	_clcd_putch
  8198                           
  8199                           ;car_bb.c: 48:     clcd_putch(time[5], (0xC0 + 9));
  8200     179E  30C9               	movlw	201
  8201     179F  1283               	bcf	3,5	;RP0=0, select bank0
  8202     17A0  1303               	bcf	3,6	;RP1=0, select bank0
  8203     17A1  00CC               	movwf	clcd_putch@addr
  8204     17A2  083F               	movf	_time+5,w
  8205     17A3  160A  118A  22D1  160A  118A  	fcall	_clcd_putch
  8206     17A8                     l293:
  8207     17A8  0008               	return
  8208     17A9                     __end_of_display_time:
  8209                           
  8210                           	psect	text31
  8211     170A                     __ptext31:	
  8212 ;; *************** function _get_time *****************
  8213 ;; Defined at:
  8214 ;;		line 20 in file "car_bb.c"
  8215 ;; Parameters:    Size  Location     Type
  8216 ;;		None
  8217 ;; Auto vars:     Size  Location     Type
  8218 ;;		None
  8219 ;; Return value:  Size  Location     Type
  8220 ;;                  1    wreg      void 
  8221 ;; Registers used:
  8222 ;;		wreg, status,2, status,0, pclath, cstack
  8223 ;; Tracked objects:
  8224 ;;		On entry : 0/0
  8225 ;;		On exit  : 0/0
  8226 ;;		Unchanged: 0/0
  8227 ;; Data sizes:     COMMON   BANK0   BANK1   BANK3   BANK2
  8228 ;;      Params:         0       0       0       0       0
  8229 ;;      Locals:         0       0       0       0       0
  8230 ;;      Temps:          1       0       0       0       0
  8231 ;;      Totals:         1       0       0       0       0
  8232 ;;Total ram usage:        1 bytes
  8233 ;; Hardware stack levels used: 1
  8234 ;; Hardware stack levels required when called: 5
  8235 ;; This function calls:
  8236 ;;		_read_ds1307
  8237 ;; This function is called by:
  8238 ;;		_display_time
  8239 ;;		_log_car_event
  8240 ;;		_set_time
  8241 ;; This function uses a non-reentrant model
  8242 ;;
  8243                           
  8244     170A                     _get_time:	
  8245                           ;psect for function _get_time
  8246                           
  8247     170A                     l4047:	
  8248                           ;incstack = 0
  8249                           ; Regs used in _get_time: [wreg+status,2+status,0+pclath+cstack]
  8250                           
  8251                           
  8252                           ;car_bb.c: 22:     clock_reg[0] = read_ds1307(0x02);
  8253     170A  3002               	movlw	2
  8254     170B  160A  118A  245F  160A  118A  	fcall	_read_ds1307
  8255     1710  00F9               	movwf	_clock_reg
  8256                           
  8257                           ;car_bb.c: 23:     clock_reg[1] = read_ds1307(0x01);
  8258     1711  3001               	movlw	1
  8259     1712  160A  118A  245F  160A  118A  	fcall	_read_ds1307
  8260     1717  00FA               	movwf	_clock_reg+1
  8261                           
  8262                           ;car_bb.c: 24:     clock_reg[2] = read_ds1307(0x00);
  8263     1718  3000               	movlw	0
  8264     1719  160A  118A  245F  160A  118A  	fcall	_read_ds1307
  8265     171E  00FB               	movwf	_clock_reg+2
  8266     171F                     l4049:
  8267                           
  8268                           ;car_bb.c: 26:     time[0] = ((clock_reg[0] >> 4) & 0x03) + '0';
  8269     171F  0879               	movf	_clock_reg,w
  8270     1720  00F6               	movwf	??_get_time
  8271     1721  3004               	movlw	4
  8272     1722                     u3135:
  8273     1722  1003               	clrc
  8274     1723  0CF6               	rrf	??_get_time,f
  8275     1724  3EFF               	addlw	-1
  8276     1725  1D03               	skipz
  8277     1726  2F22               	goto	u3135
  8278     1727  0876               	movf	??_get_time,w
  8279     1728  3903               	andlw	3
  8280     1729  3E30               	addlw	48
  8281     172A  1283               	bcf	3,5	;RP0=0, select bank0
  8282     172B  1303               	bcf	3,6	;RP1=0, select bank0
  8283     172C  00BA               	movwf	_time
  8284     172D                     l4051:
  8285                           
  8286                           ;car_bb.c: 27:     time[1] = (clock_reg[0] & 0x0F) + '0';
  8287     172D  0879               	movf	_clock_reg,w
  8288     172E  390F               	andlw	15
  8289     172F  3E30               	addlw	48
  8290     1730  00BB               	movwf	_time+1
  8291     1731                     l4053:
  8292                           
  8293                           ;car_bb.c: 29:     time[2] = ((clock_reg[1] >> 4) & 0x07) + '0';
  8294     1731  087A               	movf	_clock_reg+1,w
  8295     1732  00F6               	movwf	??_get_time
  8296     1733  3004               	movlw	4
  8297     1734                     u3145:
  8298     1734  1003               	clrc
  8299     1735  0CF6               	rrf	??_get_time,f
  8300     1736  3EFF               	addlw	-1
  8301     1737  1D03               	skipz
  8302     1738  2F34               	goto	u3145
  8303     1739  0876               	movf	??_get_time,w
  8304     173A  3907               	andlw	7
  8305     173B  3E30               	addlw	48
  8306     173C  00BC               	movwf	_time+2
  8307     173D                     l4055:
  8308                           
  8309                           ;car_bb.c: 30:     time[3] = (clock_reg[1] & 0x0F) + '0';
  8310     173D  087A               	movf	_clock_reg+1,w
  8311     173E  390F               	andlw	15
  8312     173F  3E30               	addlw	48
  8313     1740  00BD               	movwf	_time+3
  8314     1741                     l4057:
  8315                           
  8316                           ;car_bb.c: 32:     time[4] = ((clock_reg[2] >> 4) & 0x07) + '0';
  8317     1741  087B               	movf	_clock_reg+2,w
  8318     1742  00F6               	movwf	??_get_time
  8319     1743  3004               	movlw	4
  8320     1744                     u3155:
  8321     1744  1003               	clrc
  8322     1745  0CF6               	rrf	??_get_time,f
  8323     1746  3EFF               	addlw	-1
  8324     1747  1D03               	skipz
  8325     1748  2F44               	goto	u3155
  8326     1749  0876               	movf	??_get_time,w
  8327     174A  3907               	andlw	7
  8328     174B  3E30               	addlw	48
  8329     174C  00BE               	movwf	_time+4
  8330     174D                     l4059:
  8331                           
  8332                           ;car_bb.c: 33:     time[5] = (clock_reg[2] & 0x0F) + '0';
  8333     174D  087B               	movf	_clock_reg+2,w
  8334     174E  390F               	andlw	15
  8335     174F  3E30               	addlw	48
  8336     1750  00BF               	movwf	_time+5
  8337     1751                     l4061:
  8338                           
  8339                           ;car_bb.c: 34:     time[6] = '\0';
  8340     1751  01C0               	clrf	_time+6
  8341     1752                     l290:
  8342     1752  0008               	return
  8343     1753                     __end_of_get_time:
  8344                           
  8345                           	psect	text32
  8346     145F                     __ptext32:	
  8347 ;; *************** function _read_ds1307 *****************
  8348 ;; Defined at:
  8349 ;;		line 19 in file "ds1307.c"
  8350 ;; Parameters:    Size  Location     Type
  8351 ;;  addr            1    wreg     unsigned char 
  8352 ;; Auto vars:     Size  Location     Type
  8353 ;;  addr            1    4[COMMON] unsigned char 
  8354 ;;  data            1    5[COMMON] unsigned char 
  8355 ;; Return value:  Size  Location     Type
  8356 ;;                  1    wreg      unsigned char 
  8357 ;; Registers used:
  8358 ;;		wreg, status,2, status,0, pclath, cstack
  8359 ;; Tracked objects:
  8360 ;;		On entry : 0/0
  8361 ;;		On exit  : 0/0
  8362 ;;		Unchanged: 0/0
  8363 ;; Data sizes:     COMMON   BANK0   BANK1   BANK3   BANK2
  8364 ;;      Params:         0       0       0       0       0
  8365 ;;      Locals:         2       0       0       0       0
  8366 ;;      Temps:          0       0       0       0       0
  8367 ;;      Totals:         2       0       0       0       0
  8368 ;;Total ram usage:        2 bytes
  8369 ;; Hardware stack levels used: 1
  8370 ;; Hardware stack levels required when called: 4
  8371 ;; This function calls:
  8372 ;;		_i2c_read
  8373 ;;		_i2c_rep_start
  8374 ;;		_i2c_start
  8375 ;;		_i2c_stop
  8376 ;;		_i2c_write
  8377 ;; This function is called by:
  8378 ;;		_init_ds1307
  8379 ;;		_get_time
  8380 ;; This function uses a non-reentrant model
  8381 ;;
  8382                           
  8383     145F                     _read_ds1307:	
  8384                           ;psect for function _read_ds1307
  8385                           
  8386                           
  8387                           ;incstack = 0
  8388                           ; Regs used in _read_ds1307: [wreg+status,2+status,0+pclath+cstack]
  8389                           ;read_ds1307@addr stored from wreg
  8390     145F  00F4               	movwf	read_ds1307@addr
  8391     1460                     l4003:
  8392                           
  8393                           ;ds1307.c: 19: unsigned char read_ds1307(unsigned char addr);ds1307.c: 20: {;ds1307.c: 2
      +                          1:     unsigned char data;;ds1307.c: 23:     i2c_start();
  8394     1460  160A  118A  223D  160A  118A  	fcall	_i2c_start
  8395                           
  8396                           ;ds1307.c: 24:     i2c_write(0b11010000);
  8397     1465  30D0               	movlw	208
  8398     1466  160A  118A  224F  160A  118A  	fcall	_i2c_write
  8399                           
  8400                           ;ds1307.c: 25:     i2c_write(addr);
  8401     146B  0874               	movf	read_ds1307@addr,w
  8402     146C  160A  118A  224F  160A  118A  	fcall	_i2c_write
  8403                           
  8404                           ;ds1307.c: 26:     i2c_rep_start();
  8405     1471  160A  118A  225A  160A  118A  	fcall	_i2c_rep_start
  8406                           
  8407                           ;ds1307.c: 27:     i2c_write(0b11010001);
  8408     1476  30D1               	movlw	209
  8409     1477  160A  118A  224F  160A  118A  	fcall	_i2c_write
  8410                           
  8411                           ;ds1307.c: 28:     data = i2c_read(0);
  8412     147C  3000               	movlw	0
  8413     147D  160A  118A  2352  160A  118A  	fcall	_i2c_read
  8414     1482  00F5               	movwf	read_ds1307@data
  8415                           
  8416                           ;ds1307.c: 29:     i2c_stop();
  8417     1483  160A  118A  2246  160A  118A  	fcall	_i2c_stop
  8418     1488                     l4005:
  8419                           
  8420                           ;ds1307.c: 31:     return data;
  8421     1488  0875               	movf	read_ds1307@data,w
  8422     1489                     l52:
  8423     1489  0008               	return
  8424     148A                     __end_of_read_ds1307:
  8425                           
  8426                           	psect	text33
  8427     125A                     __ptext33:	
  8428 ;; *************** function _i2c_rep_start *****************
  8429 ;; Defined at:
  8430 ;;		line 34 in file "i2c.c"
  8431 ;; Parameters:    Size  Location     Type
  8432 ;;		None
  8433 ;; Auto vars:     Size  Location     Type
  8434 ;;		None
  8435 ;; Return value:  Size  Location     Type
  8436 ;;                  1    wreg      void 
  8437 ;; Registers used:
  8438 ;;		wreg, status,2, status,0, pclath, cstack
  8439 ;; Tracked objects:
  8440 ;;		On entry : 0/0
  8441 ;;		On exit  : 0/0
  8442 ;;		Unchanged: 0/0
  8443 ;; Data sizes:     COMMON   BANK0   BANK1   BANK3   BANK2
  8444 ;;      Params:         0       0       0       0       0
  8445 ;;      Locals:         0       0       0       0       0
  8446 ;;      Temps:          0       0       0       0       0
  8447 ;;      Totals:         0       0       0       0       0
  8448 ;;Total ram usage:        0 bytes
  8449 ;; Hardware stack levels used: 1
  8450 ;; Hardware stack levels required when called: 3
  8451 ;; This function calls:
  8452 ;;		_i2c_start
  8453 ;;		_i2c_stop
  8454 ;; This function is called by:
  8455 ;;		_read_ds1307
  8456 ;;		_eeprom_at24c04_random_read
  8457 ;; This function uses a non-reentrant model
  8458 ;;
  8459                           
  8460     125A                     _i2c_rep_start:	
  8461                           ;psect for function _i2c_rep_start
  8462                           
  8463     125A                     l3979:	
  8464                           ;incstack = 0
  8465                           ; Regs used in _i2c_rep_start: [wreg+status,2+status,0+pclath+cstack]
  8466                           
  8467                           
  8468                           ;i2c.c: 36:     i2c_stop();
  8469     125A  160A  118A  2246  160A  118A  	fcall	_i2c_stop
  8470                           
  8471                           ;i2c.c: 37:     i2c_start();
  8472     125F  160A  118A  223D  160A  118A  	fcall	_i2c_start
  8473     1264                     l96:
  8474     1264  0008               	return
  8475     1265                     __end_of_i2c_rep_start:
  8476                           
  8477                           	psect	text34
  8478     1352                     __ptext34:	
  8479 ;; *************** function _i2c_read *****************
  8480 ;; Defined at:
  8481 ;;		line 47 in file "i2c.c"
  8482 ;; Parameters:    Size  Location     Type
  8483 ;;  ack             1    wreg     unsigned char 
  8484 ;; Auto vars:     Size  Location     Type
  8485 ;;  ack             1    2[COMMON] unsigned char 
  8486 ;;  data            1    3[COMMON] unsigned char 
  8487 ;; Return value:  Size  Location     Type
  8488 ;;                  1    wreg      unsigned char 
  8489 ;; Registers used:
  8490 ;;		wreg, status,2, status,0, pclath, cstack
  8491 ;; Tracked objects:
  8492 ;;		On entry : 0/0
  8493 ;;		On exit  : 0/0
  8494 ;;		Unchanged: 0/0
  8495 ;; Data sizes:     COMMON   BANK0   BANK1   BANK3   BANK2
  8496 ;;      Params:         0       0       0       0       0
  8497 ;;      Locals:         2       0       0       0       0
  8498 ;;      Temps:          0       0       0       0       0
  8499 ;;      Totals:         2       0       0       0       0
  8500 ;;Total ram usage:        2 bytes
  8501 ;; Hardware stack levels used: 1
  8502 ;; Hardware stack levels required when called: 2
  8503 ;; This function calls:
  8504 ;;		_i2c_wait_for_idle
  8505 ;; This function is called by:
  8506 ;;		_read_ds1307
  8507 ;;		_eeprom_at24c04_random_read
  8508 ;; This function uses a non-reentrant model
  8509 ;;
  8510                           
  8511     1352                     _i2c_read:	
  8512                           ;psect for function _i2c_read
  8513                           
  8514                           
  8515                           ;incstack = 0
  8516                           ; Regs used in _i2c_read: [wreg+status,2+status,0+pclath+cstack]
  8517                           ;i2c_read@ack stored from wreg
  8518     1352  00F2               	movwf	i2c_read@ack
  8519     1353                     l3981:
  8520                           
  8521                           ;i2c.c: 47: unsigned char i2c_read(unsigned char ack);i2c.c: 48: {;i2c.c: 49:     unsign
      +                          ed char data;;i2c.c: 51:     i2c_wait_for_idle();
  8522     1353  160A  118A  227B  160A  118A  	fcall	_i2c_wait_for_idle
  8523     1358                     l3983:
  8524                           
  8525                           ;i2c.c: 52:     RCEN = 1;
  8526     1358  1683               	bsf	3,5	;RP0=1, select bank1
  8527     1359  1303               	bcf	3,6	;RP1=0, select bank1
  8528     135A  1591               	bsf	17,3	;volatile
  8529                           
  8530                           ;i2c.c: 54:     i2c_wait_for_idle();
  8531     135B  160A  118A  227B  160A  118A  	fcall	_i2c_wait_for_idle
  8532     1360                     l3985:
  8533                           
  8534                           ;i2c.c: 55:     data = SSPBUF;
  8535     1360  1283               	bcf	3,5	;RP0=0, select bank0
  8536     1361  1303               	bcf	3,6	;RP1=0, select bank0
  8537     1362  0813               	movf	19,w	;volatile
  8538     1363  00F3               	movwf	i2c_read@data
  8539     1364                     l3987:
  8540                           
  8541                           ;i2c.c: 57:     if (ack == 1)
  8542     1364  0372               	decf	i2c_read@ack,w
  8543     1365  1D03               	btfss	3,2
  8544     1366  2B68               	goto	u3091
  8545     1367  2B69               	goto	u3090
  8546     1368                     u3091:
  8547     1368  2B6D               	goto	l102
  8548     1369                     u3090:
  8549     1369                     l3989:
  8550                           
  8551                           ;i2c.c: 58:     {;i2c.c: 59:         ACKDT = 1;
  8552     1369  1683               	bsf	3,5	;RP0=1, select bank1
  8553     136A  1303               	bcf	3,6	;RP1=0, select bank1
  8554     136B  1691               	bsf	17,5	;volatile
  8555                           
  8556                           ;i2c.c: 60:     }
  8557     136C  2B70               	goto	l103
  8558     136D                     l102:	
  8559                           ;i2c.c: 61:     else
  8560                           
  8561                           
  8562                           ;i2c.c: 62:     {;i2c.c: 63:         ACKDT = 0;
  8563     136D  1683               	bsf	3,5	;RP0=1, select bank1
  8564     136E  1303               	bcf	3,6	;RP1=0, select bank1
  8565     136F  1291               	bcf	17,5	;volatile
  8566     1370                     l103:	
  8567                           ;i2c.c: 64:     }
  8568                           
  8569                           
  8570                           ;i2c.c: 66:     ACKEN = 1;
  8571     1370  1611               	bsf	17,4	;volatile
  8572     1371                     l3991:
  8573                           
  8574                           ;i2c.c: 68:     return data;
  8575     1371  0873               	movf	i2c_read@data,w
  8576     1372                     l104:
  8577     1372  0008               	return
  8578     1373                     __end_of_i2c_read:
  8579                           
  8580                           	psect	text35
  8581     0955                     __ptext35:	
  8582 ;; *************** function ___awmod *****************
  8583 ;; Defined at:
  8584 ;;		line 5 in file "C:\Program Files\Microchip\xc8\v2.40\pic\sources\c90\common\awmod.c"
  8585 ;; Parameters:    Size  Location     Type
  8586 ;;  divisor         2    2[COMMON] int 
  8587 ;;  dividend        2    4[COMMON] int 
  8588 ;; Auto vars:     Size  Location     Type
  8589 ;;  sign            1    8[COMMON] unsigned char 
  8590 ;;  counter         1    7[COMMON] unsigned char 
  8591 ;; Return value:  Size  Location     Type
  8592 ;;                  2    2[COMMON] int 
  8593 ;; Registers used:
  8594 ;;		wreg, status,2, status,0
  8595 ;; Tracked objects:
  8596 ;;		On entry : 0/0
  8597 ;;		On exit  : 0/0
  8598 ;;		Unchanged: 0/0
  8599 ;; Data sizes:     COMMON   BANK0   BANK1   BANK3   BANK2
  8600 ;;      Params:         4       0       0       0       0
  8601 ;;      Locals:         2       0       0       0       0
  8602 ;;      Temps:          1       0       0       0       0
  8603 ;;      Totals:         7       0       0       0       0
  8604 ;;Total ram usage:        7 bytes
  8605 ;; Hardware stack levels used: 1
  8606 ;; Hardware stack levels required when called: 1
  8607 ;; This function calls:
  8608 ;;		Nothing
  8609 ;; This function is called by:
  8610 ;;		_display_dashboard
  8611 ;;		_log_car_event
  8612 ;;		_download_log
  8613 ;;		_set_time
  8614 ;;		_login
  8615 ;; This function uses a non-reentrant model
  8616 ;;
  8617                           
  8618     0955                     ___awmod:	
  8619                           ;psect for function ___awmod
  8620                           
  8621     0955                     l4289:	
  8622                           ;incstack = 0
  8623                           ; Regs used in ___awmod: [wreg+status,2+status,0]
  8624                           
  8625     0955  01F8               	clrf	___awmod@sign
  8626     0956                     l4291:
  8627     0956  1FF5               	btfss	___awmod@dividend+1,7
  8628     0957  2959               	goto	u3521
  8629     0958  295A               	goto	u3520
  8630     0959                     u3521:
  8631     0959  2961               	goto	l4297
  8632     095A                     u3520:
  8633     095A                     l4293:
  8634     095A  09F4               	comf	___awmod@dividend,f
  8635     095B  09F5               	comf	___awmod@dividend+1,f
  8636     095C  0AF4               	incf	___awmod@dividend,f
  8637     095D  1903               	skipnz
  8638     095E  0AF5               	incf	___awmod@dividend+1,f
  8639     095F                     l4295:
  8640     095F  01F8               	clrf	___awmod@sign
  8641     0960  0AF8               	incf	___awmod@sign,f
  8642     0961                     l4297:
  8643     0961  1FF3               	btfss	___awmod@divisor+1,7
  8644     0962  2964               	goto	u3531
  8645     0963  2965               	goto	u3530
  8646     0964                     u3531:
  8647     0964  296A               	goto	l4301
  8648     0965                     u3530:
  8649     0965                     l4299:
  8650     0965  09F2               	comf	___awmod@divisor,f
  8651     0966  09F3               	comf	___awmod@divisor+1,f
  8652     0967  0AF2               	incf	___awmod@divisor,f
  8653     0968  1903               	skipnz
  8654     0969  0AF3               	incf	___awmod@divisor+1,f
  8655     096A                     l4301:
  8656     096A  0872               	movf	___awmod@divisor,w
  8657     096B  0473               	iorwf	___awmod@divisor+1,w
  8658     096C  1903               	btfsc	3,2
  8659     096D  296F               	goto	u3541
  8660     096E  2970               	goto	u3540
  8661     096F                     u3541:
  8662     096F  299F               	goto	l4319
  8663     0970                     u3540:
  8664     0970                     l4303:
  8665     0970  01F7               	clrf	___awmod@counter
  8666     0971  0AF7               	incf	___awmod@counter,f
  8667     0972  297E               	goto	l4309
  8668     0973                     l4305:
  8669     0973  3001               	movlw	1
  8670     0974                     u3555:
  8671     0974  1003               	clrc
  8672     0975  0DF2               	rlf	___awmod@divisor,f
  8673     0976  0DF3               	rlf	___awmod@divisor+1,f
  8674     0977  3EFF               	addlw	-1
  8675     0978  1D03               	skipz
  8676     0979  2974               	goto	u3555
  8677     097A                     l4307:
  8678     097A  3001               	movlw	1
  8679     097B  00F6               	movwf	??___awmod
  8680     097C  0876               	movf	??___awmod,w
  8681     097D  07F7               	addwf	___awmod@counter,f
  8682     097E                     l4309:
  8683     097E  1FF3               	btfss	___awmod@divisor+1,7
  8684     097F  2981               	goto	u3561
  8685     0980  2982               	goto	u3560
  8686     0981                     u3561:
  8687     0981  2973               	goto	l4305
  8688     0982                     u3560:
  8689     0982                     l4311:
  8690     0982  0873               	movf	___awmod@divisor+1,w
  8691     0983  0275               	subwf	___awmod@dividend+1,w
  8692     0984  1D03               	skipz
  8693     0985  2988               	goto	u3575
  8694     0986  0872               	movf	___awmod@divisor,w
  8695     0987  0274               	subwf	___awmod@dividend,w
  8696     0988                     u3575:
  8697     0988  1C03               	skipc
  8698     0989  298B               	goto	u3571
  8699     098A  298C               	goto	u3570
  8700     098B                     u3571:
  8701     098B  2992               	goto	l4315
  8702     098C                     u3570:
  8703     098C                     l4313:
  8704     098C  0872               	movf	___awmod@divisor,w
  8705     098D  02F4               	subwf	___awmod@dividend,f
  8706     098E  0873               	movf	___awmod@divisor+1,w
  8707     098F  1C03               	skipc
  8708     0990  03F5               	decf	___awmod@dividend+1,f
  8709     0991  02F5               	subwf	___awmod@dividend+1,f
  8710     0992                     l4315:
  8711     0992  3001               	movlw	1
  8712     0993                     u3585:
  8713     0993  1003               	clrc
  8714     0994  0CF3               	rrf	___awmod@divisor+1,f
  8715     0995  0CF2               	rrf	___awmod@divisor,f
  8716     0996  3EFF               	addlw	-1
  8717     0997  1D03               	skipz
  8718     0998  2993               	goto	u3585
  8719     0999                     l4317:
  8720     0999  3001               	movlw	1
  8721     099A  02F7               	subwf	___awmod@counter,f
  8722     099B  1D03               	btfss	3,2
  8723     099C  299E               	goto	u3591
  8724     099D  299F               	goto	u3590
  8725     099E                     u3591:
  8726     099E  2982               	goto	l4311
  8727     099F                     u3590:
  8728     099F                     l4319:
  8729     099F  0878               	movf	___awmod@sign,w
  8730     09A0  1903               	btfsc	3,2
  8731     09A1  29A3               	goto	u3601
  8732     09A2  29A4               	goto	u3600
  8733     09A3                     u3601:
  8734     09A3  29A9               	goto	l4323
  8735     09A4                     u3600:
  8736     09A4                     l4321:
  8737     09A4  09F4               	comf	___awmod@dividend,f
  8738     09A5  09F5               	comf	___awmod@dividend+1,f
  8739     09A6  0AF4               	incf	___awmod@dividend,f
  8740     09A7  1903               	skipnz
  8741     09A8  0AF5               	incf	___awmod@dividend+1,f
  8742     09A9                     l4323:
  8743     09A9  0875               	movf	___awmod@dividend+1,w
  8744     09AA  00F3               	movwf	?___awmod+1
  8745     09AB  0874               	movf	___awmod@dividend,w
  8746     09AC  00F2               	movwf	?___awmod
  8747     09AD                     l784:
  8748     09AD  0008               	return
  8749     09AE                     __end_of___awmod:
  8750                           
  8751                           	psect	text36
  8752     0A16                     __ptext36:	
  8753 ;; *************** function ___awdiv *****************
  8754 ;; Defined at:
  8755 ;;		line 5 in file "C:\Program Files\Microchip\xc8\v2.40\pic\sources\c90\common\awdiv.c"
  8756 ;; Parameters:    Size  Location     Type
  8757 ;;  divisor         2    2[COMMON] int 
  8758 ;;  dividend        2    4[COMMON] int 
  8759 ;; Auto vars:     Size  Location     Type
  8760 ;;  quotient        2    2[BANK0 ] int 
  8761 ;;  sign            1    1[BANK0 ] unsigned char 
  8762 ;;  counter         1    0[BANK0 ] unsigned char 
  8763 ;; Return value:  Size  Location     Type
  8764 ;;                  2    2[COMMON] int 
  8765 ;; Registers used:
  8766 ;;		wreg, status,2, status,0
  8767 ;; Tracked objects:
  8768 ;;		On entry : 0/0
  8769 ;;		On exit  : 0/0
  8770 ;;		Unchanged: 0/0
  8771 ;; Data sizes:     COMMON   BANK0   BANK1   BANK3   BANK2
  8772 ;;      Params:         4       0       0       0       0
  8773 ;;      Locals:         0       4       0       0       0
  8774 ;;      Temps:          1       0       0       0       0
  8775 ;;      Totals:         5       4       0       0       0
  8776 ;;Total ram usage:        9 bytes
  8777 ;; Hardware stack levels used: 1
  8778 ;; Hardware stack levels required when called: 1
  8779 ;; This function calls:
  8780 ;;		Nothing
  8781 ;; This function is called by:
  8782 ;;		_display_dashboard
  8783 ;;		_log_car_event
  8784 ;;		_login
  8785 ;; This function uses a non-reentrant model
  8786 ;;
  8787                           
  8788     0A16                     ___awdiv:	
  8789                           ;psect for function ___awdiv
  8790                           
  8791     0A16                     l4245:	
  8792                           ;incstack = 0
  8793                           ; Regs used in ___awdiv: [wreg+status,2+status,0]
  8794                           
  8795     0A16  1283               	bcf	3,5	;RP0=0, select bank0
  8796     0A17  1303               	bcf	3,6	;RP1=0, select bank0
  8797     0A18  01C6               	clrf	___awdiv@sign
  8798     0A19                     l4247:
  8799     0A19  1FF3               	btfss	___awdiv@divisor+1,7
  8800     0A1A  2A1C               	goto	u3421
  8801     0A1B  2A1D               	goto	u3420
  8802     0A1C                     u3421:
  8803     0A1C  2A24               	goto	l4253
  8804     0A1D                     u3420:
  8805     0A1D                     l4249:
  8806     0A1D  09F2               	comf	___awdiv@divisor,f
  8807     0A1E  09F3               	comf	___awdiv@divisor+1,f
  8808     0A1F  0AF2               	incf	___awdiv@divisor,f
  8809     0A20  1903               	skipnz
  8810     0A21  0AF3               	incf	___awdiv@divisor+1,f
  8811     0A22                     l4251:
  8812     0A22  01C6               	clrf	___awdiv@sign
  8813     0A23  0AC6               	incf	___awdiv@sign,f
  8814     0A24                     l4253:
  8815     0A24  1FF5               	btfss	___awdiv@dividend+1,7
  8816     0A25  2A27               	goto	u3431
  8817     0A26  2A28               	goto	u3430
  8818     0A27                     u3431:
  8819     0A27  2A31               	goto	l4259
  8820     0A28                     u3430:
  8821     0A28                     l4255:
  8822     0A28  09F4               	comf	___awdiv@dividend,f
  8823     0A29  09F5               	comf	___awdiv@dividend+1,f
  8824     0A2A  0AF4               	incf	___awdiv@dividend,f
  8825     0A2B  1903               	skipnz
  8826     0A2C  0AF5               	incf	___awdiv@dividend+1,f
  8827     0A2D                     l4257:
  8828     0A2D  3001               	movlw	1
  8829     0A2E  00F6               	movwf	??___awdiv
  8830     0A2F  0876               	movf	??___awdiv,w
  8831     0A30  06C6               	xorwf	___awdiv@sign,f
  8832     0A31                     l4259:
  8833     0A31  01C7               	clrf	___awdiv@quotient
  8834     0A32  01C8               	clrf	___awdiv@quotient+1
  8835     0A33                     l4261:
  8836     0A33  0872               	movf	___awdiv@divisor,w
  8837     0A34  0473               	iorwf	___awdiv@divisor+1,w
  8838     0A35  1903               	btfsc	3,2
  8839     0A36  2A38               	goto	u3441
  8840     0A37  2A39               	goto	u3440
  8841     0A38                     u3441:
  8842     0A38  2A70               	goto	l4281
  8843     0A39                     u3440:
  8844     0A39                     l4263:
  8845     0A39  01C5               	clrf	___awdiv@counter
  8846     0A3A  0AC5               	incf	___awdiv@counter,f
  8847     0A3B  2A47               	goto	l4269
  8848     0A3C                     l4265:
  8849     0A3C  3001               	movlw	1
  8850     0A3D                     u3455:
  8851     0A3D  1003               	clrc
  8852     0A3E  0DF2               	rlf	___awdiv@divisor,f
  8853     0A3F  0DF3               	rlf	___awdiv@divisor+1,f
  8854     0A40  3EFF               	addlw	-1
  8855     0A41  1D03               	skipz
  8856     0A42  2A3D               	goto	u3455
  8857     0A43                     l4267:
  8858     0A43  3001               	movlw	1
  8859     0A44  00F6               	movwf	??___awdiv
  8860     0A45  0876               	movf	??___awdiv,w
  8861     0A46  07C5               	addwf	___awdiv@counter,f
  8862     0A47                     l4269:
  8863     0A47  1FF3               	btfss	___awdiv@divisor+1,7
  8864     0A48  2A4A               	goto	u3461
  8865     0A49  2A4B               	goto	u3460
  8866     0A4A                     u3461:
  8867     0A4A  2A3C               	goto	l4265
  8868     0A4B                     u3460:
  8869     0A4B                     l4271:
  8870     0A4B  3001               	movlw	1
  8871     0A4C                     u3475:
  8872     0A4C  1003               	clrc
  8873     0A4D  0DC7               	rlf	___awdiv@quotient,f
  8874     0A4E  0DC8               	rlf	___awdiv@quotient+1,f
  8875     0A4F  3EFF               	addlw	-1
  8876     0A50  1D03               	skipz
  8877     0A51  2A4C               	goto	u3475
  8878     0A52  0873               	movf	___awdiv@divisor+1,w
  8879     0A53  0275               	subwf	___awdiv@dividend+1,w
  8880     0A54  1D03               	skipz
  8881     0A55  2A58               	goto	u3485
  8882     0A56  0872               	movf	___awdiv@divisor,w
  8883     0A57  0274               	subwf	___awdiv@dividend,w
  8884     0A58                     u3485:
  8885     0A58  1C03               	skipc
  8886     0A59  2A5B               	goto	u3481
  8887     0A5A  2A5C               	goto	u3480
  8888     0A5B                     u3481:
  8889     0A5B  2A63               	goto	l4277
  8890     0A5C                     u3480:
  8891     0A5C                     l4273:
  8892     0A5C  0872               	movf	___awdiv@divisor,w
  8893     0A5D  02F4               	subwf	___awdiv@dividend,f
  8894     0A5E  0873               	movf	___awdiv@divisor+1,w
  8895     0A5F  1C03               	skipc
  8896     0A60  03F5               	decf	___awdiv@dividend+1,f
  8897     0A61  02F5               	subwf	___awdiv@dividend+1,f
  8898     0A62                     l4275:
  8899     0A62  1447               	bsf	___awdiv@quotient,0
  8900     0A63                     l4277:
  8901     0A63  3001               	movlw	1
  8902     0A64                     u3495:
  8903     0A64  1003               	clrc
  8904     0A65  0CF3               	rrf	___awdiv@divisor+1,f
  8905     0A66  0CF2               	rrf	___awdiv@divisor,f
  8906     0A67  3EFF               	addlw	-1
  8907     0A68  1D03               	skipz
  8908     0A69  2A64               	goto	u3495
  8909     0A6A                     l4279:
  8910     0A6A  3001               	movlw	1
  8911     0A6B  02C5               	subwf	___awdiv@counter,f
  8912     0A6C  1D03               	btfss	3,2
  8913     0A6D  2A6F               	goto	u3501
  8914     0A6E  2A70               	goto	u3500
  8915     0A6F                     u3501:
  8916     0A6F  2A4B               	goto	l4271
  8917     0A70                     u3500:
  8918     0A70                     l4281:
  8919     0A70  0846               	movf	___awdiv@sign,w
  8920     0A71  1903               	btfsc	3,2
  8921     0A72  2A74               	goto	u3511
  8922     0A73  2A75               	goto	u3510
  8923     0A74                     u3511:
  8924     0A74  2A7A               	goto	l4285
  8925     0A75                     u3510:
  8926     0A75                     l4283:
  8927     0A75  09C7               	comf	___awdiv@quotient,f
  8928     0A76  09C8               	comf	___awdiv@quotient+1,f
  8929     0A77  0AC7               	incf	___awdiv@quotient,f
  8930     0A78  1903               	skipnz
  8931     0A79  0AC8               	incf	___awdiv@quotient+1,f
  8932     0A7A                     l4285:
  8933     0A7A  0848               	movf	___awdiv@quotient+1,w
  8934     0A7B  00F3               	movwf	?___awdiv+1
  8935     0A7C  0847               	movf	___awdiv@quotient,w
  8936     0A7D  00F2               	movwf	?___awdiv
  8937     0A7E                     l771:
  8938     0A7E  0008               	return
  8939     0A7F                     __end_of___awdiv:
  8940                           
  8941                           	psect	text37
  8942     1434                     __ptext37:	
  8943 ;; *************** function _clear_log *****************
  8944 ;; Defined at:
  8945 ;;		line 282 in file "car_bb.c"
  8946 ;; Parameters:    Size  Location     Type
  8947 ;;  reset_flag      1    wreg     unsigned char 
  8948 ;; Auto vars:     Size  Location     Type
  8949 ;;  reset_flag      1    0[BANK0 ] unsigned char 
  8950 ;; Return value:  Size  Location     Type
  8951 ;;                  1    wreg      unsigned char 
  8952 ;; Registers used:
  8953 ;;		wreg, fsr0l, fsr0h, status,2, status,0, btemp+1, pclath, cstack
  8954 ;; Tracked objects:
  8955 ;;		On entry : 0/0
  8956 ;;		On exit  : 0/0
  8957 ;;		Unchanged: 0/0
  8958 ;; Data sizes:     COMMON   BANK0   BANK1   BANK3   BANK2
  8959 ;;      Params:         0       0       0       0       0
  8960 ;;      Locals:         0       1       0       0       0
  8961 ;;      Temps:          0       0       0       0       0
  8962 ;;      Totals:         0       1       0       0       0
  8963 ;;Total ram usage:        1 bytes
  8964 ;; Hardware stack levels used: 1
  8965 ;; Hardware stack levels required when called: 3
  8966 ;; This function calls:
  8967 ;;		_clcd_print
  8968 ;; This function is called by:
  8969 ;;		_main
  8970 ;; This function uses a non-reentrant model
  8971 ;;
  8972                           
  8973     1434                     _clear_log:	
  8974                           ;psect for function _clear_log
  8975                           
  8976                           
  8977                           ;incstack = 0
  8978                           ; Regs used in _clear_log: [wreg-fsr0h+status,2+status,0+btemp+1+pclath+cstack]
  8979                           ;clear_log@reset_flag stored from wreg
  8980     1434  1283               	bcf	3,5	;RP0=0, select bank0
  8981     1435  1303               	bcf	3,6	;RP1=0, select bank0
  8982     1436  00C5               	movwf	clear_log@reset_flag
  8983     1437                     l4643:
  8984                           
  8985                           ;car_bb.c: 282: char clear_log (unsigned char reset_flag);car_bb.c: 283: {;car_bb.c: 285
      +                          :  clcd_print( "Logs cleared",(0x80 + 2));
  8986     1437  300B               	movlw	low (STR_27| (0+32768))
  8987     1438  00F6               	movwf	clcd_print@str
  8988     1439  3088               	movlw	high (STR_27| (0+32768))
  8989     143A  00F7               	movwf	clcd_print@str+1
  8990     143B  3082               	movlw	130
  8991     143C  00F8               	movwf	clcd_print@addr
  8992     143D  160A  118A  24B5  160A  118A  	fcall	_clcd_print
  8993                           
  8994                           ;car_bb.c: 286:  clcd_print( "successfully", (0xC0 + 2));
  8995     1442  3032               	movlw	low (STR_28| (0+32768))
  8996     1443  00F6               	movwf	clcd_print@str
  8997     1444  3088               	movlw	high (STR_28| (0+32768))
  8998     1445  00F7               	movwf	clcd_print@str+1
  8999     1446  30C2               	movlw	194
  9000     1447  00F8               	movwf	clcd_print@addr
  9001     1448  160A  118A  24B5  160A  118A  	fcall	_clcd_print
  9002     144D                     l4645:
  9003                           
  9004                           ;car_bb.c: 288:  if ( reset_flag == 0x50 )
  9005     144D  3050               	movlw	80
  9006     144E  1283               	bcf	3,5	;RP0=0, select bank0
  9007     144F  1303               	bcf	3,6	;RP1=0, select bank0
  9008     1450  0645               	xorwf	clear_log@reset_flag,w
  9009     1451  1D03               	btfss	3,2
  9010     1452  2C54               	goto	u4041
  9011     1453  2C55               	goto	u4040
  9012     1454                     u4041:
  9013     1454  2C5D               	goto	l4651
  9014     1455                     u4040:
  9015     1455                     l4647:
  9016                           
  9017                           ;car_bb.c: 289:  {;car_bb.c: 290:   pos = -1;
  9018     1455  30FF               	movlw	255
  9019     1456  00E6               	movwf	_pos
  9020                           
  9021                           ;car_bb.c: 291:   event_count = -1 ;
  9022     1457  30FF               	movlw	255
  9023     1458  00AE               	movwf	_event_count
  9024     1459  30FF               	movlw	255
  9025     145A  00AF               	movwf	_event_count+1
  9026                           
  9027                           ;car_bb.c: 292:   return 0x0C;
  9028     145B  300C               	movlw	12
  9029     145C  2C5E               	goto	l359
  9030     145D                     l4651:
  9031                           
  9032                           ;car_bb.c: 294:  return 0x0D;
  9033     145D  300D               	movlw	13
  9034     145E                     l359:
  9035     145E  0008               	return
  9036     145F                     __end_of_clear_log:
  9037                           
  9038                           	psect	text38
  9039     0C45                     __ptext38:	
  9040 ;; *************** function _change_password *****************
  9041 ;; Defined at:
  9042 ;;		line 350 in file "car_bb.c"
  9043 ;; Parameters:    Size  Location     Type
  9044 ;;  key             1    wreg     unsigned char 
  9045 ;;  reset_pwd       1    9[BANK0 ] unsigned char 
  9046 ;; Auto vars:     Size  Location     Type
  9047 ;;  key             1   12[BANK0 ] unsigned char 
  9048 ;; Return value:  Size  Location     Type
  9049 ;;                  1    wreg      unsigned char 
  9050 ;; Registers used:
  9051 ;;		wreg, fsr0l, fsr0h, status,2, status,0, btemp+1, pclath, cstack
  9052 ;; Tracked objects:
  9053 ;;		On entry : 0/0
  9054 ;;		On exit  : 0/0
  9055 ;;		Unchanged: 0/0
  9056 ;; Data sizes:     COMMON   BANK0   BANK1   BANK3   BANK2
  9057 ;;      Params:         0       1       0       0       0
  9058 ;;      Locals:         0       1       0       0       0
  9059 ;;      Temps:          0       2       0       0       0
  9060 ;;      Totals:         0       4       0       0       0
  9061 ;;Total ram usage:        4 bytes
  9062 ;; Hardware stack levels used: 1
  9063 ;; Hardware stack levels required when called: 5
  9064 ;; This function calls:
  9065 ;;		_clcd_print
  9066 ;;		_clcd_putch
  9067 ;;		_clear_screen
  9068 ;;		_eeprom_at24c04_str_write
  9069 ;;		_strncmp
  9070 ;;		_strncpy
  9071 ;; This function is called by:
  9072 ;;		_main
  9073 ;; This function uses a non-reentrant model
  9074 ;;
  9075                           
  9076     0C45                     _change_password:	
  9077                           ;psect for function _change_password
  9078                           
  9079                           
  9080                           ;incstack = 0
  9081                           ; Regs used in _change_password: [wreg-fsr0h+status,2+status,0+btemp+1+pclath+cstack]
  9082                           ;change_password@key stored from wreg
  9083     0C45  1283               	bcf	3,5	;RP0=0, select bank0
  9084     0C46  1303               	bcf	3,6	;RP1=0, select bank0
  9085     0C47  00D1               	movwf	change_password@key
  9086     0C48                     l4693:
  9087                           
  9088                           ;car_bb.c: 350: char change_password(unsigned char key, char reset_pwd );car_bb.c: 351: 
      +                          {;car_bb.c: 352:  static char new_pwd[9];;car_bb.c: 353:  static int pwd_pos = 0;;car_bb
      +                          .c: 354:  static char i=0;;car_bb.c: 358:  if ( reset_pwd == 0x10 )
  9089     0C48  3010               	movlw	16
  9090     0C49  064E               	xorwf	change_password@reset_pwd,w
  9091     0C4A  1D03               	btfss	3,2
  9092     0C4B  2C4D               	goto	u4091
  9093     0C4C  2C4E               	goto	u4090
  9094     0C4D                     u4091:
  9095     0C4D  2C62               	goto	l4701
  9096     0C4E                     u4090:
  9097     0C4E                     l4695:
  9098                           
  9099                           ;car_bb.c: 359:  {;car_bb.c: 360:   strncpy(new_pwd, "    ",4);
  9100     0C4E  3022               	movlw	low ((STR_32+13)| (0+32768))
  9101     0C4F  00F2               	movwf	strncpy@from
  9102     0C50  3087               	movlw	high ((STR_32+13)| (0+32768))
  9103     0C51  00F3               	movwf	strncpy@from+1
  9104     0C52  3004               	movlw	4
  9105     0C53  00F4               	movwf	strncpy@size
  9106     0C54  3000               	movlw	0
  9107     0C55  00F5               	movwf	strncpy@size+1
  9108     0C56  30C4               	movlw	(low (change_password@new_pwd| 0))& (0+255)
  9109     0C57  160A  118A  26C2  120A  158A  	fcall	_strncpy
  9110     0C5C                     l4697:
  9111                           
  9112                           ;car_bb.c: 361:   pwd_pos = 0;
  9113     0C5C  1283               	bcf	3,5	;RP0=0, select bank0
  9114     0C5D  1303               	bcf	3,6	;RP1=0, select bank0
  9115     0C5E  01AC               	clrf	change_password@pwd_pos
  9116     0C5F  01AD               	clrf	change_password@pwd_pos+1
  9117     0C60                     l4699:
  9118                           
  9119                           ;car_bb.c: 362:   return_time = 5;
  9120     0C60  3005               	movlw	5
  9121     0C61  00E5               	movwf	_return_time
  9122     0C62                     l4701:
  9123                           
  9124                           ;car_bb.c: 366:  if (return_time == 0)
  9125     0C62  0865               	movf	_return_time,w
  9126     0C63  1D03               	btfss	3,2
  9127     0C64  2C66               	goto	u4101
  9128     0C65  2C67               	goto	u4100
  9129     0C66                     u4101:
  9130     0C66  2C69               	goto	l4707
  9131     0C67                     u4100:
  9132     0C67                     l4703:
  9133                           
  9134                           ;car_bb.c: 367:   return 0x0A;
  9135     0C67  300A               	movlw	10
  9136     0C68  2D68               	goto	l384
  9137     0C69                     l4707:
  9138                           
  9139                           ;car_bb.c: 370:  if ( pwd_pos < 4 ){
  9140     0C69  082D               	movf	change_password@pwd_pos+1,w
  9141     0C6A  3A80               	xorlw	128
  9142     0C6B  00FF               	movwf	btemp+1
  9143     0C6C  3080               	movlw	128
  9144     0C6D  027F               	subwf	btemp+1,w
  9145     0C6E  1D03               	skipz
  9146     0C6F  2C72               	goto	u4115
  9147     0C70  3004               	movlw	4
  9148     0C71  022C               	subwf	change_password@pwd_pos,w
  9149     0C72                     u4115:
  9150     0C72  1803               	skipnc
  9151     0C73  2C75               	goto	u4111
  9152     0C74  2C76               	goto	u4110
  9153     0C75                     u4111:
  9154     0C75  2C82               	goto	l4711
  9155     0C76                     u4110:
  9156     0C76                     l4709:
  9157                           
  9158                           ;car_bb.c: 371:   clcd_print("Enter new pwd    ",(0x80 + 0));}
  9159     0C76  3015               	movlw	low (STR_32| (0+32768))
  9160     0C77  00F6               	movwf	clcd_print@str
  9161     0C78  3087               	movlw	high (STR_32| (0+32768))
  9162     0C79  00F7               	movwf	clcd_print@str+1
  9163     0C7A  3080               	movlw	128
  9164     0C7B  00F8               	movwf	clcd_print@addr
  9165     0C7C  160A  118A  24B5  120A  158A  	fcall	_clcd_print
  9166     0C81  2CFC               	goto	l4751
  9167     0C82                     l4711:
  9168     0C82  1283               	bcf	3,5	;RP0=0, select bank0
  9169     0C83  1303               	bcf	3,6	;RP1=0, select bank0
  9170     0C84  082D               	movf	change_password@pwd_pos+1,w
  9171     0C85  3A80               	xorlw	128
  9172     0C86  00FF               	movwf	btemp+1
  9173     0C87  3080               	movlw	128
  9174     0C88  027F               	subwf	btemp+1,w
  9175     0C89  1D03               	skipz
  9176     0C8A  2C8D               	goto	u4125
  9177     0C8B  3004               	movlw	4
  9178     0C8C  022C               	subwf	change_password@pwd_pos,w
  9179     0C8D                     u4125:
  9180     0C8D  1C03               	skipc
  9181     0C8E  2C90               	goto	u4121
  9182     0C8F  2C91               	goto	u4120
  9183     0C90                     u4121:
  9184     0C90  2CFC               	goto	l4751
  9185     0C91                     u4120:
  9186     0C91                     l4713:
  9187     0C91  1283               	bcf	3,5	;RP0=0, select bank0
  9188     0C92  1303               	bcf	3,6	;RP1=0, select bank0
  9189     0C93  082D               	movf	change_password@pwd_pos+1,w
  9190     0C94  3A80               	xorlw	128
  9191     0C95  00FF               	movwf	btemp+1
  9192     0C96  3080               	movlw	128
  9193     0C97  027F               	subwf	btemp+1,w
  9194     0C98  1D03               	skipz
  9195     0C99  2C9C               	goto	u4135
  9196     0C9A  3008               	movlw	8
  9197     0C9B  022C               	subwf	change_password@pwd_pos,w
  9198     0C9C                     u4135:
  9199     0C9C  1803               	skipnc
  9200     0C9D  2C9F               	goto	u4131
  9201     0C9E  2CA0               	goto	u4130
  9202     0C9F                     u4131:
  9203     0C9F  2CFC               	goto	l4751
  9204     0CA0                     u4130:
  9205     0CA0                     l4715:
  9206                           
  9207                           ;car_bb.c: 374:   clcd_print("Re enter new pwd    ",(0x80 + 0));
  9208     0CA0  3000               	movlw	low (STR_33| (0+32768))
  9209     0CA1  00F6               	movwf	clcd_print@str
  9210     0CA2  3087               	movlw	high (STR_33| (0+32768))
  9211     0CA3  00F7               	movwf	clcd_print@str+1
  9212     0CA4  3080               	movlw	128
  9213     0CA5  00F8               	movwf	clcd_print@addr
  9214     0CA6  160A  118A  24B5  120A  158A  	fcall	_clcd_print
  9215     0CAB  2CFC               	goto	l4751
  9216     0CAC                     l4717:
  9217                           
  9218                           ;car_bb.c: 381:    new_pwd[pwd_pos] = '1';
  9219     0CAC  082C               	movf	change_password@pwd_pos,w
  9220     0CAD  3EC4               	addlw	(low (change_password@new_pwd| 0))& (0+255)
  9221     0CAE  0084               	movwf	4
  9222     0CAF  3031               	movlw	49
  9223     0CB0  1383               	bcf	3,7	;select IRP bank1
  9224     0CB1  0080               	movwf	0
  9225     0CB2                     l4719:
  9226                           
  9227                           ;car_bb.c: 382:    clcd_putch('*',(0xC0 + 6+i));
  9228     0CB2  0833               	movf	change_password@i,w
  9229     0CB3  3EC6               	addlw	198
  9230     0CB4  00CC               	movwf	clcd_putch@addr
  9231     0CB5  302A               	movlw	42
  9232     0CB6  160A  118A  22D1  120A  158A  	fcall	_clcd_putch
  9233     0CBB                     l4721:
  9234                           
  9235                           ;car_bb.c: 383:    pwd_pos++;
  9236     0CBB  3001               	movlw	1
  9237     0CBC  1283               	bcf	3,5	;RP0=0, select bank0
  9238     0CBD  1303               	bcf	3,6	;RP1=0, select bank0
  9239     0CBE  07AC               	addwf	change_password@pwd_pos,f
  9240     0CBF  1803               	skipnc
  9241     0CC0  0AAD               	incf	change_password@pwd_pos+1,f
  9242     0CC1  3000               	movlw	0
  9243     0CC2  07AD               	addwf	change_password@pwd_pos+1,f
  9244     0CC3                     l4723:
  9245                           
  9246                           ;car_bb.c: 384:             i++;
  9247     0CC3  3001               	movlw	1
  9248     0CC4  00CF               	movwf	??_change_password
  9249     0CC5  084F               	movf	??_change_password,w
  9250     0CC6  07B3               	addwf	change_password@i,f
  9251     0CC7                     l4725:
  9252                           
  9253                           ;car_bb.c: 385:             return_time = 5;
  9254     0CC7  3005               	movlw	5
  9255     0CC8  00E5               	movwf	_return_time
  9256     0CC9                     l4727:
  9257                           
  9258                           ;car_bb.c: 386:             if ( pwd_pos == 4 ){
  9259     0CC9  3004               	movlw	4
  9260     0CCA  062C               	xorwf	change_password@pwd_pos,w
  9261     0CCB  042D               	iorwf	change_password@pwd_pos+1,w
  9262     0CCC  1D03               	btfss	3,2
  9263     0CCD  2CCF               	goto	u4141
  9264     0CCE  2CD0               	goto	u4140
  9265     0CCF                     u4141:
  9266     0CCF  2D0E               	goto	l4753
  9267     0CD0                     u4140:
  9268     0CD0                     l4729:
  9269                           
  9270                           ;car_bb.c: 387:              i=0; clear_screen();}
  9271     0CD0  01B3               	clrf	change_password@i
  9272     0CD1                     l4731:
  9273     0CD1  160A  118A  2288  120A  158A  	fcall	_clear_screen
  9274     0CD6  2D0E               	goto	l4753
  9275     0CD7                     l4733:
  9276                           
  9277                           ;car_bb.c: 391:    new_pwd[pwd_pos] = '0';
  9278     0CD7  082C               	movf	change_password@pwd_pos,w
  9279     0CD8  3EC4               	addlw	(low (change_password@new_pwd| 0))& (0+255)
  9280     0CD9  0084               	movwf	4
  9281     0CDA  3030               	movlw	48
  9282     0CDB  1383               	bcf	3,7	;select IRP bank1
  9283     0CDC  0080               	movwf	0
  9284     0CDD                     l4735:
  9285                           
  9286                           ;car_bb.c: 392:    clcd_putch('*',(0xC0 + 6+i));
  9287     0CDD  0833               	movf	change_password@i,w
  9288     0CDE  3EC6               	addlw	198
  9289     0CDF  00CC               	movwf	clcd_putch@addr
  9290     0CE0  302A               	movlw	42
  9291     0CE1  160A  118A  22D1  120A  158A  	fcall	_clcd_putch
  9292     0CE6                     l4737:
  9293                           
  9294                           ;car_bb.c: 393:    pwd_pos++;
  9295     0CE6  3001               	movlw	1
  9296     0CE7  1283               	bcf	3,5	;RP0=0, select bank0
  9297     0CE8  1303               	bcf	3,6	;RP1=0, select bank0
  9298     0CE9  07AC               	addwf	change_password@pwd_pos,f
  9299     0CEA  1803               	skipnc
  9300     0CEB  0AAD               	incf	change_password@pwd_pos+1,f
  9301     0CEC  3000               	movlw	0
  9302     0CED  07AD               	addwf	change_password@pwd_pos+1,f
  9303     0CEE                     l4739:
  9304                           
  9305                           ;car_bb.c: 394:             i++;
  9306     0CEE  3001               	movlw	1
  9307     0CEF  00CF               	movwf	??_change_password
  9308     0CF0  084F               	movf	??_change_password,w
  9309     0CF1  07B3               	addwf	change_password@i,f
  9310     0CF2                     l4741:
  9311                           
  9312                           ;car_bb.c: 395:             return_time = 5;
  9313     0CF2  3005               	movlw	5
  9314     0CF3  00E5               	movwf	_return_time
  9315     0CF4                     l4743:
  9316                           
  9317                           ;car_bb.c: 396:             if ( pwd_pos == 4 ){
  9318     0CF4  3004               	movlw	4
  9319     0CF5  062C               	xorwf	change_password@pwd_pos,w
  9320     0CF6  042D               	iorwf	change_password@pwd_pos+1,w
  9321     0CF7  1D03               	btfss	3,2
  9322     0CF8  2CFA               	goto	u4151
  9323     0CF9  2CFB               	goto	u4150
  9324     0CFA                     u4151:
  9325     0CFA  2D0E               	goto	l4753
  9326     0CFB                     u4150:
  9327     0CFB  2CD0               	goto	l4729
  9328     0CFC                     l4751:
  9329     0CFC  1283               	bcf	3,5	;RP0=0, select bank0
  9330     0CFD  1303               	bcf	3,6	;RP1=0, select bank0
  9331     0CFE  0851               	movf	change_password@key,w
  9332     0CFF  00CF               	movwf	??_change_password
  9333     0D00  01D0               	clrf	??_change_password+1
  9334                           
  9335                           ; Switch on 2 bytes has been partitioned into a top level switch of size 1, and 1 sub-sw
      +                          itches
  9336                           ; Switch size 1, requested type "simple"
  9337                           ; Number of cases is 1, Range of values is 0 to 0
  9338                           ; switch strategies available:
  9339                           ; Name         Instructions Cycles
  9340                           ; simple_byte            4     3 (average)
  9341                           ; direct_byte           11     8 (fixed)
  9342                           ; jumptable            260     6 (fixed)
  9343                           ;	Chosen strategy is simple_byte
  9344     0D01  0850               	movf	??_change_password+1,w
  9345     0D02  3A00               	xorlw	0	; case 0
  9346     0D03  1903               	skipnz
  9347     0D04  2D06               	goto	l5353
  9348     0D05  2D0E               	goto	l4753
  9349     0D06                     l5353:
  9350                           
  9351                           ; Switch size 1, requested type "simple"
  9352                           ; Number of cases is 2, Range of values is 47 to 55
  9353                           ; switch strategies available:
  9354                           ; Name         Instructions Cycles
  9355                           ; simple_byte            7     4 (average)
  9356                           ; direct_byte           38    11 (fixed)
  9357                           ; jumptable            263     9 (fixed)
  9358                           ;	Chosen strategy is simple_byte
  9359     0D06  084F               	movf	??_change_password,w
  9360     0D07  3A2F               	xorlw	47	; case 47
  9361     0D08  1903               	skipnz
  9362     0D09  2CD7               	goto	l4733
  9363     0D0A  3A18               	xorlw	24	; case 55
  9364     0D0B  1903               	skipnz
  9365     0D0C  2CAC               	goto	l4717
  9366     0D0D  2D0E               	goto	l4753
  9367     0D0E                     l4753:
  9368                           
  9369                           ;car_bb.c: 403:  if ( pwd_pos == 8)
  9370     0D0E  3008               	movlw	8
  9371     0D0F  1283               	bcf	3,5	;RP0=0, select bank0
  9372     0D10  1303               	bcf	3,6	;RP1=0, select bank0
  9373     0D11  062C               	xorwf	change_password@pwd_pos,w
  9374     0D12  042D               	iorwf	change_password@pwd_pos+1,w
  9375     0D13  1D03               	btfss	3,2
  9376     0D14  2D16               	goto	u4161
  9377     0D15  2D17               	goto	u4160
  9378     0D16                     u4161:
  9379     0D16  2D67               	goto	l4775
  9380     0D17                     u4160:
  9381     0D17                     l4755:
  9382                           
  9383                           ;car_bb.c: 404:  {;car_bb.c: 405:   if ( strncmp(new_pwd, &new_pwd[4], 4) == 0 )
  9384     0D17  30C8               	movlw	(low ((change_password@new_pwd| 0+4)))& (0+255)
  9385     0D18  00F2               	movwf	strncmp@s2
  9386     0D19  3004               	movlw	4
  9387     0D1A  00F3               	movwf	strncmp@len
  9388     0D1B  3000               	movlw	0
  9389     0D1C  00F4               	movwf	strncmp@len+1
  9390     0D1D  30C4               	movlw	(low (change_password@new_pwd| 0))& (0+255)
  9391     0D1E  160A  118A  25F6  120A  158A  	fcall	_strncmp
  9392     0D23  0872               	movf	?_strncmp,w
  9393     0D24  0473               	iorwf	?_strncmp+1,w
  9394     0D25  1D03               	btfss	3,2
  9395     0D26  2D28               	goto	u4171
  9396     0D27  2D29               	goto	u4170
  9397     0D28                     u4171:
  9398     0D28  2D50               	goto	l4767
  9399     0D29                     u4170:
  9400     0D29                     l4757:
  9401                           
  9402                           ;car_bb.c: 406:   {;car_bb.c: 408:    eeprom_at24c04_str_write( 0x00, &new_pwd[4]);
  9403     0D29  30C8               	movlw	(low ((change_password@new_pwd| 0+4)))& (0+255)
  9404     0D2A  00F7               	movwf	eeprom_at24c04_str_write@data
  9405     0D2B  3000               	movlw	0
  9406     0D2C  00F8               	movwf	eeprom_at24c04_str_write@data+1
  9407     0D2D  3000               	movlw	0
  9408     0D2E  160A  118A  24E4  120A  158A  	fcall	_eeprom_at24c04_str_write
  9409                           
  9410                           ;car_bb.c: 410:    clcd_print("Password changed",(0x80 + 0));
  9411     0D33  305C               	movlw	low (STR_34| (0+32768))
  9412     0D34  00F6               	movwf	clcd_print@str
  9413     0D35  3087               	movlw	high (STR_34| (0+32768))
  9414     0D36  00F7               	movwf	clcd_print@str+1
  9415     0D37  3080               	movlw	128
  9416     0D38  00F8               	movwf	clcd_print@addr
  9417     0D39  160A  118A  24B5  120A  158A  	fcall	_clcd_print
  9418                           
  9419                           ;car_bb.c: 411:    clcd_print("successfully ",(0xC0 + 2));
  9420     0D3E  30F0               	movlw	low (STR_35| (0+32768))
  9421     0D3F  00F6               	movwf	clcd_print@str
  9422     0D40  3087               	movlw	high (STR_35| (0+32768))
  9423     0D41  00F7               	movwf	clcd_print@str+1
  9424     0D42  30C2               	movlw	194
  9425     0D43  00F8               	movwf	clcd_print@addr
  9426     0D44  160A  118A  24B5  120A  158A  	fcall	_clcd_print
  9427     0D49                     l4759:
  9428                           
  9429                           ;car_bb.c: 412:             clear_screen();
  9430     0D49  160A  118A  2288  120A  158A  	fcall	_clear_screen
  9431     0D4E                     l4761:
  9432                           
  9433                           ;car_bb.c: 413:    return 0x0C;
  9434     0D4E  300C               	movlw	12
  9435     0D4F  2D68               	goto	l384
  9436     0D50                     l4767:
  9437                           
  9438                           ;car_bb.c: 416:   {;car_bb.c: 418:    clcd_print ( "Password  change" , (0x80 + 0));
  9439     0D50  307E               	movlw	low (STR_36| (0+32768))
  9440     0D51  00F6               	movwf	clcd_print@str
  9441     0D52  3087               	movlw	high (STR_36| (0+32768))
  9442     0D53  00F7               	movwf	clcd_print@str+1
  9443     0D54  3080               	movlw	128
  9444     0D55  00F8               	movwf	clcd_print@addr
  9445     0D56  160A  118A  24B5  120A  158A  	fcall	_clcd_print
  9446                           
  9447                           ;car_bb.c: 419:    clcd_print("failed",(0xC0 + 5));
  9448     0D5B  306D               	movlw	low (STR_37| (0+32768))
  9449     0D5C  00F6               	movwf	clcd_print@str
  9450     0D5D  3088               	movlw	high (STR_37| (0+32768))
  9451     0D5E  00F7               	movwf	clcd_print@str+1
  9452     0D5F  30C5               	movlw	197
  9453     0D60  00F8               	movwf	clcd_print@addr
  9454     0D61  160A  118A  24B5  120A  158A  	fcall	_clcd_print
  9455     0D66  2D49               	goto	l4759
  9456     0D67                     l4775:
  9457                           
  9458                           ;car_bb.c: 425:  return 0x0D;
  9459     0D67  300D               	movlw	13
  9460     0D68                     l384:
  9461     0D68  0008               	return
  9462     0D69                     __end_of_change_password:
  9463                           
  9464                           	psect	text39
  9465     16C2                     __ptext39:	
  9466 ;; *************** function _strncpy *****************
  9467 ;; Defined at:
  9468 ;;		line 8 in file "C:\Program Files\Microchip\xc8\v2.40\pic\sources\c90\common\strncpy.c"
  9469 ;; Parameters:    Size  Location     Type
  9470 ;;  to              1    wreg     PTR unsigned char 
  9471 ;;		 -> change_password@new_pwd(9), log(11), 
  9472 ;;  from            2    2[COMMON] PTR const unsigned char 
  9473 ;;		 -> STR_31(5), time(7), STR_12(3), STR_11(3), 
  9474 ;;		 -> main@event(3), 
  9475 ;;  size            2    4[COMMON] unsigned int 
  9476 ;; Auto vars:     Size  Location     Type
  9477 ;;  to              1    0[BANK0 ] PTR unsigned char 
  9478 ;;		 -> change_password@new_pwd(9), log(11), 
  9479 ;;  cp              1    1[BANK0 ] PTR unsigned char 
  9480 ;;		 -> change_password@new_pwd(9), log(11), 
  9481 ;; Return value:  Size  Location     Type
  9482 ;;                  1    wreg      PTR unsigned char 
  9483 ;; Registers used:
  9484 ;;		wreg, fsr0l, fsr0h, status,2, status,0, btemp+1, pclath
  9485 ;; Tracked objects:
  9486 ;;		On entry : 0/0
  9487 ;;		On exit  : 0/0
  9488 ;;		Unchanged: 0/0
  9489 ;; Data sizes:     COMMON   BANK0   BANK1   BANK3   BANK2
  9490 ;;      Params:         4       0       0       0       0
  9491 ;;      Locals:         0       2       0       0       0
  9492 ;;      Temps:          3       0       0       0       0
  9493 ;;      Totals:         7       2       0       0       0
  9494 ;;Total ram usage:        9 bytes
  9495 ;; Hardware stack levels used: 2
  9496 ;; Hardware stack levels required when called: 1
  9497 ;; This function calls:
  9498 ;;		Nothing
  9499 ;; This function is called by:
  9500 ;;		_log_car_event
  9501 ;;		_change_password
  9502 ;; This function uses a non-reentrant model
  9503 ;;
  9504                           
  9505     16C2                     _strncpy:	
  9506                           ;psect for function _strncpy
  9507                           
  9508                           
  9509                           ;incstack = 0
  9510                           ; Regs used in _strncpy: [wreg-fsr0h+status,2+status,0+btemp+1+pclath]
  9511                           ;strncpy@to stored from wreg
  9512     16C2  1283               	bcf	3,5	;RP0=0, select bank0
  9513     16C3  1303               	bcf	3,6	;RP1=0, select bank0
  9514     16C4  00C5               	movwf	strncpy@to
  9515     16C5                     l4171:
  9516     16C5  0845               	movf	strncpy@to,w
  9517     16C6  00C6               	movwf	strncpy@cp
  9518     16C7  2EEC               	goto	l4179
  9519     16C8                     l4173:
  9520     16C8  3001               	movlw	1
  9521     16C9  02F4               	subwf	strncpy@size,f
  9522     16CA  3000               	movlw	0
  9523     16CB  1C03               	skipc
  9524     16CC  03F5               	decf	strncpy@size+1,f
  9525     16CD  02F5               	subwf	strncpy@size+1,f
  9526     16CE                     l4175:
  9527     16CE  0873               	movf	strncpy@from+1,w
  9528     16CF  00F7               	movwf	??_strncpy+1
  9529     16D0  0872               	movf	strncpy@from,w
  9530     16D1  00F6               	movwf	??_strncpy
  9531     16D2  0AF2               	incf	strncpy@from,f
  9532     16D3  1903               	skipnz
  9533     16D4  0AF3               	incf	strncpy@from+1,f
  9534     16D5  0877               	movf	??_strncpy+1,w
  9535     16D6  00FF               	movwf	btemp+1
  9536     16D7  0876               	movf	??_strncpy,w
  9537     16D8  0084               	movwf	4
  9538     16D9  160A  118A  2000  160A  118A  	fcall	stringtab
  9539     16DE  00F8               	movwf	??_strncpy+2
  9540     16DF  0846               	movf	strncpy@cp,w
  9541     16E0  0084               	movwf	4
  9542     16E1  3001               	movlw	1
  9543     16E2  07C6               	addwf	strncpy@cp,f
  9544     16E3  0878               	movf	??_strncpy+2,w
  9545     16E4  1383               	bcf	3,7	;select IRP bank0
  9546     16E5  0080               	movwf	0
  9547     16E6  0800               	movf	0,w
  9548     16E7  1D03               	btfss	3,2
  9549     16E8  2EEA               	goto	u3311
  9550     16E9  2EEB               	goto	u3310
  9551     16EA                     u3311:
  9552     16EA  2EEC               	goto	l4179
  9553     16EB                     u3310:
  9554     16EB  2EFB               	goto	l4185
  9555     16EC                     l4179:
  9556     16EC  0874               	movf	strncpy@size,w
  9557     16ED  0475               	iorwf	strncpy@size+1,w
  9558     16EE  1D03               	btfss	3,2
  9559     16EF  2EF1               	goto	u3321
  9560     16F0  2EF2               	goto	u3320
  9561     16F1                     u3321:
  9562     16F1  2EC8               	goto	l4173
  9563     16F2                     u3320:
  9564     16F2  2EFB               	goto	l4185
  9565     16F3                     l4181:
  9566     16F3  0846               	movf	strncpy@cp,w
  9567     16F4  0084               	movwf	4
  9568     16F5  1383               	bcf	3,7	;select IRP bank0
  9569     16F6  0180               	clrf	0
  9570     16F7                     l4183:
  9571     16F7  3001               	movlw	1
  9572     16F8  00F6               	movwf	??_strncpy
  9573     16F9  0876               	movf	??_strncpy,w
  9574     16FA  07C6               	addwf	strncpy@cp,f
  9575     16FB                     l4185:
  9576     16FB  3001               	movlw	1
  9577     16FC  02F4               	subwf	strncpy@size,f
  9578     16FD  3000               	movlw	0
  9579     16FE  1C03               	skipc
  9580     16FF  03F5               	decf	strncpy@size+1,f
  9581     1700  02F5               	subwf	strncpy@size+1,f
  9582     1701  0A74               	incf	strncpy@size,w
  9583     1702  1D03               	skipz
  9584     1703  2F08               	goto	u3331
  9585     1704  0A75               	incf	strncpy@size+1,w
  9586     1705  1D03               	btfss	3,2
  9587     1706  2F08               	goto	u3331
  9588     1707  2F09               	goto	u3330
  9589     1708                     u3331:
  9590     1708  2EF3               	goto	l4181
  9591     1709                     u3330:
  9592     1709                     l1091:
  9593     1709  0008               	return
  9594     170A                     __end_of_strncpy:
  9595                           
  9596                           	psect	text40
  9597     15F6                     __ptext40:	
  9598 ;; *************** function _strncmp *****************
  9599 ;; Defined at:
  9600 ;;		line 4 in file "C:\Program Files\Microchip\xc8\v2.40\pic\sources\c90\common\strncmp.c"
  9601 ;; Parameters:    Size  Location     Type
  9602 ;;  s1              1    wreg     PTR const unsigned char 
  9603 ;;		 -> change_password@new_pwd(9), login@spassword(4), 
  9604 ;;  s2              1    2[COMMON] PTR const unsigned char 
  9605 ;;		 -> change_password@new_pwd(9), login@npassword(4), 
  9606 ;;  len             2    3[COMMON] unsigned int 
  9607 ;; Auto vars:     Size  Location     Type
  9608 ;;  s1              1    7[COMMON] PTR const unsigned char 
  9609 ;;		 -> change_password@new_pwd(9), login@spassword(4), 
  9610 ;; Return value:  Size  Location     Type
  9611 ;;                  2    2[COMMON] int 
  9612 ;; Registers used:
  9613 ;;		wreg, fsr0l, fsr0h, status,2, status,0
  9614 ;; Tracked objects:
  9615 ;;		On entry : 0/0
  9616 ;;		On exit  : 0/0
  9617 ;;		Unchanged: 0/0
  9618 ;; Data sizes:     COMMON   BANK0   BANK1   BANK3   BANK2
  9619 ;;      Params:         3       0       0       0       0
  9620 ;;      Locals:         1       0       0       0       0
  9621 ;;      Temps:          2       0       0       0       0
  9622 ;;      Totals:         6       0       0       0       0
  9623 ;;Total ram usage:        6 bytes
  9624 ;; Hardware stack levels used: 1
  9625 ;; Hardware stack levels required when called: 1
  9626 ;; This function calls:
  9627 ;;		Nothing
  9628 ;; This function is called by:
  9629 ;;		_login
  9630 ;;		_change_password
  9631 ;; This function uses a non-reentrant model
  9632 ;;
  9633                           
  9634     15F6                     _strncmp:	
  9635                           ;psect for function _strncmp
  9636                           
  9637                           
  9638                           ;incstack = 0
  9639                           ; Regs used in _strncmp: [wreg-fsr0h+status,2+status,0]
  9640                           ;strncmp@s1 stored from wreg
  9641     15F6  00F7               	movwf	strncmp@s1
  9642     15F7                     l4207:
  9643     15F7  2E23               	goto	l1075
  9644     15F8                     l4209:
  9645     15F8  0877               	movf	strncmp@s1,w
  9646     15F9  0084               	movwf	4
  9647     15FA  1383               	bcf	3,7	;select IRP bank0
  9648     15FB  0800               	movf	0,w
  9649     15FC  1903               	btfsc	3,2
  9650     15FD  2DFF               	goto	u3341
  9651     15FE  2E00               	goto	u3340
  9652     15FF                     u3341:
  9653     15FF  2E0C               	goto	l4213
  9654     1600                     u3340:
  9655     1600                     l4211:
  9656     1600  0872               	movf	strncmp@s2,w
  9657     1601  0084               	movwf	4
  9658     1602  0800               	movf	0,w
  9659     1603  00F5               	movwf	??_strncmp
  9660     1604  0877               	movf	strncmp@s1,w
  9661     1605  0084               	movwf	4
  9662     1606  0800               	movf	0,w
  9663     1607  0675               	xorwf	??_strncmp,w
  9664     1608  1903               	skipnz
  9665     1609  2E0B               	goto	u3351
  9666     160A  2E0C               	goto	u3350
  9667     160B                     u3351:
  9668     160B  2E1B               	goto	l4217
  9669     160C                     u3350:
  9670     160C                     l4213:
  9671     160C  0872               	movf	strncmp@s2,w
  9672     160D  0084               	movwf	4
  9673     160E  0800               	movf	0,w
  9674     160F  00F5               	movwf	??_strncmp
  9675     1610  0877               	movf	strncmp@s1,w
  9676     1611  0084               	movwf	4
  9677     1612  0800               	movf	0,w
  9678     1613  00F6               	movwf	??_strncmp+1
  9679     1614  0875               	movf	??_strncmp,w
  9680     1615  0276               	subwf	??_strncmp+1,w
  9681     1616  00F2               	movwf	?_strncmp
  9682     1617  01F3               	clrf	?_strncmp+1
  9683     1618  1C03               	skipc
  9684     1619  03F3               	decf	?_strncmp+1,f
  9685     161A  2E33               	goto	l1080
  9686     161B                     l4217:
  9687     161B  3001               	movlw	1
  9688     161C  00F5               	movwf	??_strncmp
  9689     161D  0875               	movf	??_strncmp,w
  9690     161E  07F7               	addwf	strncmp@s1,f
  9691     161F  3001               	movlw	1
  9692     1620  00F5               	movwf	??_strncmp
  9693     1621  0875               	movf	??_strncmp,w
  9694     1622  07F2               	addwf	strncmp@s2,f
  9695     1623                     l1075:
  9696     1623  3001               	movlw	1
  9697     1624  02F3               	subwf	strncmp@len,f
  9698     1625  3000               	movlw	0
  9699     1626  1C03               	skipc
  9700     1627  03F4               	decf	strncmp@len+1,f
  9701     1628  02F4               	subwf	strncmp@len+1,f
  9702     1629  0A73               	incf	strncmp@len,w
  9703     162A  1D03               	skipz
  9704     162B  2E30               	goto	u3361
  9705     162C  0A74               	incf	strncmp@len+1,w
  9706     162D  1D03               	btfss	3,2
  9707     162E  2E30               	goto	u3361
  9708     162F  2E31               	goto	u3360
  9709     1630                     u3361:
  9710     1630  2DF8               	goto	l4209
  9711     1631                     u3360:
  9712     1631                     l4219:
  9713     1631  01F2               	clrf	?_strncmp
  9714     1632  01F3               	clrf	?_strncmp+1
  9715     1633                     l1080:
  9716     1633  0008               	return
  9717     1634                     __end_of_strncmp:
  9718                           
  9719                           	psect	text41
  9720     14E4                     __ptext41:	
  9721 ;; *************** function _eeprom_at24c04_str_write *****************
  9722 ;; Defined at:
  9723 ;;		line 37 in file "at24c04.c"
  9724 ;; Parameters:    Size  Location     Type
  9725 ;;  memory_loc      1    wreg     unsigned char 
  9726 ;;  data            2    7[COMMON] PTR unsigned char 
  9727 ;;		 -> change_password@new_pwd(9), log(11), STR_7(5), 
  9728 ;; Auto vars:     Size  Location     Type
  9729 ;;  memory_loc      1    1[BANK0 ] unsigned char 
  9730 ;; Return value:  Size  Location     Type
  9731 ;;                  1    wreg      void 
  9732 ;; Registers used:
  9733 ;;		wreg, fsr0l, fsr0h, status,2, status,0, btemp+1, pclath, cstack
  9734 ;; Tracked objects:
  9735 ;;		On entry : 0/0
  9736 ;;		On exit  : 0/0
  9737 ;;		Unchanged: 0/0
  9738 ;; Data sizes:     COMMON   BANK0   BANK1   BANK3   BANK2
  9739 ;;      Params:         2       0       0       0       0
  9740 ;;      Locals:         0       1       0       0       0
  9741 ;;      Temps:          0       1       0       0       0
  9742 ;;      Totals:         2       2       0       0       0
  9743 ;;Total ram usage:        4 bytes
  9744 ;; Hardware stack levels used: 1
  9745 ;; Hardware stack levels required when called: 4
  9746 ;; This function calls:
  9747 ;;		_eeprom_at24c04_byte_write
  9748 ;; This function is called by:
  9749 ;;		_main
  9750 ;;		_log_event
  9751 ;;		_change_password
  9752 ;; This function uses a non-reentrant model
  9753 ;;
  9754                           
  9755     14E4                     _eeprom_at24c04_str_write:	
  9756                           ;psect for function _eeprom_at24c04_str_write
  9757                           
  9758                           
  9759                           ;incstack = 0
  9760                           ; Regs used in _eeprom_at24c04_str_write: [wreg-fsr0h+status,2+status,0+btemp+1+pclath+c
      +                          stack]
  9761                           ;eeprom_at24c04_str_write@memory_loc stored from wreg
  9762     14E4  1283               	bcf	3,5	;RP0=0, select bank0
  9763     14E5  1303               	bcf	3,6	;RP1=0, select bank0
  9764     14E6  00C6               	movwf	eeprom_at24c04_str_write@memory_loc
  9765     14E7                     l4037:
  9766                           
  9767                           ;at24c04.c: 37: void eeprom_at24c04_str_write(unsigned char memory_loc, char* data);at24
      +                          c04.c: 38: {;at24c04.c: 39:     while(*data != 0)
  9768     14E7  2D04               	goto	l4045
  9769     14E8                     l4039:
  9770                           
  9771                           ;at24c04.c: 40:     {;at24c04.c: 41:         eeprom_at24c04_byte_write(memory_loc, *data
      +                          );
  9772     14E8  0878               	movf	eeprom_at24c04_str_write@data+1,w
  9773     14E9  00FF               	movwf	btemp+1
  9774     14EA  0877               	movf	eeprom_at24c04_str_write@data,w
  9775     14EB  0084               	movwf	4
  9776     14EC  160A  118A  2000  160A  118A  	fcall	stringtab
  9777     14F1  00F3               	movwf	eeprom_at24c04_byte_write@data
  9778     14F2  0846               	movf	eeprom_at24c04_str_write@memory_loc,w
  9779     14F3  160A  118A  23E3  160A  118A  	fcall	_eeprom_at24c04_byte_write
  9780     14F8                     l4041:
  9781                           
  9782                           ;at24c04.c: 42:         data++;
  9783     14F8  3001               	movlw	1
  9784     14F9  07F7               	addwf	eeprom_at24c04_str_write@data,f
  9785     14FA  1803               	skipnc
  9786     14FB  0AF8               	incf	eeprom_at24c04_str_write@data+1,f
  9787     14FC  3000               	movlw	0
  9788     14FD  07F8               	addwf	eeprom_at24c04_str_write@data+1,f
  9789     14FE                     l4043:
  9790                           
  9791                           ;at24c04.c: 43:         memory_loc++;
  9792     14FE  3001               	movlw	1
  9793     14FF  1283               	bcf	3,5	;RP0=0, select bank0
  9794     1500  1303               	bcf	3,6	;RP1=0, select bank0
  9795     1501  00C5               	movwf	??_eeprom_at24c04_str_write
  9796     1502  0845               	movf	??_eeprom_at24c04_str_write,w
  9797     1503  07C6               	addwf	eeprom_at24c04_str_write@memory_loc,f
  9798     1504                     l4045:
  9799                           
  9800                           ;at24c04.c: 39:     while(*data != 0)
  9801     1504  0878               	movf	eeprom_at24c04_str_write@data+1,w
  9802     1505  00FF               	movwf	btemp+1
  9803     1506  0877               	movf	eeprom_at24c04_str_write@data,w
  9804     1507  0084               	movwf	4
  9805     1508  160A  118A  2000  160A  118A  	fcall	stringtab
  9806     150D  3A00               	xorlw	0
  9807     150E  1D03               	skipz
  9808     150F  2D11               	goto	u3121
  9809     1510  2D12               	goto	u3120
  9810     1511                     u3121:
  9811     1511  2CE8               	goto	l4039
  9812     1512                     u3120:
  9813     1512                     l467:
  9814     1512  0008               	return
  9815     1513                     __end_of_eeprom_at24c04_str_write:
  9816                           
  9817                           	psect	text42
  9818     13E3                     __ptext42:	
  9819 ;; *************** function _eeprom_at24c04_byte_write *****************
  9820 ;; Defined at:
  9821 ;;		line 26 in file "at24c04.c"
  9822 ;; Parameters:    Size  Location     Type
  9823 ;;  memory_loc      1    wreg     unsigned char 
  9824 ;;  data            1    3[COMMON] unsigned char 
  9825 ;; Auto vars:     Size  Location     Type
  9826 ;;  memory_loc      1    6[COMMON] unsigned char 
  9827 ;; Return value:  Size  Location     Type
  9828 ;;                  1    wreg      void 
  9829 ;; Registers used:
  9830 ;;		wreg, status,2, status,0, pclath, cstack
  9831 ;; Tracked objects:
  9832 ;;		On entry : 0/0
  9833 ;;		On exit  : 0/0
  9834 ;;		Unchanged: 0/0
  9835 ;; Data sizes:     COMMON   BANK0   BANK1   BANK3   BANK2
  9836 ;;      Params:         1       0       0       0       0
  9837 ;;      Locals:         1       0       0       0       0
  9838 ;;      Temps:          2       0       0       0       0
  9839 ;;      Totals:         4       0       0       0       0
  9840 ;;Total ram usage:        4 bytes
  9841 ;; Hardware stack levels used: 1
  9842 ;; Hardware stack levels required when called: 3
  9843 ;; This function calls:
  9844 ;;		_i2c_start
  9845 ;;		_i2c_stop
  9846 ;;		_i2c_write
  9847 ;; This function is called by:
  9848 ;;		_eeprom_at24c04_str_write
  9849 ;; This function uses a non-reentrant model
  9850 ;;
  9851                           
  9852     13E3                     _eeprom_at24c04_byte_write:	
  9853                           ;psect for function _eeprom_at24c04_byte_write
  9854                           
  9855                           
  9856                           ;incstack = 0
  9857                           ; Regs used in _eeprom_at24c04_byte_write: [wreg+status,2+status,0+pclath+cstack]
  9858                           ;eeprom_at24c04_byte_write@memory_loc stored from wreg
  9859     13E3  00F6               	movwf	eeprom_at24c04_byte_write@memory_loc
  9860     13E4                     l4009:
  9861                           
  9862                           ;at24c04.c: 26: void eeprom_at24c04_byte_write(unsigned char memory_loc, unsigned char d
      +                          ata);at24c04.c: 27: {;at24c04.c: 28:     i2c_start();
  9863     13E4  160A  118A  223D  160A  118A  	fcall	_i2c_start
  9864                           
  9865                           ;at24c04.c: 29:     i2c_write(0xA0);
  9866     13E9  30A0               	movlw	160
  9867     13EA  160A  118A  224F  160A  118A  	fcall	_i2c_write
  9868                           
  9869                           ;at24c04.c: 30:     i2c_write(memory_loc);
  9870     13EF  0876               	movf	eeprom_at24c04_byte_write@memory_loc,w
  9871     13F0  160A  118A  224F  160A  118A  	fcall	_i2c_write
  9872                           
  9873                           ;at24c04.c: 31:     i2c_write(data);
  9874     13F5  0873               	movf	eeprom_at24c04_byte_write@data,w
  9875     13F6  160A  118A  224F  160A  118A  	fcall	_i2c_write
  9876                           
  9877                           ;at24c04.c: 32:     i2c_stop();
  9878     13FB  160A  118A  2246  160A  118A  	fcall	_i2c_stop
  9879     1400                     l4011:
  9880                           
  9881                           ;at24c04.c: 34:     _delay((unsigned long)((3)*(20000000/4000.0)));
  9882     1400  3014               	movlw	20
  9883     1401  00F5               	movwf	??_eeprom_at24c04_byte_write+1
  9884     1402  3079               	movlw	121
  9885     1403  00F4               	movwf	??_eeprom_at24c04_byte_write
  9886     1404                     u4697:
  9887     1404  0BF4               	decfsz	??_eeprom_at24c04_byte_write,f
  9888     1405  2C04               	goto	u4697
  9889     1406  0BF5               	decfsz	??_eeprom_at24c04_byte_write+1,f
  9890     1407  2C04               	goto	u4697
  9891     1408  2C09               	nop2
  9892     1409                     l461:
  9893     1409  0008               	return
  9894     140A                     __end_of_eeprom_at24c04_byte_write:
  9895                           
  9896                           	psect	text43
  9897     124F                     __ptext43:	
  9898 ;; *************** function _i2c_write *****************
  9899 ;; Defined at:
  9900 ;;		line 71 in file "i2c.c"
  9901 ;; Parameters:    Size  Location     Type
  9902 ;;  data            1    wreg     unsigned char 
  9903 ;; Auto vars:     Size  Location     Type
  9904 ;;  data            1    2[COMMON] unsigned char 
  9905 ;; Return value:  Size  Location     Type
  9906 ;;                  2   40[None  ] int 
  9907 ;; Registers used:
  9908 ;;		wreg, status,2, status,0, pclath, cstack
  9909 ;; Tracked objects:
  9910 ;;		On entry : 0/0
  9911 ;;		On exit  : 0/0
  9912 ;;		Unchanged: 0/0
  9913 ;; Data sizes:     COMMON   BANK0   BANK1   BANK3   BANK2
  9914 ;;      Params:         0       0       0       0       0
  9915 ;;      Locals:         1       0       0       0       0
  9916 ;;      Temps:          0       0       0       0       0
  9917 ;;      Totals:         1       0       0       0       0
  9918 ;;Total ram usage:        1 bytes
  9919 ;; Hardware stack levels used: 1
  9920 ;; Hardware stack levels required when called: 2
  9921 ;; This function calls:
  9922 ;;		_i2c_wait_for_idle
  9923 ;; This function is called by:
  9924 ;;		_read_ds1307
  9925 ;;		_write_ds1307
  9926 ;;		_eeprom_at24c04_random_read
  9927 ;;		_eeprom_at24c04_byte_write
  9928 ;; This function uses a non-reentrant model
  9929 ;;
  9930                           
  9931     124F                     _i2c_write:	
  9932                           ;psect for function _i2c_write
  9933                           
  9934                           
  9935                           ;incstack = 0
  9936                           ; Regs used in _i2c_write: [wreg+status,2+status,0+pclath+cstack]
  9937                           ;i2c_write@data stored from wreg
  9938     124F  00F2               	movwf	i2c_write@data
  9939     1250                     l3971:
  9940                           
  9941                           ;i2c.c: 71: int i2c_write(unsigned char data);i2c.c: 72: {;i2c.c: 73:     i2c_wait_for_i
      +                          dle();
  9942     1250  160A  118A  227B  160A  118A  	fcall	_i2c_wait_for_idle
  9943     1255                     l3973:
  9944                           
  9945                           ;i2c.c: 74:     SSPBUF = data;
  9946     1255  0872               	movf	i2c_write@data,w
  9947     1256  1283               	bcf	3,5	;RP0=0, select bank0
  9948     1257  1303               	bcf	3,6	;RP1=0, select bank0
  9949     1258  0093               	movwf	19	;volatile
  9950     1259                     l3975:
  9951     1259                     l107:	
  9952                           ;i2c.c: 76:     return !ACKSTAT;;	Return value of _i2c_write is never used
  9953                           
  9954     1259  0008               	return
  9955     125A                     __end_of_i2c_write:
  9956                           
  9957                           	psect	text44
  9958     1246                     __ptext44:	
  9959 ;; *************** function _i2c_stop *****************
  9960 ;; Defined at:
  9961 ;;		line 41 in file "i2c.c"
  9962 ;; Parameters:    Size  Location     Type
  9963 ;;		None
  9964 ;; Auto vars:     Size  Location     Type
  9965 ;;		None
  9966 ;; Return value:  Size  Location     Type
  9967 ;;                  1    wreg      void 
  9968 ;; Registers used:
  9969 ;;		wreg, status,2, status,0, pclath, cstack
  9970 ;; Tracked objects:
  9971 ;;		On entry : 0/0
  9972 ;;		On exit  : 0/0
  9973 ;;		Unchanged: 0/0
  9974 ;; Data sizes:     COMMON   BANK0   BANK1   BANK3   BANK2
  9975 ;;      Params:         0       0       0       0       0
  9976 ;;      Locals:         0       0       0       0       0
  9977 ;;      Temps:          0       0       0       0       0
  9978 ;;      Totals:         0       0       0       0       0
  9979 ;;Total ram usage:        0 bytes
  9980 ;; Hardware stack levels used: 1
  9981 ;; Hardware stack levels required when called: 2
  9982 ;; This function calls:
  9983 ;;		_i2c_wait_for_idle
  9984 ;; This function is called by:
  9985 ;;		_read_ds1307
  9986 ;;		_write_ds1307
  9987 ;;		_i2c_rep_start
  9988 ;;		_eeprom_at24c04_random_read
  9989 ;;		_eeprom_at24c04_byte_write
  9990 ;; This function uses a non-reentrant model
  9991 ;;
  9992                           
  9993     1246                     _i2c_stop:	
  9994                           ;psect for function _i2c_stop
  9995                           
  9996     1246                     l3967:	
  9997                           ;incstack = 0
  9998                           ; Regs used in _i2c_stop: [wreg+status,2+status,0+pclath+cstack]
  9999                           
 10000                           
 10001                           ;i2c.c: 43:     i2c_wait_for_idle();
 10002     1246  160A  118A  227B  160A  118A  	fcall	_i2c_wait_for_idle
 10003     124B                     l3969:
 10004                           
 10005                           ;i2c.c: 44:     PEN = 1;
 10006     124B  1683               	bsf	3,5	;RP0=1, select bank1
 10007     124C  1303               	bcf	3,6	;RP1=0, select bank1
 10008     124D  1511               	bsf	17,2	;volatile
 10009     124E                     l99:
 10010     124E  0008               	return
 10011     124F                     __end_of_i2c_stop:
 10012                           
 10013                           	psect	text45
 10014     123D                     __ptext45:	
 10015 ;; *************** function _i2c_start *****************
 10016 ;; Defined at:
 10017 ;;		line 28 in file "i2c.c"
 10018 ;; Parameters:    Size  Location     Type
 10019 ;;		None
 10020 ;; Auto vars:     Size  Location     Type
 10021 ;;		None
 10022 ;; Return value:  Size  Location     Type
 10023 ;;                  1    wreg      void 
 10024 ;; Registers used:
 10025 ;;		wreg, status,2, status,0, pclath, cstack
 10026 ;; Tracked objects:
 10027 ;;		On entry : 0/0
 10028 ;;		On exit  : 0/0
 10029 ;;		Unchanged: 0/0
 10030 ;; Data sizes:     COMMON   BANK0   BANK1   BANK3   BANK2
 10031 ;;      Params:         0       0       0       0       0
 10032 ;;      Locals:         0       0       0       0       0
 10033 ;;      Temps:          0       0       0       0       0
 10034 ;;      Totals:         0       0       0       0       0
 10035 ;;Total ram usage:        0 bytes
 10036 ;; Hardware stack levels used: 1
 10037 ;; Hardware stack levels required when called: 2
 10038 ;; This function calls:
 10039 ;;		_i2c_wait_for_idle
 10040 ;; This function is called by:
 10041 ;;		_read_ds1307
 10042 ;;		_write_ds1307
 10043 ;;		_i2c_rep_start
 10044 ;;		_eeprom_at24c04_random_read
 10045 ;;		_eeprom_at24c04_byte_write
 10046 ;; This function uses a non-reentrant model
 10047 ;;
 10048                           
 10049     123D                     _i2c_start:	
 10050                           ;psect for function _i2c_start
 10051                           
 10052     123D                     l3963:	
 10053                           ;incstack = 0
 10054                           ; Regs used in _i2c_start: [wreg+status,2+status,0+pclath+cstack]
 10055                           
 10056                           
 10057                           ;i2c.c: 30:     i2c_wait_for_idle();
 10058     123D  160A  118A  227B  160A  118A  	fcall	_i2c_wait_for_idle
 10059     1242                     l3965:
 10060                           
 10061                           ;i2c.c: 31:     SEN = 1;
 10062     1242  1683               	bsf	3,5	;RP0=1, select bank1
 10063     1243  1303               	bcf	3,6	;RP1=0, select bank1
 10064     1244  1411               	bsf	17,0	;volatile
 10065     1245                     l93:
 10066     1245  0008               	return
 10067     1246                     __end_of_i2c_start:
 10068                           
 10069                           	psect	text46
 10070     127B                     __ptext46:	
 10071 ;; *************** function _i2c_wait_for_idle *****************
 10072 ;; Defined at:
 10073 ;;		line 22 in file "i2c.c"
 10074 ;; Parameters:    Size  Location     Type
 10075 ;;		None
 10076 ;; Auto vars:     Size  Location     Type
 10077 ;;		None
 10078 ;; Return value:  Size  Location     Type
 10079 ;;                  1    wreg      void 
 10080 ;; Registers used:
 10081 ;;		wreg, status,2
 10082 ;; Tracked objects:
 10083 ;;		On entry : 0/0
 10084 ;;		On exit  : 0/0
 10085 ;;		Unchanged: 0/0
 10086 ;; Data sizes:     COMMON   BANK0   BANK1   BANK3   BANK2
 10087 ;;      Params:         0       0       0       0       0
 10088 ;;      Locals:         0       0       0       0       0
 10089 ;;      Temps:          0       0       0       0       0
 10090 ;;      Totals:         0       0       0       0       0
 10091 ;;Total ram usage:        0 bytes
 10092 ;; Hardware stack levels used: 1
 10093 ;; Hardware stack levels required when called: 1
 10094 ;; This function calls:
 10095 ;;		Nothing
 10096 ;; This function is called by:
 10097 ;;		_i2c_start
 10098 ;;		_i2c_stop
 10099 ;;		_i2c_read
 10100 ;;		_i2c_write
 10101 ;; This function uses a non-reentrant model
 10102 ;;
 10103                           
 10104     127B                     _i2c_wait_for_idle:	
 10105                           ;psect for function _i2c_wait_for_idle
 10106                           
 10107     127B                     l3959:	
 10108                           ;incstack = 0
 10109                           ; Regs used in _i2c_wait_for_idle: [wreg+status,2]
 10110                           
 10111     127B                     l87:	
 10112                           ;i2c.c: 25:     while (R_nW || (SSPCON2 & 0x1F));
 10113                           
 10114     127B  1683               	bsf	3,5	;RP0=1, select bank1
 10115     127C  1303               	bcf	3,6	;RP1=0, select bank1
 10116     127D  1914               	btfsc	20,2	;volatile
 10117     127E  2A80               	goto	u3071
 10118     127F  2A81               	goto	u3070
 10119     1280                     u3071:
 10120     1280  2A7B               	goto	l87
 10121     1281                     u3070:
 10122     1281                     l3961:
 10123     1281  0811               	movf	17,w	;volatile
 10124     1282  391F               	andlw	31
 10125     1283  1D03               	btfss	3,2
 10126     1284  2A86               	goto	u3081
 10127     1285  2A87               	goto	u3080
 10128     1286                     u3081:
 10129     1286  2A7B               	goto	l87
 10130     1287                     u3080:
 10131     1287                     l90:
 10132     1287  0008               	return
 10133     1288                     __end_of_i2c_wait_for_idle:
 10134                           
 10135                           	psect	text47
 10136     1288                     __ptext47:	
 10137 ;; *************** function _clear_screen *****************
 10138 ;; Defined at:
 10139 ;;		line 97 in file "car_bb.c"
 10140 ;; Parameters:    Size  Location     Type
 10141 ;;		None
 10142 ;; Auto vars:     Size  Location     Type
 10143 ;;		None
 10144 ;; Return value:  Size  Location     Type
 10145 ;;                  1    wreg      void 
 10146 ;; Registers used:
 10147 ;;		wreg, status,2, status,0, pclath, cstack
 10148 ;; Tracked objects:
 10149 ;;		On entry : 0/0
 10150 ;;		On exit  : 0/0
 10151 ;;		Unchanged: 0/0
 10152 ;; Data sizes:     COMMON   BANK0   BANK1   BANK3   BANK2
 10153 ;;      Params:         0       0       0       0       0
 10154 ;;      Locals:         0       0       0       0       0
 10155 ;;      Temps:          2       0       0       0       0
 10156 ;;      Totals:         2       0       0       0       0
 10157 ;;Total ram usage:        2 bytes
 10158 ;; Hardware stack levels used: 1
 10159 ;; Hardware stack levels required when called: 2
 10160 ;; This function calls:
 10161 ;;		_clcd_write
 10162 ;; This function is called by:
 10163 ;;		_main
 10164 ;;		_login
 10165 ;;		_login_menu
 10166 ;;		_view_log
 10167 ;;		_change_password
 10168 ;;		_set_time
 10169 ;; This function uses a non-reentrant model
 10170 ;;
 10171                           
 10172     1288                     _clear_screen:	
 10173                           ;psect for function _clear_screen
 10174                           
 10175     1288                     l4147:	
 10176                           ;incstack = 0
 10177                           ; Regs used in _clear_screen: [wreg+status,2+status,0+pclath+cstack]
 10178                           
 10179                           
 10180                           ;car_bb.c: 99:     clcd_write(0x01, 0);
 10181     1288  01F2               	clrf	clcd_write@mode
 10182     1289  3001               	movlw	1
 10183     128A  160A  118A  2332  160A  118A  	fcall	_clcd_write
 10184     128F                     l4149:
 10185                           
 10186                           ;car_bb.c: 100:     _delay((unsigned long)((500)*(20000000/4000000.0)));
 10187     128F  3004               	movlw	4
 10188     1290  00F7               	movwf	??_clear_screen+1
 10189     1291  303D               	movlw	61
 10190     1292  00F6               	movwf	??_clear_screen
 10191     1293                     u4707:
 10192     1293  0BF6               	decfsz	??_clear_screen,f
 10193     1294  2A93               	goto	u4707
 10194     1295  0BF7               	decfsz	??_clear_screen+1,f
 10195     1296  2A93               	goto	u4707
 10196     1297  2A98               	nop2
 10197     1298                     l307:
 10198     1298  0008               	return
 10199     1299                     __end_of_clear_screen:
 10200                           
 10201                           	psect	text48
 10202     12D1                     __ptext48:	
 10203 ;; *************** function _clcd_putch *****************
 10204 ;; Defined at:
 10205 ;;		line 54 in file "clcd.c"
 10206 ;; Parameters:    Size  Location     Type
 10207 ;;  data            1    wreg     const unsigned char 
 10208 ;;  addr            1    7[BANK0 ] unsigned char 
 10209 ;; Auto vars:     Size  Location     Type
 10210 ;;  data            1    8[BANK0 ] const unsigned char 
 10211 ;; Return value:  Size  Location     Type
 10212 ;;                  1    wreg      void 
 10213 ;; Registers used:
 10214 ;;		wreg, status,2, status,0, pclath, cstack
 10215 ;; Tracked objects:
 10216 ;;		On entry : 0/0
 10217 ;;		On exit  : 0/0
 10218 ;;		Unchanged: 0/0
 10219 ;; Data sizes:     COMMON   BANK0   BANK1   BANK3   BANK2
 10220 ;;      Params:         0       1       0       0       0
 10221 ;;      Locals:         0       1       0       0       0
 10222 ;;      Temps:          0       0       0       0       0
 10223 ;;      Totals:         0       2       0       0       0
 10224 ;;Total ram usage:        2 bytes
 10225 ;; Hardware stack levels used: 1
 10226 ;; Hardware stack levels required when called: 2
 10227 ;; This function calls:
 10228 ;;		_clcd_write
 10229 ;; This function is called by:
 10230 ;;		_display_time
 10231 ;;		_display_dashboard
 10232 ;;		_login
 10233 ;;		_login_menu
 10234 ;;		_view_log
 10235 ;;		_change_password
 10236 ;;		_set_time
 10237 ;; This function uses a non-reentrant model
 10238 ;;
 10239                           
 10240     12D1                     _clcd_putch:	
 10241                           ;psect for function _clcd_putch
 10242                           
 10243                           
 10244                           ;incstack = 0
 10245                           ; Regs used in _clcd_putch: [wreg+status,2+status,0+pclath+cstack]
 10246                           ;clcd_putch@data stored from wreg
 10247     12D1  1283               	bcf	3,5	;RP0=0, select bank0
 10248     12D2  1303               	bcf	3,6	;RP1=0, select bank0
 10249     12D3  00CD               	movwf	clcd_putch@data
 10250     12D4                     l4033:
 10251                           
 10252                           ;clcd.c: 54: void clcd_putch(const char data, unsigned char addr);clcd.c: 55: {;clcd.c: 
      +                          56:     clcd_write(addr, 0);
 10253     12D4  01F2               	clrf	clcd_write@mode
 10254     12D5  084C               	movf	clcd_putch@addr,w
 10255     12D6  160A  118A  2332  160A  118A  	fcall	_clcd_write
 10256                           
 10257                           ;clcd.c: 57:     clcd_write(data, 1);
 10258     12DB  01F2               	clrf	clcd_write@mode
 10259     12DC  0AF2               	incf	clcd_write@mode,f
 10260     12DD  1283               	bcf	3,5	;RP0=0, select bank0
 10261     12DE  1303               	bcf	3,6	;RP1=0, select bank0
 10262     12DF  084D               	movf	clcd_putch@data,w
 10263     12E0  160A  118A  2332  160A  118A  	fcall	_clcd_write
 10264     12E5                     l26:
 10265     12E5  0008               	return
 10266     12E6                     __end_of_clcd_putch:
 10267                           
 10268                           	psect	text49
 10269     14B5                     __ptext49:	
 10270 ;; *************** function _clcd_print *****************
 10271 ;; Defined at:
 10272 ;;		line 60 in file "clcd.c"
 10273 ;; Parameters:    Size  Location     Type
 10274 ;;  str             2    6[COMMON] PTR const unsigned char 
 10275 ;;		 -> STR_43(3), STR_42(3), STR_41(3), STR_40(13), 
 10276 ;;		 -> STR_39(13), STR_38(11), STR_37(7), STR_36(17), 
 10277 ;;		 -> STR_35(14), STR_34(17), STR_33(21), STR_32(18), 
 10278 ;;		 -> STR_28(13), STR_27(13), STR_26(18), STR_25(18), 
 10279 ;;		 -> STR_24(18), STR_23(16), STR_22(16), STR_21(15), 
 10280 ;;		 -> STR_20(17), STR_19(17), STR_18(17), STR_17(9), 
 10281 ;;		 -> STR_16(16), STR_15(13), STR_14(10), STR_13(9), 
 10282 ;;		 -> STR_10(5), STR_9(16), main@event(3), 
 10283 ;;  addr            1    8[COMMON] unsigned char 
 10284 ;; Auto vars:     Size  Location     Type
 10285 ;;		None
 10286 ;; Return value:  Size  Location     Type
 10287 ;;                  1    wreg      void 
 10288 ;; Registers used:
 10289 ;;		wreg, fsr0l, fsr0h, status,2, status,0, btemp+1, pclath, cstack
 10290 ;; Tracked objects:
 10291 ;;		On entry : 0/0
 10292 ;;		On exit  : 0/0
 10293 ;;		Unchanged: 0/0
 10294 ;; Data sizes:     COMMON   BANK0   BANK1   BANK3   BANK2
 10295 ;;      Params:         3       0       0       0       0
 10296 ;;      Locals:         0       0       0       0       0
 10297 ;;      Temps:          0       0       0       0       0
 10298 ;;      Totals:         3       0       0       0       0
 10299 ;;Total ram usage:        3 bytes
 10300 ;; Hardware stack levels used: 1
 10301 ;; Hardware stack levels required when called: 2
 10302 ;; This function calls:
 10303 ;;		_clcd_write
 10304 ;; This function is called by:
 10305 ;;		_main
 10306 ;;		_display_dashboard
 10307 ;;		_login
 10308 ;;		_login_menu
 10309 ;;		_view_log
 10310 ;;		_clear_log
 10311 ;;		_change_password
 10312 ;;		_set_time
 10313 ;; This function uses a non-reentrant model
 10314 ;;
 10315                           
 10316     14B5                     _clcd_print:	
 10317                           ;psect for function _clcd_print
 10318                           
 10319     14B5                     l4111:	
 10320                           ;incstack = 0
 10321                           ; Regs used in _clcd_print: [wreg-fsr0h+status,2+status,0+btemp+1+pclath+cstack]
 10322                           
 10323                           
 10324                           ;clcd.c: 60: void clcd_print(const char *str, unsigned char addr);clcd.c: 61: {;clcd.c: 
      +                          62:     clcd_write(addr, 0);
 10325     14B5  01F2               	clrf	clcd_write@mode
 10326     14B6  0878               	movf	clcd_print@addr,w
 10327     14B7  160A  118A  2332  160A  118A  	fcall	_clcd_write
 10328                           
 10329                           ;clcd.c: 64:     while (*str != '\0')
 10330     14BC  2CD3               	goto	l4117
 10331     14BD                     l4113:
 10332                           
 10333                           ;clcd.c: 65:     {;clcd.c: 66:         clcd_write(*str, 1);
 10334     14BD  01F2               	clrf	clcd_write@mode
 10335     14BE  0AF2               	incf	clcd_write@mode,f
 10336     14BF  0877               	movf	clcd_print@str+1,w
 10337     14C0  00FF               	movwf	btemp+1
 10338     14C1  0876               	movf	clcd_print@str,w
 10339     14C2  0084               	movwf	4
 10340     14C3  160A  118A  2000  160A  118A  	fcall	stringtab
 10341     14C8  160A  118A  2332  160A  118A  	fcall	_clcd_write
 10342     14CD                     l4115:
 10343                           
 10344                           ;clcd.c: 67:         str++;
 10345     14CD  3001               	movlw	1
 10346     14CE  07F6               	addwf	clcd_print@str,f
 10347     14CF  1803               	skipnc
 10348     14D0  0AF7               	incf	clcd_print@str+1,f
 10349     14D1  3000               	movlw	0
 10350     14D2  07F7               	addwf	clcd_print@str+1,f
 10351     14D3                     l4117:
 10352                           
 10353                           ;clcd.c: 64:     while (*str != '\0')
 10354     14D3  0877               	movf	clcd_print@str+1,w
 10355     14D4  1283               	bcf	3,5	;RP0=0, select bank0
 10356     14D5  1303               	bcf	3,6	;RP1=0, select bank0
 10357     14D6  00FF               	movwf	btemp+1
 10358     14D7  0876               	movf	clcd_print@str,w
 10359     14D8  0084               	movwf	4
 10360     14D9  160A  118A  2000  160A  118A  	fcall	stringtab
 10361     14DE  3A00               	xorlw	0
 10362     14DF  1D03               	skipz
 10363     14E0  2CE2               	goto	u3261
 10364     14E1  2CE3               	goto	u3260
 10365     14E2                     u3261:
 10366     14E2  2CBD               	goto	l4113
 10367     14E3                     u3260:
 10368     14E3                     l32:
 10369     14E3  0008               	return
 10370     14E4                     __end_of_clcd_print:
 10371                           
 10372                           	psect	text50
 10373     1332                     __ptext50:	
 10374 ;; *************** function _clcd_write *****************
 10375 ;; Defined at:
 10376 ;;		line 9 in file "clcd.c"
 10377 ;; Parameters:    Size  Location     Type
 10378 ;;  byte            1    wreg     unsigned char 
 10379 ;;  mode            1    2[COMMON] unsigned char 
 10380 ;; Auto vars:     Size  Location     Type
 10381 ;;  byte            1    5[COMMON] unsigned char 
 10382 ;; Return value:  Size  Location     Type
 10383 ;;                  1    wreg      void 
 10384 ;; Registers used:
 10385 ;;		wreg
 10386 ;; Tracked objects:
 10387 ;;		On entry : 0/0
 10388 ;;		On exit  : 0/0
 10389 ;;		Unchanged: 0/0
 10390 ;; Data sizes:     COMMON   BANK0   BANK1   BANK3   BANK2
 10391 ;;      Params:         1       0       0       0       0
 10392 ;;      Locals:         1       0       0       0       0
 10393 ;;      Temps:          2       0       0       0       0
 10394 ;;      Totals:         4       0       0       0       0
 10395 ;;Total ram usage:        4 bytes
 10396 ;; Hardware stack levels used: 1
 10397 ;; Hardware stack levels required when called: 1
 10398 ;; This function calls:
 10399 ;;		Nothing
 10400 ;; This function is called by:
 10401 ;;		_init_display_controller
 10402 ;;		_clcd_putch
 10403 ;;		_clcd_print
 10404 ;;		_main
 10405 ;;		_clear_screen
 10406 ;;		_login
 10407 ;;		_view_log
 10408 ;; This function uses a non-reentrant model
 10409 ;;
 10410                           
 10411     1332                     _clcd_write:	
 10412                           ;psect for function _clcd_write
 10413                           
 10414                           
 10415                           ;incstack = 0
 10416                           ; Regs used in _clcd_write: [wreg]
 10417                           ;clcd_write@byte stored from wreg
 10418     1332  00F5               	movwf	clcd_write@byte
 10419     1333                     l3995:
 10420                           
 10421                           ;clcd.c: 9: void clcd_write(unsigned char byte, unsigned char mode);clcd.c: 10: {;clcd.c
      +                          : 11:     RE2 = mode;
 10422     1333  1872               	btfsc	clcd_write@mode,0
 10423     1334  2B36               	goto	u3101
 10424     1335  2B3A               	goto	u3100
 10425     1336                     u3101:
 10426     1336  1283               	bcf	3,5	;RP0=0, select bank0
 10427     1337  1303               	bcf	3,6	;RP1=0, select bank0
 10428     1338  1509               	bsf	9,2	;volatile
 10429     1339  2B3D               	goto	u3114
 10430     133A                     u3100:
 10431     133A  1283               	bcf	3,5	;RP0=0, select bank0
 10432     133B  1303               	bcf	3,6	;RP1=0, select bank0
 10433     133C  1109               	bcf	9,2	;volatile
 10434     133D                     u3114:
 10435     133D                     l3997:
 10436                           
 10437                           ;clcd.c: 12:     PORTD = byte;
 10438     133D  0875               	movf	clcd_write@byte,w
 10439     133E  0088               	movwf	8	;volatile
 10440     133F                     l3999:
 10441                           
 10442                           ;clcd.c: 14:     RE1 = 1;
 10443     133F  1489               	bsf	9,1	;volatile
 10444                           
 10445                           ;clcd.c: 15:     _delay((unsigned long)((100)*(20000000/4000000.0)));
 10446     1340  30A6               	movlw	166
 10447     1341  00F3               	movwf	??_clcd_write
 10448     1342                     u4717:
 10449     1342  0BF3               	decfsz	??_clcd_write,f
 10450     1343  2B42               	goto	u4717
 10451     1344  0000               	nop
 10452     1345                     l4001:
 10453                           
 10454                           ;clcd.c: 16:     RE1 = 0;
 10455     1345  1283               	bcf	3,5	;RP0=0, select bank0
 10456     1346  1303               	bcf	3,6	;RP1=0, select bank0
 10457     1347  1089               	bcf	9,1	;volatile
 10458                           
 10459                           ;clcd.c: 18:     _delay((unsigned long)((4100)*(20000000/4000000.0)));
 10460     1348  301B               	movlw	27
 10461     1349  00F4               	movwf	??_clcd_write+1
 10462     134A  309E               	movlw	158
 10463     134B  00F3               	movwf	??_clcd_write
 10464     134C                     u4727:
 10465     134C  0BF3               	decfsz	??_clcd_write,f
 10466     134D  2B4C               	goto	u4727
 10467     134E  0BF4               	decfsz	??_clcd_write+1,f
 10468     134F  2B4C               	goto	u4727
 10469     1350  0000               	nop
 10470     1351                     l17:
 10471     1351  0008               	return
 10472     1352                     __end_of_clcd_write:
 10473                           
 10474                           	psect	text51
 10475     167A                     __ptext51:	
 10476 ;; *************** function _isr *****************
 10477 ;; Defined at:
 10478 ;;		line 12 in file "isr.c"
 10479 ;; Parameters:    Size  Location     Type
 10480 ;;		None
 10481 ;; Auto vars:     Size  Location     Type
 10482 ;;		None
 10483 ;; Return value:  Size  Location     Type
 10484 ;;                  1    wreg      void 
 10485 ;; Registers used:
 10486 ;;		wreg, status,2, status,0
 10487 ;; Tracked objects:
 10488 ;;		On entry : 0/0
 10489 ;;		On exit  : 0/0
 10490 ;;		Unchanged: 0/0
 10491 ;; Data sizes:     COMMON   BANK0   BANK1   BANK3   BANK2
 10492 ;;      Params:         0       0       0       0       0
 10493 ;;      Locals:         0       0       0       0       0
 10494 ;;      Temps:          2       0       0       0       0
 10495 ;;      Totals:         2       0       0       0       0
 10496 ;;Total ram usage:        2 bytes
 10497 ;; Hardware stack levels used: 1
 10498 ;; This function calls:
 10499 ;;		Nothing
 10500 ;; This function is called by:
 10501 ;;		Interrupt level 1
 10502 ;; This function uses a non-reentrant model
 10503 ;;
 10504                           
 10505     167A                     _isr:	
 10506                           ;psect for function _isr
 10507                           
 10508     167A                     i1l3743:
 10509                           
 10510                           ;isr.c: 14:     static unsigned long int count = 0;;isr.c: 16:     if (TMR2IF == 1)
 10511     167A  1283               	bcf	3,5	;RP0=0, select bank0
 10512     167B  1303               	bcf	3,6	;RP1=0, select bank0
 10513     167C  1C8C               	btfss	12,1	;volatile
 10514     167D  2E7F               	goto	u302_21
 10515     167E  2E80               	goto	u302_20
 10516     167F                     u302_21:
 10517     167F  2EBB               	goto	i1l497
 10518     1680                     u302_20:
 10519     1680                     i1l3745:
 10520                           
 10521                           ;isr.c: 17:     {;isr.c: 18:         if (++count == 73000)
 10522     1680  3001               	movlw	1
 10523     1681  07A6               	addwf	isr@count,f
 10524     1682  3000               	movlw	0
 10525     1683  1803               	skipnc
 10526     1684  3001               	movlw	1
 10527     1685  07A7               	addwf	isr@count+1,f
 10528     1686  3000               	movlw	0
 10529     1687  1803               	skipnc
 10530     1688  3001               	movlw	1
 10531     1689  07A8               	addwf	isr@count+2,f
 10532     168A  3000               	movlw	0
 10533     168B  1803               	skipnc
 10534     168C  3001               	movlw	1
 10535     168D  07A9               	addwf	isr@count+3,f
 10536     168E  3028               	movlw	40
 10537     168F  0626               	xorwf	isr@count,w
 10538     1690  301D               	movlw	29
 10539     1691  1903               	skipnz
 10540     1692  0627               	xorwf	isr@count+1,w
 10541     1693  1D03               	skipz
 10542     1694  2E9A               	goto	u303_21
 10543     1695  0328               	decf	isr@count+2,w
 10544     1696  0429               	iorwf	isr@count+3,w
 10545     1697  1D03               	btfss	3,2
 10546     1698  2E9A               	goto	u303_21
 10547     1699  2E9B               	goto	u303_20
 10548     169A                     u303_21:
 10549     169A  2EB8               	goto	i1l3757
 10550     169B                     u303_20:
 10551     169B                     i1l3747:
 10552                           
 10553                           ;isr.c: 19:         {;isr.c: 20:             count = 0;
 10554     169B  3000               	movlw	0
 10555     169C  1283               	bcf	3,5	;RP0=0, select bank0
 10556     169D  1303               	bcf	3,6	;RP1=0, select bank0
 10557     169E  00A9               	movwf	isr@count+3
 10558     169F  3000               	movlw	0
 10559     16A0  00A8               	movwf	isr@count+2
 10560     16A1  3000               	movlw	0
 10561     16A2  00A7               	movwf	isr@count+1
 10562     16A3  3000               	movlw	0
 10563     16A4  00A6               	movwf	isr@count
 10564     16A5                     i1l3749:
 10565                           
 10566                           ;isr.c: 21:             if(min > 0)
 10567     16A5  0838               	movf	_min,w
 10568     16A6  1903               	btfsc	3,2
 10569     16A7  2EA9               	goto	u304_21
 10570     16A8  2EAA               	goto	u304_20
 10571     16A9                     u304_21:
 10572     16A9  2EAC               	goto	i1l495
 10573     16AA                     u304_20:
 10574     16AA                     i1l3751:
 10575                           
 10576                           ;isr.c: 22:             {;isr.c: 23:                 min--;
 10577     16AA  3001               	movlw	1
 10578     16AB  02B8               	subwf	_min,f
 10579     16AC                     i1l495:	
 10580                           ;isr.c: 24:             }
 10581                           
 10582                           
 10583                           ;isr.c: 25:             if(min == 0 && return_time > 0)
 10584     16AC  0838               	movf	_min,w
 10585     16AD  1D03               	btfss	3,2
 10586     16AE  2EB0               	goto	u305_21
 10587     16AF  2EB1               	goto	u305_20
 10588     16B0                     u305_21:
 10589     16B0  2EB8               	goto	i1l3757
 10590     16B1                     u305_20:
 10591     16B1                     i1l3753:
 10592     16B1  0865               	movf	_return_time,w
 10593     16B2  1903               	btfsc	3,2
 10594     16B3  2EB5               	goto	u306_21
 10595     16B4  2EB6               	goto	u306_20
 10596     16B5                     u306_21:
 10597     16B5  2EB8               	goto	i1l3757
 10598     16B6                     u306_20:
 10599     16B6                     i1l3755:
 10600                           
 10601                           ;isr.c: 26:             {;isr.c: 27:                 return_time--;
 10602     16B6  3001               	movlw	1
 10603     16B7  02E5               	subwf	_return_time,f
 10604     16B8                     i1l3757:
 10605                           
 10606                           ;isr.c: 31:         TMR2IF = 0;
 10607     16B8  1283               	bcf	3,5	;RP0=0, select bank0
 10608     16B9  1303               	bcf	3,6	;RP1=0, select bank0
 10609     16BA  108C               	bcf	12,1	;volatile
 10610     16BB                     i1l497:
 10611     16BB  0871               	movf	??_isr+1,w
 10612     16BC  008A               	movwf	10
 10613     16BD  0E70               	swapf	??_isr,w
 10614     16BE  0083               	movwf	3
 10615     16BF  0EFE               	swapf	btemp,f
 10616     16C0  0E7E               	swapf	btemp,w
 10617     16C1  0009               	retfie
 10618     16C2                     __end_of_isr:
 10619     007E                     btemp	set	126	;btemp
 10620     007E                     wtemp0	set	126
 10621                           
 10622                           	psect	intentry
 10623     0004                     __pintentry:	
 10624                           ;incstack = 0
 10625                           ; Regs used in _isr: [wreg+status,2+status,0]
 10626                           
 10627     0004                     interrupt_function:
 10628     007E                     saved_w	set	btemp
 10629     0004  00FE               	movwf	btemp
 10630     0005  0E03               	swapf	3,w
 10631     0006  00F0               	movwf	??_isr
 10632     0007  080A               	movf	10,w
 10633     0008  00F1               	movwf	??_isr+1
 10634     0009  160A  118A  2E7A   	ljmp	_isr
 10635                           
 10636                           	psect	config
 10637                           
 10638                           ;Config register CONFIG @ 0x2007
 10639                           ;	Oscillator Selection bits
 10640                           ;	FOSC = 0x3, unprogrammed default
 10641                           ;	Watchdog Timer Enable bit
 10642                           ;	WDTE = OFF, WDT disabled
 10643                           ;	Power-up Timer Enable bit
 10644                           ;	PWRTE = 0x1, unprogrammed default
 10645                           ;	Brown-out Reset Enable bit
 10646                           ;	BOREN = 0x1, unprogrammed default
 10647                           ;	Low-Voltage (Single-Supply) In-Circuit Serial Programming Enable bit
 10648                           ;	LVP = 0x1, unprogrammed default
 10649                           ;	Data EEPROM Memory Code Protection bit
 10650                           ;	CPD = 0x1, unprogrammed default
 10651                           ;	Flash Program Memory Write Enable bits
 10652                           ;	WRT = 0x3, unprogrammed default
 10653                           ;	In-Circuit Debugger Mode bit
 10654                           ;	DEBUG = 0x1, unprogrammed default
 10655                           ;	Flash Program Memory Code Protection bit
 10656                           ;	CP = 0x1, unprogrammed default
 10657     2007                     	org	8199
 10658     2007  3FFB               	dw	16379

Data Sizes:
    Strings     409
    Constant    0
    Data        29
    BSS         60
    Persistent  0
    Stack       0

Auto Spaces:
    Space          Size  Autos    Used
    COMMON           14      9      12
    BANK0            80     30      71
    BANK1            80     12      57
    BANK3            96      0       0
    BANK2            96      0       0

Pointer List with Targets:

    strncpy@from	PTR const unsigned char  size(2) Largest target is 7
		 -> STR_31(CODE[5]), time(BANK0[7]), STR_12(CODE[3]), STR_11(CODE[3]), 
		 -> main@event(BANK1[3]), 

    strncpy@to	PTR unsigned char  size(1) Largest target is 11
		 -> change_password@new_pwd(BANK1[9]), log(BANK1[11]), 

    strncpy@cp	PTR unsigned char  size(1) Largest target is 11
		 -> change_password@new_pwd(BANK1[9]), log(BANK1[11]), 

    strncmp@s2	PTR const unsigned char  size(1) Largest target is 9
		 -> change_password@new_pwd(BANK1[9]), login@npassword(BANK0[4]), 

    strncmp@s1	PTR const unsigned char  size(1) Largest target is 9
		 -> change_password@new_pwd(BANK1[9]), login@spassword(BANK0[4]), 

    strcpy@from	PTR const unsigned char  size(2) Largest target is 3
		 -> STR_8(CODE[3]), STR_6(CODE[3]), STR_5(CODE[3]), STR_4(CODE[3]), 
		 -> STR_3(CODE[3]), STR_2(CODE[3]), STR_1(CODE[3]), 

    strcpy@to	PTR unsigned char  size(1) Largest target is 3
		 -> main@event(BANK1[3]), 

    strcpy@cp	PTR unsigned char  size(1) Largest target is 3
		 -> main@event(BANK1[3]), 

    puts@s	PTR const unsigned char  size(2) Largest target is 17
		 -> STR_30(CODE[7]), STR_29(CODE[17]), 

    eeprom_at24c04_str_write@data	PTR unsigned char  size(2) Largest target is 11
		 -> change_password@new_pwd(BANK1[9]), log(BANK1[11]), STR_7(CODE[5]), 

    log_car_event@event	PTR unsigned char  size(2) Largest target is 3
		 -> STR_12(CODE[3]), STR_11(CODE[3]), main@event(BANK1[3]), 

    sp__strncpy	PTR unsigned char  size(1) Largest target is 11
		 -> change_password@new_pwd(BANK1[9]), log(BANK1[11]), 

    display_dashboard@event	PTR unsigned char  size(1) Largest target is 3
		 -> main@event(BANK1[3]), 

    menu	PTR unsigned char [5] size(2) Largest target is 16
		 -> STR_17(CODE[9]), STR_16(CODE[16]), STR_15(CODE[13]), STR_14(CODE[10]), 
		 -> STR_13(CODE[9]), 

    sp__strcpy	PTR unsigned char  size(1) Largest target is 3
		 -> main@event(BANK1[3]), 

    gear	PTR unsigned char [6] size(2) Largest target is 3
		 -> STR_6(CODE[3]), STR_5(CODE[3]), STR_4(CODE[3]), STR_3(CODE[3]), 
		 -> STR_2(CODE[3]), STR_1(CODE[3]), 

    clcd_print@str	PTR const unsigned char  size(2) Largest target is 21
		 -> STR_43(CODE[3]), STR_42(CODE[3]), STR_41(CODE[3]), STR_40(CODE[13]), 
		 -> STR_39(CODE[13]), STR_38(CODE[11]), STR_37(CODE[7]), STR_36(CODE[17]), 
		 -> STR_35(CODE[14]), STR_34(CODE[17]), STR_33(CODE[21]), STR_32(CODE[18]), 
		 -> STR_28(CODE[13]), STR_27(CODE[13]), STR_26(CODE[18]), STR_25(CODE[18]), 
		 -> STR_24(CODE[18]), STR_23(CODE[16]), STR_22(CODE[16]), STR_21(CODE[15]), 
		 -> STR_20(CODE[17]), STR_19(CODE[17]), STR_18(CODE[17]), STR_17(CODE[9]), 
		 -> STR_16(CODE[16]), STR_15(CODE[13]), STR_14(CODE[10]), STR_13(CODE[9]), 
		 -> STR_10(CODE[5]), STR_9(CODE[16]), main@event(BANK1[3]), 


Critical Paths under _main in COMMON

    _main->_clcd_print
    _main->_eeprom_at24c04_str_write
    _view_log->_clcd_print
    _set_time->___awmod
    _set_time->_clcd_print
    ___lwdiv->_read_adc
    _login_menu->_clcd_print
    _login->___awmod
    _login->_clcd_print
    _log_car_event->___awmod
    _log_car_event->_strncpy
    _log_event->_eeprom_at24c04_str_write
    _init_uart->___lldiv
    _init_i2c->___lldiv
    _init_ds1307->_read_ds1307
    _write_ds1307->_i2c_write
    _init_clcd->_init_display_controller
    _init_display_controller->_clcd_write
    _download_log->___awmod
    _puts->_putchar
    _eeprom_at24c04_random_read->_i2c_read
    _display_dashboard->___awmod
    _display_dashboard->_clcd_print
    _get_time->_read_ds1307
    _read_ds1307->_i2c_read
    _clear_log->_clcd_print
    _change_password->_clcd_print
    _change_password->_eeprom_at24c04_str_write
    _change_password->_strncpy
    _eeprom_at24c04_str_write->_eeprom_at24c04_byte_write
    _eeprom_at24c04_byte_write->_i2c_write
    _clear_screen->_clcd_write
    _clcd_putch->___awmod
    _clcd_print->_clcd_write

Critical Paths under _isr in COMMON

    None.

Critical Paths under _main in BANK0

    _main->_view_log
    _view_log->_clcd_putch
    _set_time->_clcd_putch
    _login_menu->_clcd_putch
    _login->_clcd_putch
    _log_car_event->___awdiv
    _log_car_event->_log_event
    _log_event->_eeprom_at24c04_str_write
    _init_config->_init_i2c
    _init_config->_init_uart
    _init_uart->___lldiv
    _init_i2c->___lldiv
    _display_dashboard->_clcd_putch
    _display_time->_clcd_putch
    _change_password->_clcd_putch
    _clcd_putch->___lwdiv

Critical Paths under _isr in BANK0

    None.

Critical Paths under _main in BANK1

    None.

Critical Paths under _isr in BANK1

    None.

Critical Paths under _main in BANK3

    None.

Critical Paths under _isr in BANK3

    None.

Critical Paths under _main in BANK2

    None.

Critical Paths under _isr in BANK2

    None.

Call Graph Tables:

 ---------------------------------------------------------------------------------
 (Depth) Function   	        Calls       Base Space   Used Autos Params    Refs
 ---------------------------------------------------------------------------------
 (0) _main                                                16    16      0  146724
                                             26 BANK0      4     4      0
                                              0 BANK1     12    12      0
                            ___lwdiv
                    _change_password
                         _clcd_print
                         _clcd_write
                          _clear_log
                       _clear_screen
                  _display_dashboard
                       _download_log
           _eeprom_at24c04_str_write
                        _init_config
                      _log_car_event
                              _login
                         _login_menu
                           _read_adc
                _read_digital_keypad
                           _set_time
                             _strcpy
                           _view_log
 ---------------------------------------------------------------------------------
 (1) _view_log                                            17    16      1   17866
                                              9 BANK0     17    16      1
                             ___bmul
                         _clcd_print
                         _clcd_putch
                         _clcd_write
                       _clear_screen
         _eeprom_at24c04_random_read
 ---------------------------------------------------------------------------------
 (2) _strcpy                                               5     3      2     487
                                              2 COMMON     5     3      2
 ---------------------------------------------------------------------------------
 (1) _set_time                                             6     5      1   21105
                                              9 BANK0      6     5      1
                            ___awmod
                            ___lwdiv
                            ___lwmod
                             ___wmul
                         _clcd_print
                         _clcd_putch
                       _clear_screen
                           _get_time
                       _write_ds1307
 ---------------------------------------------------------------------------------
 (2) ___wmul                                               6     2      4    1336
                                              2 COMMON     6     2      4
 ---------------------------------------------------------------------------------
 (2) ___lwmod                                              6     2      4    1312
                                              2 COMMON     6     2      4
 ---------------------------------------------------------------------------------
 (2) ___lwdiv                                              8     4      4    1501
                                              6 COMMON     1     1      0
                                              0 BANK0      7     3      4
                           _read_adc (ARG)
 ---------------------------------------------------------------------------------
 (1) _read_digital_keypad                                  2     2      0      31
                                              2 COMMON     2     2      0
 ---------------------------------------------------------------------------------
 (1) _read_adc                                             4     2      2      34
                                              2 COMMON     4     2      2
 ---------------------------------------------------------------------------------
 (1) _login_menu                                           4     3      1   14927
                                              9 BANK0      4     3      1
                         _clcd_print
                         _clcd_putch
                       _clear_screen
 ---------------------------------------------------------------------------------
 (1) _login                                               11    10      1   19941
                                              9 BANK0     11    10      1
                            ___awdiv
                            ___awmod
                         _clcd_print
                         _clcd_putch
                         _clcd_write
                       _clear_screen
         _eeprom_at24c04_random_read
                            _strncmp
 ---------------------------------------------------------------------------------
 (1) _log_car_event                                        5     2      3    5333
                                              4 BANK0      5     2      3
                            ___awdiv
                            ___awmod
                           _get_time
                          _log_event
                            _strncpy
 ---------------------------------------------------------------------------------
 (2) _log_event                                            2     2      0     995
                                              2 BANK0      2     2      0
                             ___bmul
           _eeprom_at24c04_str_write
 ---------------------------------------------------------------------------------
 (1) _init_config                                          0     0      0    3988
                           _init_adc
                          _init_clcd
                _init_digital_keypad
                        _init_ds1307
                           _init_i2c
                        _init_timer2
                          _init_uart
 ---------------------------------------------------------------------------------
 (2) _init_uart                                            8     4      4     722
                                              8 BANK0      8     4      4
                            ___lldiv
 ---------------------------------------------------------------------------------
 (2) _init_timer2                                          0     0      0       0
 ---------------------------------------------------------------------------------
 (2) _init_i2c                                             8     4      4     722
                                              8 BANK0      8     4      4
                            ___lldiv
 ---------------------------------------------------------------------------------
 (3) ___lldiv                                             14     6      8     601
                                              2 COMMON     6     6      0
                                              0 BANK0      8     0      8
 ---------------------------------------------------------------------------------
 (2) _init_ds1307                                          1     1      0     682
                                              6 COMMON     1     1      0
                        _read_ds1307
                       _write_ds1307
 ---------------------------------------------------------------------------------
 (2) _write_ds1307                                         2     1      1     453
                                              3 COMMON     2     1      1
                          _i2c_start
                           _i2c_stop
                          _i2c_write
 ---------------------------------------------------------------------------------
 (2) _init_digital_keypad                                  0     0      0       0
 ---------------------------------------------------------------------------------
 (2) _init_clcd                                            0     0      0    1862
            _init_display_controller
 ---------------------------------------------------------------------------------
 (3) _init_display_controller                              2     2      0    1862
                                              6 COMMON     2     2      0
                         _clcd_write
 ---------------------------------------------------------------------------------
 (2) _init_adc                                             0     0      0       0
 ---------------------------------------------------------------------------------
 (1) _download_log                                        17    17      0    2929
                                              0 BANK0     17    17      0
                            ___awmod
                             ___bmul
         _eeprom_at24c04_random_read
                            _putchar
                               _puts
 ---------------------------------------------------------------------------------
 (2) _puts                                                 2     0      2     276
                                              3 COMMON     2     0      2
                            _putchar
 ---------------------------------------------------------------------------------
 (3) _putchar                                              1     1      0      31
                                              2 COMMON     1     1      0
 ---------------------------------------------------------------------------------
 (2) _eeprom_at24c04_random_read                           2     2      0     164
                                              4 COMMON     2     2      0
                           _i2c_read
                      _i2c_rep_start
                          _i2c_start
                           _i2c_stop
                          _i2c_write
 ---------------------------------------------------------------------------------
 (2) ___bmul                                               4     3      1     406
                                              2 COMMON     4     3      1
 ---------------------------------------------------------------------------------
 (1) _display_dashboard                                    4     3      1   20940
                                              9 BANK0      4     3      1
                            ___awdiv
                            ___awmod
                         _clcd_print
                         _clcd_putch
                       _display_time
 ---------------------------------------------------------------------------------
 (2) _display_time                                         0     0      0    5685
                         _clcd_putch
                           _get_time
 ---------------------------------------------------------------------------------
 (2) _get_time                                             1     1      0     161
                                              6 COMMON     1     1      0
                        _read_ds1307
 ---------------------------------------------------------------------------------
 (3) _read_ds1307                                          2     2      0     161
                                              4 COMMON     2     2      0
                           _i2c_read
                      _i2c_rep_start
                          _i2c_start
                           _i2c_stop
                          _i2c_write
 ---------------------------------------------------------------------------------
 (3) _i2c_rep_start                                        0     0      0       0
                          _i2c_start
                           _i2c_stop
 ---------------------------------------------------------------------------------
 (3) _i2c_read                                             2     2      0      65
                                              2 COMMON     2     2      0
                  _i2c_wait_for_idle
 ---------------------------------------------------------------------------------
 (2) ___awmod                                              7     3      4    1341
                                              2 COMMON     7     3      4
 ---------------------------------------------------------------------------------
 (2) ___awdiv                                              9     5      4     813
                                              2 COMMON     5     1      4
                                              0 BANK0      4     4      0
 ---------------------------------------------------------------------------------
 (1) _clear_log                                            1     1      0    7389
                                              0 BANK0      1     1      0
                         _clcd_print
 ---------------------------------------------------------------------------------
 (1) _change_password                                      4     3      1   16922
                                              9 BANK0      4     3      1
                         _clcd_print
                         _clcd_putch
                       _clear_screen
           _eeprom_at24c04_str_write
                            _strncmp
                            _strncpy
 ---------------------------------------------------------------------------------
 (3) _strncpy                                              9     5      4     850
                                              2 COMMON     7     3      4
                                              0 BANK0      2     2      0
 ---------------------------------------------------------------------------------
 (2) _strncmp                                              6     3      3     624
                                              2 COMMON     6     3      3
 ---------------------------------------------------------------------------------
 (3) _eeprom_at24c04_str_write                             4     2      2     552
                                              7 COMMON     2     0      2
                                              0 BANK0      2     2      0
          _eeprom_at24c04_byte_write
 ---------------------------------------------------------------------------------
 (4) _eeprom_at24c04_byte_write                            4     3      1     183
                                              3 COMMON     4     3      1
                          _i2c_start
                           _i2c_stop
                          _i2c_write
 ---------------------------------------------------------------------------------
 (3) _i2c_write                                            1     1      0      31
                                              2 COMMON     1     1      0
                  _i2c_wait_for_idle
 ---------------------------------------------------------------------------------
 (3) _i2c_stop                                             0     0      0       0
                  _i2c_wait_for_idle
 ---------------------------------------------------------------------------------
 (3) _i2c_start                                            0     0      0       0
                  _i2c_wait_for_idle
 ---------------------------------------------------------------------------------
 (4) _i2c_wait_for_idle                                    0     0      0       0
 ---------------------------------------------------------------------------------
 (2) _clear_screen                                         2     2      0    1862
                                              6 COMMON     2     2      0
                         _clcd_write
 ---------------------------------------------------------------------------------
 (2) _clcd_putch                                           2     1      1    5524
                                              7 BANK0      2     1      1
                            ___awdiv (ARG)
                            ___awmod (ARG)
                            ___lwdiv (ARG)
                            ___lwmod (ARG)
                         _clcd_write
 ---------------------------------------------------------------------------------
 (2) _clcd_print                                           3     0      3    7358
                                              6 COMMON     3     0      3
                         _clcd_write
 ---------------------------------------------------------------------------------
 (3) _clcd_write                                           4     3      1    1862
                                              2 COMMON     4     3      1
 ---------------------------------------------------------------------------------
 Estimated maximum stack depth 4
 ---------------------------------------------------------------------------------
 (Depth) Function   	        Calls       Base Space   Used Autos Params    Refs
 ---------------------------------------------------------------------------------
 (8) _isr                                                  2     2      0       0
                                              0 COMMON     2     2      0
 ---------------------------------------------------------------------------------
 Estimated maximum stack depth 8
 ---------------------------------------------------------------------------------

 Call Graph Graphs:

 _main (ROOT)
   ___lwdiv
     _read_adc (ARG)
   _change_password
     _clcd_print
       _clcd_write
     _clcd_putch
       ___awdiv (ARG)
       ___awmod (ARG)
       ___lwdiv (ARG)
       ___lwmod (ARG)
       _clcd_write (ARG)
     _clear_screen
       _clcd_write
     _eeprom_at24c04_str_write
       _eeprom_at24c04_byte_write
         _i2c_start
           _i2c_wait_for_idle
         _i2c_stop
           _i2c_wait_for_idle
         _i2c_write
           _i2c_wait_for_idle
     _strncmp
     _strncpy
   _clcd_print
   _clcd_write
   _clear_log
     _clcd_print
   _clear_screen
   _display_dashboard
     ___awdiv
     ___awmod
     _clcd_print
     _clcd_putch
     _display_time
       _clcd_putch
       _get_time
         _read_ds1307
           _i2c_read
             _i2c_wait_for_idle
           _i2c_rep_start
             _i2c_start
             _i2c_stop
           _i2c_start
           _i2c_stop
           _i2c_write
   _download_log
     ___awmod
     ___bmul
     _eeprom_at24c04_random_read
       _i2c_read
       _i2c_rep_start
       _i2c_start
       _i2c_stop
       _i2c_write
     _putchar
     _puts
       _putchar
   _eeprom_at24c04_str_write
   _init_config
     _init_adc
     _init_clcd
       _init_display_controller
         _clcd_write
     _init_digital_keypad
     _init_ds1307
       _read_ds1307
       _write_ds1307
         _i2c_start
         _i2c_stop
         _i2c_write
     _init_i2c
       ___lldiv
     _init_timer2
     _init_uart
       ___lldiv
   _log_car_event
     ___awdiv
     ___awmod
     _get_time
     _log_event
       ___bmul
       _eeprom_at24c04_str_write
     _strncpy
   _login
     ___awdiv
     ___awmod
     _clcd_print
     _clcd_putch
     _clcd_write
     _clear_screen
     _eeprom_at24c04_random_read
     _strncmp
   _login_menu
     _clcd_print
     _clcd_putch
     _clear_screen
   _read_adc
   _read_digital_keypad
   _set_time
     ___awmod
     ___lwdiv
     ___lwmod
     ___wmul
     _clcd_print
     _clcd_putch
     _clear_screen
     _get_time
     _write_ds1307
   _strcpy
   _view_log
     ___bmul
     _clcd_print
     _clcd_putch
     _clcd_write
     _clear_screen
     _eeprom_at24c04_random_read

 _isr (ROOT)

 Address spaces:
Name               Size   Autos  Total    Cost      Usage
BANK3               60      0       0       9        0.0%
BITBANK3            60      0       0       8        0.0%
SFR3                 0      0       0       4        0.0%
BITSFR3              0      0       0       4        0.0%
BANK2               60      0       0      11        0.0%
BITBANK2            60      0       0      10        0.0%
SFR2                 0      0       0       5        0.0%
BITSFR2              0      0       0       5        0.0%
BANK1               50      C      39       7       71.2%
BITBANK1            50      0       0       6        0.0%
SFR1                 0      0       0       2        0.0%
BITSFR1              0      0       0       2        0.0%
BANK0               50     1E      47       5       88.8%
BITBANK0            50      0       0       4        0.0%
SFR0                 0      0       0       1        0.0%
BITSFR0              0      0       0       1        0.0%
COMMON               E      9       C       1       85.7%
BITCOMMON            E      0       0       0        0.0%
CODE                 0      0       0       0        0.0%
DATA                 0      0      8C      12        0.0%
ABS                  0      0      8C       3        0.0%
NULL                 0      0       0       0        0.0%
STACK                0      0       0       2        0.0%
EEDATA             100      0       0       0        0.0%


Microchip Technology PIC Macro Assembler V2.40 build 20220703182018 
Symbol Table                                                                                   Tue Oct 18 18:12:21 2022

                                      pc 0002                           ___bmul@product 0074  
                         clcd_print@addr 0078                                       l20 08FC  
                                     l23 127A                                       l32 14E3  
                                     l17 1351                                       l26 12E5  
                                     l52 1489                                       l55 1331  
                                     l49 12BD                                       l90 1287  
                                     l84 06FF                                       l93 1245  
                                     l87 127B                                       l96 1264  
                                     _GO 00FA                                       l99 124E  
                           ___awdiv@sign 0046                                       fsr 0004  
                    ___wmul@multiplicand 0074                      clear_log@reset_flag 0045  
                     login_menu@menu_pos 0035                                      l102 136D  
                                    l103 1370                                      l104 1372  
                                    l122 1234                                      l107 1259  
                                    l203 01E5                                      l301 15F5  
                                    l125 129C                                      l304 0954  
                                    l128 12AA                                      l232 02B5  
                                    l225 0229                                      l307 1298  
                                    l411 06CB                                      l318 0FFF  
                                    l343 0B2A                                      l433 122D  
                                    l290 1752                                      l514 1544  
                                    l355 0C44                                      l524 126A  
                                    l532 13E2                                      l620 1397  
                                    l461 1409                                      l293 17A8  
                                    l525 126E                                      l373 0E92  
                                    l189 157E                                      l526 126F  
                                    l359 145E                                      l439 1433  
                                    l384 0D68                                      l296 17FF  
                                    l480 08A5                                      l369 0DB7  
                                    l458 14B4                                      l618 137F  
                                    l467 1512                                      l644 12FA  
                                    l900 15B8                                      l654 0A15  
                                    l771 0A7E                                      l784 09AD  
                                    l890 1679                                      _GIE 005F  
                                    _RE1 0049                                      _RE2 004A  
                                    _PR2 0092                                      _PEN 048A  
                                    _SEN 0488                            ?_display_time 0070  
                          log_event@addr 0048                                      _min 0038  
                                    _log 00B9                                      _isr 167A  
                         clcd_putch@addr 004C                                      _pos 0066  
                                    fsr0 0004                           clcd_putch@data 004D  
                                    indf 0000                             ___awmod@sign 0078  
       __end_of_eeprom_at24c04_str_write 1513                       view_log@reset_flag 004E  
                     log_car_event@event 0049                       log_car_event@speed 004B  
                                   l1080 1633                                     l1072 13BC  
                                   l1075 1623                                     l1091 1709  
                                   l4001 1345                    ??_read_digital_keypad 0072  
                                   l4011 1400                                     l4003 1460  
                                   l4005 1488                                     l4021 08CA  
                                   l4013 08A6                                     l4111 14B5  
                                   l4031 08F0                                     l4023 08D1  
                                   l4015 08AE                                     l4103 1270  
                                   l4113 14BD                                     l4033 12D4  
                                   l4009 13E4                                     l4041 14F8  
                                   l4201 14AE                                     l4025 08D4  
                                   l4017 08B5                                     l4105 1273  
                                   l4121 12B2                                     l5001 01AA  
                                   l4115 14CD                                     l4043 14FE  
                                   l4211 1600                                     l4051 172D  
                                   l4203 14B3                                     l4131 122E  
                                   l4027 08DB                                     l4019 08C5  
                                   l4107 1274                                     l4035 1315  
                                   l4123 12B5                                     l5011 01C3  
                                   l4117 14D3                                     l4045 1504  
                                   l4037 14E7                                     l4213 160C  
                                   l4301 096A                                     l4061 1751  
                                   l4053 1731                                     l4029 08E7  
                                   l4109 1275                                     l4133 1228  
                                   l4125 06CC                                     l4141 08A2  
                                   l5101 0385                                     l5021 01ED  
                                   l5013 01C7                                     l4039 14E8  
                                   l4207 15F7                                     l4311 0982  
                                   l4303 0970                                     l4055 173D  
                                   l4047 170A                                     l4151 1753  
                                   l4071 12F0                                     l4063 1266  
                                   l4223 13BD                                     l4119 12AB  
                                   l4127 06CF                                     l4135 0899  
                                   l4143 1513                                     l4231 1373  
                                   l5103 0398                                     l5023 01F3  
                                   l5031 0204                                     l5007 01AF  
                                   l4217 161B                                     l4209 15F8  
                                   l4321 09A4                                     l4313 098C  
                                   l4305 0973                                     l4057 1741  
                                   l4049 171F                                     l4073 12F2  
                                   l4065 12E7                                     l4225 13BE  
                                   l4081 09C0                                     l4129 06FC  
                                   l4137 089D                                     l4145 1517  
                                   l4161 15C6                                     l4153 15B9  
                                   l4401 0902                                     l4241 1393  
                                   l4233 1375                                     l5105 03A2  
                                   l5041 021C                                     l5033 020A  
                                   l5113 03E1                                     l5025 01F9  
                                   l5009 01BE                                     l5017 01CA  
                                   l4147 1288                                     l4219 1631  
                                   l4171 16C5                                     l4251 0A22  
                                   l4323 09A9                                     l4315 0992  
                                   l4307 097A                                     l4059 174D  
                                   l4075 12F9                                     l4067 12E8  
                                   l4227 13CC                                     l4091 09EF  
                                   l4083 09C3                                     l4139 08A1  
                                   l4163 15C8                                     l4155 15B9  
                                   l4403 0910                                     l4411 1410  
                                   l4331 163E                                     l4235 1379  
                                   l5051 0248                                     l5043 0230  
                                   l5115 0405                                     l5035 0210  
                                   l5027 01FE                                     l5019 01E5  
                                   l4149 128F                                     l4181 16F3  
                                   l4173 16C8                                     l4261 0A33  
                                   l4253 0A24                                     l4245 0A16  
                                   l4317 0999                                     l4309 097E  
                                   l4069 12EC                                     l4229 13D2  
                                   l4093 09FD                                     l4085 09D0  
                                   l4165 15D4                                     l4157 15BF  
                                   l4405 094E                                     l4501 0EF4  
                                   l4421 1425                                     l4341 1661  
                                   l4333 1641                                     l4237 1386  
                                   l5061 0276                                     l5053 024F  
                                   l5045 0237                                     l5037 0215  
                                   l5029 0202                                     l4183 16F7  
                                   l4175 16CE                                     l4271 0A4B  
                                   l4263 0A39                                     l4255 0A28  
                                   l4247 0A19                                     l4319 099F  
                                   l4191 1490                                     l4095 09FE  
                                   l4087 09D4                                     l4079 09AE  
                                   l4167 15DE                                     l4159 15C5  
                                   l4407 094F                                     l4511 0F0B  
                                   l4431 1430                                     l4343 1667  
                                   l4335 1648                                     l4327 1634  
                                   l4239 138D                                     l5071 02BF  
                                   l5063 0288                                     l5047 023F  
                                   l5039 0219                                     l4185 16FB  
                                   l4273 0A5C                                     l4265 0A3C  
                                   l4281 0A70                                     l4257 0A2D  
                                   l4249 0A1D                                     l4193 1496  
                                   l4097 0A07                                     l4089 09DD  
                                   l4169 15ED                                     l4521 0F2C  
                                   l4513 0F18                                     l4601 0B27  
                                   l4433 1432                                     l4417 1415  
                                   l4409 140B                                     l4345 1668  
                                   l4337 164C                                     l4329 1638  
                                   l4361 1593                                     l4353 157F  
                                   l4441 13A0                                     l5081 030C  
                                   l5073 02F7                                     l5065 028F  
                                   l5049 0245                                     l4179 16EC  
                                   l4283 0A75                                     l4275 0A62  
                                   l4267 0A43                                     l4259 0A31  
                                   l4291 0956                                     l4195 149C  
                                   l4187 148B                                     l4099 0A0D  
                                   l4531 0F55                                     l4523 0F35  
                                   l4515 0F2A                                     l4507 0EF6  
                                   l4451 0E96                                     l4419 1420  
                                   l4347 166F                                     l4339 1650  
                                   l4363 1597                                     l4355 1585  
                                   l4371 15B4                                     l4443 13A6  
                                   l4611 0B58                                     l5091 0323  
                                   l5083 030F                                     l5075 02FD  
                                   l5067 029E                                     l5059 0257  
                                   l4701 0C62                                     l4285 0A7A  
                                   l4277 0A63                                     l4269 0A47  
                                   l4293 095A                                     l4445 17AC  
                                   l4197 14A1                                     l4189 148B  
                                   l4381 1545                                     l4541 0FA4  
                                   l4533 0F61                                     l4525 0F37  
                                   l4509 0F03                                     l4461 0EA1  
                                   l4453 0E9C                                     l4429 1427  
                                   l4349 1675                                     l4365 15A1  
                                   l4357 1588                                     l4437 1399  
                                   l4621 0B7F                                     l4613 0B60  
                                   l4605 0B2E                                     l5093 0342  
                                   l5085 0319                                     l5077 0303  
                                   l5069 02AB                                     l5341 01D4  
                                   l4711 0C82                                     l4703 0C67  
                                   l4279 0A6A                                     l4295 095F  
                                   l4447 17B7                                     l4199 14A7  
                                   l4391 1568                                     l4383 154A  
                                   l4551 0FE4                                     l4543 0FAF  
                                   l4535 0F95                                     l4527 0F3C  
                                   l4471 0EAC                                     l4463 0EA2  
                                   l4455 0E9E                                     l4375 1299  
                                   l4367 15A7                                     l4359 158F  
                                   l5351 06C0                                     l4439 139C  
                                   l4623 0B84                                     l4615 0B6B  
                                   l4607 0B36                                     l5095 034C  
                                   l5087 031C                                     l5079 0308  
                                   l5343 026E                                     l5353 0D06  
                                   l4721 0CBB                                     l4713 0C91  
                                   l4297 0961                                     l4289 0955  
                                   l4449 17BC                                     l4393 156D  
                                   l4385 154F                                     l4553 0FE7  
                                   l4545 0FC5                                     l4537 0F9C  
                                   l4529 0F4A                                     l4561 0FFE  
                                   l4481 0EC0                                     l4465 0EA3  
                                   l4457 0E9F                                     l4377 12A0  
                                   l4369 15AE                                     l4801 0492  
                                   l4641 0BBA                                     l4617 0B71  
                                   l4609 0B4D                                     l5345 033A  
                                   l4731 0CD1                                     l4723 0CC3  
                                   l4715 0CA0                                     l4707 0C69  
                                   l4651 145D                                     l4643 1437  
                                   l4299 0965                                     l4395 157C  
                                   l4387 155E                                     l4555 0FE9  
                                   l4547 0FD4                                     l4539 0F9F  
                                   l4491 0EDE                                     l4483 0EC9  
                                   l4475 0EAE                                     l4467 0EA5  
                                   l4459 0EA0                                     l4571 0A8E  
                                   l4811 04ED                                     l4635 0B97  
                                   l4627 0B87                                     l4619 0B77  
                                   l5347 03EB                                     l4741 0CF2  
                                   l4733 0CD7                                     l4725 0CC7  
                                   l4717 0CAC                                     l4709 0C76  
                                   l4645 144D                                     l4661 0D77  
                                   l4397 157D                                     l4389 1563  
                                   l4557 0FF0                                     l4549 0FD9  
                                   l4493 0EE4                                     l4485 0ECF  
                                   l4477 0EB4                                     l4469 0EA7  
                                   l4581 0AAC                                     l4573 0A96  
                                   l4565 0A82                                     l5349 05A8  
                                   l4821 0569                                     l4813 04F1  
                                   l4805 0494                                     l4637 0BA5  
                                   l4629 0B95                                     l4743 0CF4  
                                   l4735 0CDD                                     l4727 0CC9  
                                   l4719 0CB2                                     l4751 0CFC  
                                   l4647 1455                                     l4671 0D9E  
                                   l4663 0D81                                     l4655 0D69  
                                   l4399 08FD                                     l4559 0FF7  
                                   l4479 0EBA                                     l4487 0ED2  
                                   l4591 0AC4                                     l4583 0AB1  
                                   l4575 0A9C                                     l4567 0A88  
                                   l4831 059A                                     l4823 0571  
                                   l4815 04F9                                     l4807 04A0  
                                   l4639 0BAD                                     l4911 004B  
                                   l3961 1281                                     l4761 0D4E  
                                   l4737 0CE6                                     l4729 0CD0  
                                   l4753 0D0E                                     l4681 0DD0  
                                   l4673 0DA1                                     l4665 0D8A  
                                   l4657 0D6F                                     l4489 0ED8  
                                   l4593 0AD9                                     l4577 0AA0  
                                   l4569 0A89                                     l4833 059E  
                                   l4825 0576                                     l4817 0529  
                                   l4809 04B8                                     l4841 05B3  
                                   l4921 0091                                     l4913 0054  
                                   l4905 0041                                     l3963 123D  
                                   l3971 1250                                     l4755 0D17  
                                   l4739 0CEE                                     l4683 0DDF  
                                   l4675 0DCE                                     l4667 0D91  
                                   l4691 0E82                                     l4659 0D6F  
                                   l4499 0EEE                                     l4595 0AEF  
                                   l4587 0AB4                                     l4579 0AA6  
                                   l4851 05D2                                     l4843 05BC  
                                   l4827 0581                                     l4819 0565  
                                   l4931 00C4                                     l4923 0093  
                                   l4915 0059                                     l4907 0045  
                                   l3965 1242                                     l3973 1255  
                                   l4757 0D29                                     l4693 0C48  
                                   l3981 1353                                     l4685 0DEA  
                                   l4669 0D99                                     l4597 0AF5  
                                   l4589 0ABC                                     l4861 05FF  
                                   l4853 05D4                                     l4845 05BE  
                                   l4829 058C                                     l4941 00FE  
                                   l4933 00CA                                     l4925 009C  
                                   l4917 0063                                     l4909 004B  
                                   l3959 127B                                     l3967 1246  
                                   l3975 1259                                     l4759 0D49  
                                   l4767 0D50                                     l4775 0D67  
                                   l4695 0C4E                                     l3991 1371  
                                   l3983 1358                                     l4687 0DF2  
                                   l4599 0B1D                                     l4871 065D  
                                   l4863 0617                                     l4855 05DE  
                                   l4847 05C7                                     l4839 05A0  
                                   l4791 0488                                     l4783 0410  
                                   l4951 0120                                     l4943 0103  
                                   l4935 00DE                                     l4927 00A2  
                                   l4919 006F                                     l3969 124B  
                                   l4697 0C5C                                     l3985 1360  
                                   l4689 0DFF                                     l4881 06A3  
                                   l4873 0677                                     l4865 0621  
                                   l4857 05DF                                     l4849 05C9  
                                   l4793 0489                                     l4785 0416  
                                   l4961 0142                                     l4953 0126  
                                   l4945 0105                                     l4937 00E6  
                                   l4929 00BE                                     _ADFM 04FF  
                                   l3995 1333                                     l4699 0C60  
                                   l3987 1364                                     l3979 125A  
                                   l4883 06AF                                     l4875 068F  
                                   l4867 063B                                     l4859 05E7  
                                   l4795 048A                                     l4787 0477  
                                   l4963 0149                                     l4955 012B  
                                   l4971 015A                                     l4939 00F8  
                                   ?_isr 0070                                     l3997 133D  
                                   l3989 1369                                     l4869 0653  
                                   l4797 048C                                     l4789 0482  
                                   l4981 0177                                     l4973 0160  
                                   l4965 0150                                     l4957 0130  
                                   l4949 011A                                     l3999 133F  
                                   l4879 0697                                     l4887 06BB  
                                   l4799 048D                                     l4991 018A  
                                   l4983 017B                                     l4967 0154  
                                   l4959 013B                                     l4993 018F  
                                   l4985 017E                                     l4977 0167  
                                   l4969 0156                                     l4995 0193  
                                   l4987 0183                                     l4979 016C  
                                   l4997 0196                                     l4989 0187  
                                   l4999 01A5                                     _ADON 00F8  
                                   STR_1 088D                                     STR_2 0893  
                                   STR_3 0881                                     STR_4 0884  
                                   STR_5 0887                                     STR_6 088A  
                                   STR_7 0874                                     STR_8 087E  
                                   STR_9 07D1                                     _CREN 00C4  
                                   u3100 133A                                     u3101 1336  
                                   u3120 1512                                     u4000 0B6B  
                                   u3121 1511                                     u4001 0B6A  
                                   u3114 133D                                     u3210 09D4  
                                   u4010 0B7F                                     u3211 09D3  
                                   u4011 0B7E                                     u4100 0C67  
                                   u3300 15ED                                     u4020 0B84  
                                   u4101 0C66                                     u3205 09C5  
                                   u3301 15EC                                     u4021 0B83  
                                   u4005 0B67                                     u3070 1281  
                                   u3310 16EB                                     u4110 0C76  
                                   u3230 09EF                                     u4030 0BBA  
                                   u3071 1280                                     u3311 16EA  
                                   u4111 0C75                                     u3135 1722  
                                   u3231 09EE                                     u4031 0BB9  
                                   u3080 1287                                     u3320 16F2  
                                   u4120 0C91                                     u4040 1455  
                                   u3160 126E                                     u3081 1286  
                                   u3321 16F1                                     u4121 0C90  
                                   u4041 1454                                     u3145 1734  
                                   u3161 126D                                     u3225 09D6  
                                   u3305 15E9                                     u3330 1709  
                                   u4130 0CA0                                     u3090 1369  
                                   u3170 12EC                                     u4050 0D77  
                                   u3250 0A0D                                     u3410 1393  
                                   u3331 1708                                     u4131 0C9F  
                                   u4115 0C72                                     u3091 1368  
                                   u3155 1744                                     u3171 12EB  
                                   u4051 0D76                                     u3251 0A0C  
                                   u3235 09EB                                     u3411 1392  
                                   u4035 0BB6                                     u3260 14E3  
                                   u3340 1600                                     u4140 0CD0  
                                   u3500 0A70                                     u3420 0A1D  
                                   u3180 12F9                                     u4060 0D9E  
                                   u4300 0091                                     u3261 14E2  
                                   u3341 15FF                                     u4141 0CCF  
                                   u4125 0C8D                                     u3501 0A6F  
                                   u3421 0A1C                                     u3181 12F8  
                                   u4061 0D9D                                     u3245 09FF  
                                   u3405 1387                                     u4205 04E4  
                                   u4301 0090                                     u3350 160C  
                                   u4150 0CFB                                     u3510 0A75  
                                   u3430 0A28                                     u4070 0DFF  
                                   u3190 09C0                                     u3270 06DD  
                                   u4230 05BC                                     u4310 00A2  
                                   u3351 160B                                     u4151 0CFA  
                                   u4135 0C9C                                     u3511 0A74  
                                   u3431 0A27                                     u4071 0DFE  
                                   u3191 09BF                                     u4231 05BB  
                                   u4215 0520                                     u4311 00A1  
                                   u3360 1631                                     u4160 0D17  
                                   u3440 0A39                                     u3600 09A4  
                                   u3520 095A                                     u4080 0E92  
                                   u3280 1525                                     u4240 05C7  
                                   u4400 0166                                     u4320 00C4  
                                   u3361 1630                                     u4161 0D16  
                                   u3441 0A38                                     u3601 09A3  
                                   u3521 0959                                     u4081 0E91  
                                   u4241 05C6                                     u4225 055C  
                                   u4401 0165                                     u4321 00C3  
                                   u4170 0D29                                     u4090 0C4E  
                                   u3530 0965                                     u3370 13E2  
                                   u3290 15C5                                     u3610 163E  
                                   u4250 05D2                                     u4410 01ED  
                                   u4330 00CA                                     u4171 0D28  
                                   u4091 0C4D                                     u3531 0964  
                                   u3371 13E1                                     u4075 0DFB  
                                   u3275 06D8                                     u3291 15C4  
                                   u3611 163D                                     u4251 05D1  
                                   u4411 01EC                                     u4331 00C9  
                                   u3460 0A4B                                     u3540 0970  
                                   u3700 1597                                     u3380 1379  
                                   u4260 05DE                                     u4180 0416  
                                   u4500 034C                                     u4420 01F3  
                                   u4340 00FE                                     u3461 0A4A  
                                   u3541 096F                                     u4085 0E8E  
                                   u3285 1520                                     u3701 1596  
                                   u3381 1378                                     u4261 05DD  
                                   u4181 0415                                     u4501 034B  
                                   u4421 01F2                                     u4341 00FD  
                                   u3630 1650                                     u3710 15A1  
                                   u4270 05E5                                     u4190 0492  
                                   u4510 0378                                     u4430 01F9  
                                   u4350 0103                                     u3455 0A3D  
                                   u3631 164F                                     u3711 15A0  
                                   u4271 05E3                                     u4191 0491  
                                   u4431 01F8                                     u4351 0102  
                                   u3480 0A5C                                     u3560 0982  
                                   u3800 0E9C                                     u4280 05E6  
                                   u4520 0384                                     u4440 020A  
                                   u4360 0120                                     u3481 0A5B  
                                   u3561 0981                                     u3801 0E9B  
                                   u3625 1642                                     u4521 0383  
                                   u4441 0209                                     u4361 011F  
                                   u3570 098C                                     u3810 0EAC  
                                   u3650 1661                                     u3730 15B4  
                                   u4290 0696                                     u4530 0398  
                                   u4450 0210                                     u4370 0126  
                                   u3475 0A4C                                     u3571 098B  
                                   u3555 0974                                     u3811 0EAB  
                                   u3651 1660                                     u3731 15B3  
                                   u3715 159D                                     u3395 1380  
                                   u4291 0695                                     u4531 0397  
                                   u4515 0361                                     u4451 020F  
                                   u4371 0125                                     _PEIE 005E  
                                   u3900 0F9C                                     u3820 0EB4  
                                   u3740 12A0                                     u4540 03CE  
                                   u4516 0364                                     u4460 02AB  
                                   u4380 012B                                     u3485 0A58  
                                   u3901 0F9B                                     u3821 0EB3  
                                   u3741 129F                                     u3645 1651  
                                   u3725 15A8                                     u4517 036B  
                                   u4461 02AA                                     u4381 012A  
                                   u3590 099F                                     u3830 0EBA  
                                   u3910 0A88                                     u3750 1410  
                                   u3670 1675                                     u4550 03E0  
                                   u4518 036E                                     u4470 02BF  
                                   u4390 0160                                     u3495 0A64  
                                   u3591 099E                                     u3575 0988  
                                   u4607 0F47                                     u3831 0EB9  
                                   u3911 0A87                                     u3751 140F  
                                   u3671 1674                                     u3655 165D  
                                   u4551 03DF                                     u4519 0375  
                                   u4471 02BE                                     u4391 015F  
                                   u3840 0ED8                                     u3920 0A96  
                                   u3760 1420                                     u3680 1585  
                                   u4480 02EB                                     u3585 0993  
                                   u4617 0FCD                                     u3841 0ED7  
                                   u3921 0A95                                     u3761 141F  
                                   u3665 1669                                     u3681 1584  
                                   u4545 03B7                                     u3850 0EDE  
                                   u3930 0A9C                                     u3770 1425  
                                   u4546 03BA                                     u4490 02F7  
                                   u4707 1293                                     u4627 0FFB  
                                   u3851 0EDD                                     u3931 0A9B  
                                   u3771 1424                                     u4547 03C1  
                                   u4491 02F6                                     u3860 0EF4  
                                   u3940 0AAC                                     u3780 1430  
                                   u4548 03C4                                     _RCEN 048B  
                                   _RCIF 0065                                     u4717 1342  
                                   u4637 08AA                                     u3861 0EF3  
                                   u3941 0AAB                                     u3781 142F  
                                   u4549 03CB                                     u4485 02D4  
                                   u3870 0F18                                     u3950 0AB1  
                                   u3790 13BC                                     u4486 02D7  
                                   u4727 134C                                     u4647 08B9  
                                   u3871 0F17                                     u3951 0AB0  
                                   u3695 1589                                     u3791 13BB  
                                   u4487 02DE                                     u4567 014D  
                                   u3880 0F2A                                     u3960 0ABC  
                                   u4488 02E1                                     u4657 08C7  
                                   u3881 0F29                                     u3961 0ABB  
                                   u4489 02E8                                     u4577 023B  
                                   u3890 0F35                                     u3970 0AF5  
                                   u4667 08DD                                     u3891 0F34  
                                   u3875 0F14                                     u3971 0AF4  
                                   u4587 0253                                     u3980 0B36  
                                   u4677 08EB                                     u4597 0594  
                                   u3981 0B35                                     u3990 0B60  
                                   u4687 08F9                                     u3991 0B5F  
                                   u4697 1404                                     _SPEN 00C7  
                                   _TXIF 0064                                     _R_nW 04A2  
                                   _gear 00A0                                     _main 0041  
                                   _menu 00AC                                     _time 003A  
                                   btemp 007E                                     _puts 13BD  
                                   start 000C                        ___bmul@multiplier 0075  
                         clcd_write@byte 0075                           clcd_write@mode 0072  
                          _i2c_rep_start 125A                                    ??_isr 0070  
                           ?_init_ds1307 0070                                    ?_main 0070  
                           ?_read_ds1307 0070                                    _ACKEN 048C  
                                  _ACKDT 048D                           ??_display_time 0079  
                        __end_of___awdiv 0A7F                                    STR_10 0879  
                                  STR_11 0890                                    STR_12 0896  
                                  STR_20 07A0                                    STR_21 07E1  
                                  STR_13 085D                                    STR_30 0866  
                                  STR_22 07C1                                    STR_14 084A  
                                  STR_31 0722                                    STR_23 07D1  
                                  STR_15 0818                                    STR_40 0825  
                                  STR_24 0727                                    STR_32 0715  
                                  STR_16 07B1                                    STR_41 0724  
                                  STR_25 0739                                    STR_33 0700  
                                  STR_17 0854                                    STR_42 0724  
                                  STR_26 0727                                    STR_34 075C  
                                  STR_18 074B                                    STR_43 0724  
                                  STR_27 080B                                    STR_35 07F0  
                                  STR_19 076D                                    STR_28 0832  
                                  STR_36 077E                          __end_of___awmod 09AE  
                                  STR_37 086D                                    STR_29 078F  
                                  STR_38 083F                                    STR_39 07FE  
                                  ?_puts 0073                          __end_of___lldiv 0A16  
                            i2c_read@ack 0072                          ___awdiv@divisor 0072  
                        __end_of___lwdiv 167A                          __end_of___lwmod 15B9  
                           ?_init_config 0070                                    i1l495 16AC  
                                  i1l497 16BB                          ___awdiv@counter 0045  
                                  _RCREG 001A                                    _SPBRG 0099  
                                  _PORTB 0006                                    _PORTD 0008  
                                  _SSPM3 00A3                                    _TRISB 0086  
                                  _TRISD 0088                                    _SSPEN 00A5  
                                  _TXREG 0019                             ?_init_timer2 0070  
                                  _nDONE 00FA                     __end_of_clear_screen 1299  
                           view_log@addr 005B                                    _login 0E93  
                        _change_password 0C45                             view_log@view 0050  
                                  pclath 000A                     login_menu@reset_flag 004E  
     eeprom_at24c04_str_write@memory_loc 0046                                    puts@s 0073  
                        __end_of_putchar 1270                                    status 0003  
                                  wtemp0 007E                          __end_of_strncmp 1634  
                        __end_of_strncpy 170A  eeprom_at24c04_random_read@received_data 0075  
                       init_ds1307@dummy 0076                          __initialization 000F  
                         ?_i2c_rep_start 0070                             __end_of_main 040D  
                           __end_of_puts 13E3                           login@npassword 0041  
                       __end_of_i2c_read 1373                         __end_of_i2c_stop 124F  
                          ?_download_log 0070                                   ??_main 005F  
                                 ??_puts 0075                           login@spassword 0052  
                                 _ADRESH 001E                                   ?_login 004E  
                                 _ADRESL 009E                         ___awdiv@dividend 0074  
                           i2c_read@data 0073                                   i1l3751 16AA  
                                 i1l3743 167A                                   i1l3753 16B1  
                                 i1l3745 1680                                   i1l3755 16B6  
                                 i1l3747 169B                                   i1l3749 16A5  
                                 i1l3757 16B8                                   u302_20 1680  
                                 u302_21 167F                                   u303_20 169B  
                                 u303_21 169A                                   u304_20 16AA  
                                 u304_21 16A9                                   u305_20 16B1  
                                 u305_21 16B0                                   u306_20 16B6  
                                 u306_21 16B5                             _write_ds1307 1314  
                                 _TMR2IE 0461                                   _TMR2IF 0061  
                                 _TMR2ON 0092              ?_eeprom_at24c04_random_read 0070  
                                 _SSPADD 0093                                   _TRISE1 0449  
                                 _TRISE2 044A                                   _SSPBUF 0013  
                          login_menu@key 0051              __end_of_init_digital_keypad 122E  
              ?_eeprom_at24c04_str_write 0077                         __end_of_get_time 1753  
                                 ___bmul 12E6                  _init_display_controller 08A6  
                                 ___wmul 1373                                ??___awdiv 0076  
                              ??___awmod 0076                                ??___lldiv 0072  
                              ??___lwdiv 0076                                ??___lwmod 0076  
                       __end_of_init_i2c 0700                         __end_of_init_adc 1235  
                       __end_of_read_adc 12AB                           ??_download_log 0045  
                       ___awdiv@quotient 0047                          ___awmod@divisor 0072  
                        ___awmod@counter 0077                            view_log@shift 0034  
                                 main@gr 00D0                                   _strcpy 1398  
                          main@wait_time 00D1                                   login@i 0036  
                                 login@j 0057                  __end_of_change_password 0D69  
                       __end_of_set_time 06CC                                   saved_w 007E  
                       __end_of_view_log 0C45                                ??_putchar 0072  
                              ??_strncmp 0075                                ??_strncpy 0076  
                __end_of__initialization 003D                     __end_of_display_time 17A9  
                        ??_i2c_rep_start 0072                      ___bmul@multiplicand 0072  
                         __pcstackCOMMON 0070                             __pidataBANK0 1224  
                           __pidataBANK1 12FB               ?_eeprom_at24c04_byte_write 0073  
                          __end_of_login 1000                          login@reset_flag 004E  
                      __end_of_i2c_start 1246                        __end_of_i2c_write 125A  
                      _i2c_wait_for_idle 127B                                  ??_login 004F  
                     ?_i2c_wait_for_idle 0070                               __pbssBANK0 0020  
                             __pbssBANK1 00B9                                ?_i2c_read 0070  
                              ?_i2c_stop 0070                ??_init_display_controller 0076  
                             _clcd_print 14B5                      ??_i2c_wait_for_idle 0072  
                             _clcd_putch 12D1                               _clcd_write 1332  
                             __pmaintext 0041                          read_ds1307@addr 0074  
                          _log_car_event 08FD                          read_ds1307@data 0075  
                           _clear_screen 1288                                  ?___bmul 0072  
                                ?___wmul 0072                               __pintentry 0004  
                                _ACKSTAT 048E            eeprom_at24c04_byte_write@data 0073  
                                ?_strcpy 0072                                  _T2CKPS0 0090  
                                _T2CKPS1 0091              __end_of_read_digital_keypad 1434  
                       ?_change_password 004E                __end_of_i2c_wait_for_idle 1288  
                           init_i2c@baud 004D                                  _SSPCON2 0091  
                              ?_get_time 0070                               __stringtab 1000  
                             ??_i2c_read 0072                               ??_i2c_stop 0072  
                              ?_init_i2c 004D                     __end_of_download_log 0E93  
                              ?_init_adc 0070                                ?_read_adc 0072  
                      __end_of_clear_log 145F                           ?_log_car_event 0049  
                              ?_set_time 004E                       change_password@key 0051  
                                ___awdiv 0A16                                  ___awmod 0955  
                              ?_view_log 004E                                  ___lldiv 09AE  
                                ___lwdiv 1634                                  ___lwmod 157F  
                       set_time@new_time 0020                         main@control_flag 00D7  
                                __ptext1 0B2B                                  __ptext2 1398  
                                __ptext3 040D                                  __ptext4 1373  
                                __ptext5 157F                                  __ptext6 1634  
                                __ptext7 140A                                  __ptext8 1299  
                                __ptext9 0A7F          __end_of_init_display_controller 08FD  
                      __end_of_init_clcd 127B                        __end_of_init_uart 1545  
                       ___awmod@dividend 0074                           main@reset_flag 00D6  
                      __end_of_log_event 15F6                               _login_menu 0A7F  
                 display_dashboard@event 0051                   display_dashboard@speed 004E  
                                _putchar 1265                                  main@key 00D8  
                                clrloop0 1236                               ??_get_time 0076  
                                _strncmp 15F6                                  _strncpy 16C2  
                   end_of_initialization 003D                   change_password@new_pwd 00C4  
                            set_time@key 0052                               ??_init_i2c 0051  
                             ??_init_adc 0072                               ??_read_adc 0074  
                 change_password@pwd_pos 002C                              ?_clcd_print 0076  
                            ?_clcd_putch 004C                          ___lldiv@divisor 0045  
                            ?_clcd_write 0072                          ___lldiv@counter 0077  
                             ??_set_time 004F                               ??_view_log 004F  
                           __pstringtext 0700                             _display_time 1753  
                          i2c_write@data 0072                            clcd_print@str 0076  
                        ??_log_car_event 004C              ??_eeprom_at24c04_byte_write 0074  
                         __end_of___bmul 12FB                           __end_of___wmul 1398  
                            view_log@key 005C                           __end_of_strcpy 13BD  
                    start_initialization 000F                              ?_login_menu 004E  
                              _i2c_start 123D                              __end_of_isr 16C2  
                              _i2c_write 124F                 _eeprom_at24c04_str_write 14E4  
                            putchar@data 0072                         change_password@i 0033  
                  __end_of_i2c_rep_start 1265                                 ??___bmul 0073  
                               ??___wmul 0076                               init_fetch0 12BE  
                          ??_init_ds1307 0076                              __pdataBANK0 0063  
                            __pdataBANK1 00A0                            ??_read_ds1307 0074  
                           _download_log 0D69                                 ??_strcpy 0074  
                          ??_init_config 0078                            ??_init_timer2 0072  
                            __pbssCOMMON 0079                                ___latbits 0002  
                          __pcstackBANK0 0045                            __pcstackBANK1 00CD  
                             ?_i2c_start 0070                               ?_i2c_write 0070  
              _eeprom_at24c04_byte_write 13E3                         ___lwdiv@dividend 0047  
                              _clear_log 1434                                 ?___awdiv 0072  
                               ?___awmod 0072                        _display_dashboard 17A9  
                               ?___lldiv 0045                                 ?___lwdiv 0045  
                              _clock_reg 0079                                 ?___lwmod 0072  
                     ?_display_dashboard 004E                                __pstrings 1000  
                    __end_of_init_ds1307 12BE                       set_time@reset_time 004E  
                    read_adc@adc_reg_val 0074                      ??_display_dashboard 004F  
                    __end_of_read_ds1307 148A                         ___lwdiv@quotient 004A  
                               ?_putchar 0070                                _init_clcd 1270  
                    __end_of_init_config 157F                                _init_uart 1513  
                               ?_strncmp 0072                                 ?_strncpy 0072  
                              _log_event 15B9                            ?_write_ds1307 0073  
                    __end_of_init_timer2 08A6                 ?_init_display_controller 0070  
                      interrupt_function 0004                           ___wmul@product 0076  
           ??_eeprom_at24c04_random_read 0074                                clear_ram0 1235  
                            strncpy@from 0072                              strncpy@size 0074  
                           ??_clcd_print 0079                             ??_clcd_putch 0079  
                           ??_clcd_write 0073                               ?_clear_log 0070  
              __end_of_display_dashboard 1800                                main@F1013 00B6  
    eeprom_at24c04_byte_write@memory_loc 0076                            download_log@i 0054  
                            __stringbase 1012                        ___wmul@multiplier 0072  
                              main@event 00CD                                main@speed 00D5  
                            ??_i2c_start 0072                       __end_of_clcd_print 14E4  
                            ??_i2c_write 0072                       __end_of_clcd_putch 12E6  
                     __end_of_clcd_write 1352                               ?_init_clcd 0070  
                             ?_init_uart 004D                           ??_write_ds1307 0074  
                             ?_log_event 0070                      _init_digital_keypad 1228  
                               _i2c_read 1352                                 _i2c_stop 1246  
                      set_time@blink_pos 002A                            set_time@blink 0031  
                          set_time@dummy 0053                 change_password@reset_pwd 004E  
                   ?_init_digital_keypad 0070                              _init_ds1307 12AB  
                            _event_count 002E                       __end_of__stringtab 1012  
                            _read_ds1307 145F                              _init_config 1545  
                           ??_login_menu 004F                              _init_timer2 0899  
             ??_eeprom_at24c04_str_write 0045                          ___lwdiv@divisor 0045  
                        ___lwdiv@counter 0049                                 __ptext10 0E93  
                               __ptext11 08FD                                 __ptext20 1228  
                               __ptext12 15B9                                 __ptext21 1270  
                               __ptext13 1545                                 __ptext30 1753  
                               __ptext22 08A6                                 __ptext14 1513  
                               __ptext31 170A                                 __ptext23 122E  
                               __ptext15 0899                                 __ptext40 15F6  
                               __ptext32 145F                                 __ptext24 0D69  
                               __ptext16 06CC                                 __ptext41 14E4  
                               __ptext33 125A                                 __ptext25 13BD  
                               __ptext17 09AE                                 __ptext50 1332  
                               __ptext42 13E3                                 __ptext34 1352  
                               __ptext26 1265                                 __ptext18 12AB  
                               __ptext51 167A                                 __ptext43 124F  
                               __ptext35 0955                                 __ptext27 148A  
                               __ptext19 1314                                 __ptext44 1246  
                               __ptext36 0A16                                 __ptext28 12E6  
                               __ptext45 123D                                 __ptext37 1434  
                               __ptext29 17A9                                 __ptext46 127B  
                               __ptext38 0C45             eeprom_at24c04_str_write@data 0077  
                               __ptext47 1288                                 __ptext39 16C2  
                               __ptext48 12D1                                 __ptext49 14B5  
                               _get_time 170A                        login@attempts_rem 0064  
                             strcpy@from 0072                                 _init_i2c 06CC  
                               _init_adc 122E                                 _read_adc 1299  
                read_digital_keypad@mode 0073                  read_digital_keypad@once 0063  
                               _menu_pos 0039                               strncmp@len 0073  
                  __end_of_log_car_event 0955                              ??_clear_log 0079  
                      ??_change_password 004F                            ?_clear_screen 0070  
                               _set_time 040D                                 _overflow 0037  
                     __end_of_login_menu 0B2B                                 _view_log 0B2B  
                  ??_init_digital_keypad 0072                                view_log@i 005D  
                               isr@count 0026                             set_time@done 0030  
                           set_time@wait 0032                                 init_ram0 12C2  
                            ??_init_clcd 0078                              ??_init_uart 0051  
                               login@key 0056                              ??_log_event 0047  
                               intlevel1 0000                            init_uart@baud 004D  
     __end_of_eeprom_at24c04_random_read 14B5               _eeprom_at24c04_random_read 148A  
                       ___lwmod@dividend 0074                         ___lldiv@dividend 0049  
                              strncmp@s1 0077                                strncmp@s2 0072  
                              stringcode 100A                           ??_clear_screen 0076  
                              strncpy@cp 0046                                strncpy@to 0045  
      __end_of_eeprom_at24c04_byte_write 140A                     __end_of_write_ds1307 1332  
                    _read_digital_keypad 140A                         ___lldiv@quotient 0073  
                        ___lwmod@divisor 0072                                 strcpy@cp 0075  
                               strcpy@to 0076                          ___lwmod@counter 0077  
                               stringtab 1000                              _return_time 0065  
                   ?_read_digital_keypad 0070                         write_ds1307@addr 0074  
                       write_ds1307@data 0073     eeprom_at24c04_random_read@memory_loc 0074  
                       download_log@addr 004F                         download_log@logs 0046  
                       download_log@next 0052                         download_log@lpos 0050  
