

Microchip MPLAB XC8 Assembler V2.40 build 20220703182018 
                                                                                               Tue Sep 13 09:24:48 2022

Microchip MPLAB XC8 C Compiler v2.40 (Free license) build 20220703182018 Og1 
     1                           	processor	16F877A
     2                           	pagewidth 120
     3                           	opt	flic
     4                           	psect	idataBANK0,global,class=CODE,delta=2,noexec
     5                           	psect	cinit,global,class=CODE,merge=1,delta=2
     6                           	psect	dataBANK0,global,class=BANK0,space=1,delta=1,noexec
     7                           	psect	inittext,global,class=CODE,delta=2
     8                           	psect	cstackCOMMON,global,class=COMMON,space=1,delta=1,noexec
     9                           	psect	cstackBANK0,global,class=BANK0,space=1,delta=1,noexec
    10                           	psect	maintext,global,class=CODE,split=1,delta=2
    11                           	psect	text1,local,class=CODE,merge=1,delta=2
    12                           	psect	text2,local,class=CODE,merge=1,delta=2
    13                           	psect	text3,local,class=CODE,merge=1,delta=2
    14                           	psect	text4,local,class=CODE,merge=1,delta=2
    15                           	psect	text5,local,class=CODE,merge=1,delta=2
    16                           	psect	text6,local,class=CODE,merge=1,delta=2,group=1
    17                           	psect	config,global,abs,ovrld,class=CONFIG,space=4,delta=2,noexec
    18                           	dabs	1,0x7E,2
    19     0000                     
    20                           ; Version 2.20
    21                           ; Generated 12/02/2020 GMT
    22                           ; 
    23                           ; Copyright © 2020, Microchip Technology Inc. and its subsidiaries ("Microchip")
    24                           ; All rights reserved.
    25                           ; 
    26                           ; This software is developed by Microchip Technology Inc. and its subsidiaries ("Microch
      +                          ip").
    27                           ; 
    28                           ; Redistribution and use in source and binary forms, with or without modification, are
    29                           ; permitted provided that the following conditions are met:
    30                           ; 
    31                           ;     1. Redistributions of source code must retain the above copyright notice, this lis
      +                          t of
    32                           ;        conditions and the following disclaimer.
    33                           ; 
    34                           ;     2. Redistributions in binary form must reproduce the above copyright notice, this 
      +                          list
    35                           ;        of conditions and the following disclaimer in the documentation and/or other
    36                           ;        materials provided with the distribution.
    37                           ; 
    38                           ;     3. Microchip's name may not be used to endorse or promote products derived from th
      +                          is
    39                           ;        software without specific prior written permission.
    40                           ; 
    41                           ; THIS SOFTWARE IS PROVIDED BY MICROCHIP "AS IS" AND ANY EXPRESS OR IMPLIED WARRANTIES,
    42                           ; INCLUDING, BUT NOT LIMITED TO, THE IMPLIED WARRANTIES OF MERCHANTABILITY AND FITNESS F
      +                          OR
    43                           ; PURPOSE ARE DISCLAIMED.  IN NO EVENT SHALL MICROCHIP BE LIABLE FOR ANY DIRECT, INDIREC
      +                          T,
    44                           ; INCIDENTAL, SPECIAL, EXEMPLARY, OR CONSEQUENTIAL DAMAGES (INCLUDING BUT NOT LIMITED TO
    45                           ; PROCUREMENT OF SUBSTITUTE GOODS OR SERVICES; LOSS OF USE, DATA OR PROFITS; OR BUSINESS
    46                           ; INTERRUPTION) HOWSOEVER CAUSED AND ON ANY THEORY OF LIABILITY, WHETHER IN CONTRACT, ST
      +                          RICT
    47                           ; LIABILITY, OR TORT (INCLUDING NEGLIGENCE OR OTHERWISE) ARISING IN ANY WAY OUT OF THE U
      +                          SE OF
    48                           ; THIS SOFTWARE, EVEN IF ADVISED OF THE POSSIBILITY OF SUCH DAMAGE.
    49                           ; 
    50                           ; 
    51                           ; Code-generator required, PIC16F877A Definitions
    52                           ; 
    53                           ; SFR Addresses
    54     0000                     	;# 
    55     0001                     	;# 
    56     0002                     	;# 
    57     0003                     	;# 
    58     0004                     	;# 
    59     0005                     	;# 
    60     0006                     	;# 
    61     0007                     	;# 
    62     0008                     	;# 
    63     0009                     	;# 
    64     000A                     	;# 
    65     000B                     	;# 
    66     000C                     	;# 
    67     000D                     	;# 
    68     000E                     	;# 
    69     000E                     	;# 
    70     000F                     	;# 
    71     0010                     	;# 
    72     0011                     	;# 
    73     0012                     	;# 
    74     0013                     	;# 
    75     0014                     	;# 
    76     0015                     	;# 
    77     0015                     	;# 
    78     0016                     	;# 
    79     0017                     	;# 
    80     0018                     	;# 
    81     0019                     	;# 
    82     001A                     	;# 
    83     001B                     	;# 
    84     001B                     	;# 
    85     001C                     	;# 
    86     001D                     	;# 
    87     001E                     	;# 
    88     001F                     	;# 
    89     0081                     	;# 
    90     0085                     	;# 
    91     0086                     	;# 
    92     0087                     	;# 
    93     0088                     	;# 
    94     0089                     	;# 
    95     008C                     	;# 
    96     008D                     	;# 
    97     008E                     	;# 
    98     0091                     	;# 
    99     0092                     	;# 
   100     0093                     	;# 
   101     0094                     	;# 
   102     0098                     	;# 
   103     0099                     	;# 
   104     009C                     	;# 
   105     009D                     	;# 
   106     009E                     	;# 
   107     009F                     	;# 
   108     010C                     	;# 
   109     010D                     	;# 
   110     010E                     	;# 
   111     010F                     	;# 
   112     018C                     	;# 
   113     018D                     	;# 
   114     0000                     	;# 
   115     0001                     	;# 
   116     0002                     	;# 
   117     0003                     	;# 
   118     0004                     	;# 
   119     0005                     	;# 
   120     0006                     	;# 
   121     0007                     	;# 
   122     0008                     	;# 
   123     0009                     	;# 
   124     000A                     	;# 
   125     000B                     	;# 
   126     000C                     	;# 
   127     000D                     	;# 
   128     000E                     	;# 
   129     000E                     	;# 
   130     000F                     	;# 
   131     0010                     	;# 
   132     0011                     	;# 
   133     0012                     	;# 
   134     0013                     	;# 
   135     0014                     	;# 
   136     0015                     	;# 
   137     0015                     	;# 
   138     0016                     	;# 
   139     0017                     	;# 
   140     0018                     	;# 
   141     0019                     	;# 
   142     001A                     	;# 
   143     001B                     	;# 
   144     001B                     	;# 
   145     001C                     	;# 
   146     001D                     	;# 
   147     001E                     	;# 
   148     001F                     	;# 
   149     0081                     	;# 
   150     0085                     	;# 
   151     0086                     	;# 
   152     0087                     	;# 
   153     0088                     	;# 
   154     0089                     	;# 
   155     008C                     	;# 
   156     008D                     	;# 
   157     008E                     	;# 
   158     0091                     	;# 
   159     0092                     	;# 
   160     0093                     	;# 
   161     0094                     	;# 
   162     0098                     	;# 
   163     0099                     	;# 
   164     009C                     	;# 
   165     009D                     	;# 
   166     009E                     	;# 
   167     009F                     	;# 
   168     010C                     	;# 
   169     010D                     	;# 
   170     010E                     	;# 
   171     010F                     	;# 
   172     018C                     	;# 
   173     018D                     	;# 
   174     0000                     	;# 
   175     0001                     	;# 
   176     0002                     	;# 
   177     0003                     	;# 
   178     0004                     	;# 
   179     0005                     	;# 
   180     0006                     	;# 
   181     0007                     	;# 
   182     0008                     	;# 
   183     0009                     	;# 
   184     000A                     	;# 
   185     000B                     	;# 
   186     000C                     	;# 
   187     000D                     	;# 
   188     000E                     	;# 
   189     000E                     	;# 
   190     000F                     	;# 
   191     0010                     	;# 
   192     0011                     	;# 
   193     0012                     	;# 
   194     0013                     	;# 
   195     0014                     	;# 
   196     0015                     	;# 
   197     0015                     	;# 
   198     0016                     	;# 
   199     0017                     	;# 
   200     0018                     	;# 
   201     0019                     	;# 
   202     001A                     	;# 
   203     001B                     	;# 
   204     001B                     	;# 
   205     001C                     	;# 
   206     001D                     	;# 
   207     001E                     	;# 
   208     001F                     	;# 
   209     0081                     	;# 
   210     0085                     	;# 
   211     0086                     	;# 
   212     0087                     	;# 
   213     0088                     	;# 
   214     0089                     	;# 
   215     008C                     	;# 
   216     008D                     	;# 
   217     008E                     	;# 
   218     0091                     	;# 
   219     0092                     	;# 
   220     0093                     	;# 
   221     0094                     	;# 
   222     0098                     	;# 
   223     0099                     	;# 
   224     009C                     	;# 
   225     009D                     	;# 
   226     009E                     	;# 
   227     009F                     	;# 
   228     010C                     	;# 
   229     010D                     	;# 
   230     010E                     	;# 
   231     010F                     	;# 
   232     018C                     	;# 
   233     018D                     	;# 
   234     0000                     	;# 
   235     0001                     	;# 
   236     0002                     	;# 
   237     0003                     	;# 
   238     0004                     	;# 
   239     0005                     	;# 
   240     0006                     	;# 
   241     0007                     	;# 
   242     0008                     	;# 
   243     0009                     	;# 
   244     000A                     	;# 
   245     000B                     	;# 
   246     000C                     	;# 
   247     000D                     	;# 
   248     000E                     	;# 
   249     000E                     	;# 
   250     000F                     	;# 
   251     0010                     	;# 
   252     0011                     	;# 
   253     0012                     	;# 
   254     0013                     	;# 
   255     0014                     	;# 
   256     0015                     	;# 
   257     0015                     	;# 
   258     0016                     	;# 
   259     0017                     	;# 
   260     0018                     	;# 
   261     0019                     	;# 
   262     001A                     	;# 
   263     001B                     	;# 
   264     001B                     	;# 
   265     001C                     	;# 
   266     001D                     	;# 
   267     001E                     	;# 
   268     001F                     	;# 
   269     0081                     	;# 
   270     0085                     	;# 
   271     0086                     	;# 
   272     0087                     	;# 
   273     0088                     	;# 
   274     0089                     	;# 
   275     008C                     	;# 
   276     008D                     	;# 
   277     008E                     	;# 
   278     0091                     	;# 
   279     0092                     	;# 
   280     0093                     	;# 
   281     0094                     	;# 
   282     0098                     	;# 
   283     0099                     	;# 
   284     009C                     	;# 
   285     009D                     	;# 
   286     009E                     	;# 
   287     009F                     	;# 
   288     010C                     	;# 
   289     010D                     	;# 
   290     010E                     	;# 
   291     010F                     	;# 
   292     018C                     	;# 
   293     018D                     	;# 
   294                           
   295                           	psect	idataBANK0
   296     05E5                     __pidataBANK0:
   297                           
   298                           ;initializer for main@F859
   299     05E5  343F               	retlw	63
   300     05E6  3406               	retlw	6
   301     05E7  345B               	retlw	91
   302     05E8  344F               	retlw	79
   303     05E9  3466               	retlw	102
   304     05EA  346D               	retlw	109
   305     05EB  347D               	retlw	125
   306     05EC  3407               	retlw	7
   307     05ED  347F               	retlw	127
   308     05EE  346F               	retlw	111
   309     05EF  3400               	retlw	0
   310     05F0  3400               	retlw	0
   311                           
   312                           ;initializer for read_digital_keypad@once
   313     05F1  3401               	retlw	1
   314     0006                     _PORTB	set	6
   315     0008                     _PORTD	set	8
   316     0005                     _PORTA	set	5
   317     0086                     _TRISB	set	134
   318     0085                     _TRISA	set	133
   319     0088                     _TRISD	set	136
   320                           
   321                           	psect	cinit
   322     07EE                     start_initialization:	
   323                           ; #config settings
   324                           
   325     07EE                     __initialization:
   326                           
   327                           ; Initialize objects allocated to BANK0
   328     07EE  1383               	bcf	3,7	;select IRP bank0
   329     07EF  3048               	movlw	low (__pdataBANK0+13)
   330     07F0  00FD               	movwf	btemp+-1
   331     07F1  3005               	movlw	high __pidataBANK0
   332     07F2  00FE               	movwf	btemp
   333     07F3  30E5               	movlw	low __pidataBANK0
   334     07F4  00FF               	movwf	btemp+1
   335     07F5  303B               	movlw	low __pdataBANK0
   336     07F6  0084               	movwf	4
   337     07F7  120A  118A  25F6  120A  118A  	fcall	init_ram0
   338     07FC                     end_of_initialization:	
   339                           ;End of C runtime variable initialization code
   340                           
   341     07FC                     __end_of__initialization:
   342     07FC  0183               	clrf	3
   343     07FD  120A  118A  2EBF   	ljmp	_main	;jump to C main() function
   344                           
   345                           	psect	dataBANK0
   346     003B                     __pdataBANK0:
   347     003B                     main@F859:
   348     003B                     	ds	12
   349     0047                     read_digital_keypad@once:
   350     0047                     	ds	1
   351                           
   352                           	psect	inittext
   353     05F2                     init_fetch0:	
   354                           ;	Called with low address in FSR and high address in W
   355                           
   356     05F2  087E               	movf	btemp,w
   357     05F3  008A               	movwf	10
   358     05F4  087F               	movf	btemp+1,w
   359     05F5  0082               	movwf	2
   360     05F6                     init_ram0:	
   361                           ;Called with:
   362                           ;	high address of idata address in btemp 
   363                           ;	low address of idata address in btemp+1 
   364                           ;	low address of data in FSR
   365                           ;	high address + 1 of data in btemp-1
   366                           
   367     05F6  120A  118A  25F2  120A  118A  	fcall	init_fetch0
   368     05FB  0080               	movwf	0
   369     05FC  0A84               	incf	4,f
   370     05FD  0804               	movf	4,w
   371     05FE  067D               	xorwf	btemp+-1,w
   372     05FF  1903               	btfsc	3,2
   373     0600  3400               	retlw	0
   374     0601  0AFF               	incf	btemp+1,f
   375     0602  1903               	btfsc	3,2
   376     0603  0AFE               	incf	btemp,f
   377     0604  2DF6               	goto	init_ram0
   378                           
   379                           	psect	cstackCOMMON
   380     0070                     __pcstackCOMMON:
   381     0070                     ?_init_digital_keypad:
   382     0070                     ??_init_digital_keypad:	
   383                           ; 1 bytes @ 0x0
   384                           
   385     0070                     ?_read_digital_keypad:	
   386                           ; 1 bytes @ 0x0
   387                           
   388     0070                     ??_read_digital_keypad:	
   389                           ; 1 bytes @ 0x0
   390                           
   391     0070                     ?_init_ssd:	
   392                           ; 1 bytes @ 0x0
   393                           
   394     0070                     ??_init_ssd:	
   395                           ; 1 bytes @ 0x0
   396                           
   397     0070                     ?_display:	
   398                           ; 1 bytes @ 0x0
   399                           
   400     0070                     ??_display:	
   401                           ; 1 bytes @ 0x0
   402                           
   403     0070                     ?_init_config:	
   404                           ; 1 bytes @ 0x0
   405                           
   406     0070                     ??_init_config:	
   407                           ; 1 bytes @ 0x0
   408                           
   409     0070                     ?_main:	
   410                           ; 1 bytes @ 0x0
   411                           
   412     0070                     ?___lwmod:	
   413                           ; 1 bytes @ 0x0
   414                           
   415     0070                     ___lwmod@divisor:	
   416                           ; 2 bytes @ 0x0
   417                           
   418                           
   419                           ; 2 bytes @ 0x0
   420     0070                     	ds	1
   421     0071                     read_digital_keypad@mode:
   422                           
   423                           ; 1 bytes @ 0x1
   424     0071                     	ds	1
   425     0072                     ___lwmod@dividend:
   426                           
   427                           ; 2 bytes @ 0x2
   428     0072                     	ds	2
   429     0074                     ??___lwmod:
   430     0074                     display@wait:	
   431                           ; 1 bytes @ 0x4
   432                           
   433                           
   434                           ; 4 bytes @ 0x4
   435     0074                     	ds	1
   436     0075                     ___lwmod@counter:
   437                           
   438                           ; 1 bytes @ 0x5
   439     0075                     	ds	3
   440     0078                     display@data:
   441                           
   442                           ; 1 bytes @ 0x8
   443     0078                     	ds	1
   444     0079                     display@digit:
   445                           
   446                           ; 1 bytes @ 0x9
   447     0079                     	ds	1
   448     007A                     ??_main:
   449                           
   450                           ; 1 bytes @ 0xA
   451     007A                     	ds	4
   452                           
   453                           	psect	cstackBANK0
   454     0020                     __pcstackBANK0:
   455     0020                     main@digits:
   456                           
   457                           ; 12 bytes @ 0x0
   458     0020                     	ds	12
   459     002C                     main@ssd:
   460                           
   461                           ; 4 bytes @ 0xC
   462     002C                     	ds	4
   463     0030                     main@s_flag:
   464                           
   465                           ; 2 bytes @ 0x10
   466     0030                     	ds	2
   467     0032                     main@delay:
   468                           
   469                           ; 2 bytes @ 0x12
   470     0032                     	ds	2
   471     0034                     main@stop_flag:
   472                           
   473                           ; 2 bytes @ 0x14
   474     0034                     	ds	2
   475     0036                     main@key:
   476                           
   477                           ; 1 bytes @ 0x16
   478     0036                     	ds	1
   479     0037                     main@flag:
   480                           
   481                           ; 2 bytes @ 0x17
   482     0037                     	ds	2
   483     0039                     main@count:
   484                           
   485                           ; 2 bytes @ 0x19
   486     0039                     	ds	2
   487                           
   488                           	psect	maintext
   489     06BF                     __pmaintext:	
   490 ;;
   491 ;;Main: autosize = 0, tempsize = 4, incstack = 0, save=0
   492 ;;
   493 ;; *************** function _main *****************
   494 ;; Defined at:
   495 ;;		line 20 in file "main.c"
   496 ;; Parameters:    Size  Location     Type
   497 ;;		None
   498 ;; Auto vars:     Size  Location     Type
   499 ;;  digits         12    0[BANK0 ] unsigned char [12]
   500 ;;  ssd             4   12[BANK0 ] unsigned char [4]
   501 ;;  count           2   25[BANK0 ] unsigned int 
   502 ;;  flag            2   23[BANK0 ] unsigned int 
   503 ;;  stop_flag       2   20[BANK0 ] unsigned int 
   504 ;;  delay           2   18[BANK0 ] unsigned int 
   505 ;;  s_flag          2   16[BANK0 ] unsigned int 
   506 ;;  key             1   22[BANK0 ] unsigned char 
   507 ;; Return value:  Size  Location     Type
   508 ;;                  1    wreg      void 
   509 ;; Registers used:
   510 ;;		wreg, fsr0l, fsr0h, status,2, status,0, pclath, cstack
   511 ;; Tracked objects:
   512 ;;		On entry : B00/0
   513 ;;		On exit  : 0/0
   514 ;;		Unchanged: 0/0
   515 ;; Data sizes:     COMMON   BANK0   BANK1   BANK3   BANK2
   516 ;;      Params:         0       0       0       0       0
   517 ;;      Locals:         0      27       0       0       0
   518 ;;      Temps:          4       0       0       0       0
   519 ;;      Totals:         4      27       0       0       0
   520 ;;Total ram usage:       31 bytes
   521 ;; Hardware stack levels required when called: 2
   522 ;; This function calls:
   523 ;;		___lwmod
   524 ;;		_display
   525 ;;		_init_config
   526 ;;		_read_digital_keypad
   527 ;; This function is called by:
   528 ;;		Startup code after reset
   529 ;; This function uses a non-reentrant model
   530 ;;
   531                           
   532     06BF                     _main:	
   533                           ;psect for function _main
   534                           
   535     06BF                     l880:	
   536                           ;incstack = 0
   537                           ; Regs used in _main: [wreg-fsr0h+status,2+status,0+pclath+cstack]
   538                           
   539                           
   540                           ;main.c: 22:         };main.c: 23:         if(key == 0x3D){
   541     06BF  3020               	movlw	main@digits& (0+255)
   542     06C0  0084               	movwf	4
   543     06C1  303B               	movlw	low main@F859
   544     06C2  00FA               	movwf	??_main
   545     06C3  0804               	movf	4,w
   546     06C4  00FB               	movwf	??_main+1
   547     06C5  300C               	movlw	12
   548     06C6  00FC               	movwf	??_main+2
   549     06C7                     u440:
   550     06C7  087A               	movf	??_main,w
   551     06C8  0084               	movwf	4
   552     06C9  1383               	bcf	3,7	;select IRP bank0
   553     06CA  0800               	movf	0,w
   554     06CB  00FD               	movwf	??_main+3
   555     06CC  0AFA               	incf	??_main,f
   556     06CD  087B               	movf	??_main+1,w
   557     06CE  0084               	movwf	4
   558     06CF  087D               	movf	??_main+3,w
   559     06D0  0080               	movwf	0
   560     06D1  0AFB               	incf	??_main+1,f
   561     06D2  0BFC               	decfsz	??_main+2,f
   562     06D3  2EC7               	goto	u440
   563     06D4                     l882:
   564                           
   565                           ;main.c: 24:             flag = 2;
   566     06D4  3032               	movlw	50
   567     06D5  1283               	bcf	3,5	;RP0=0, select bank0
   568     06D6  1303               	bcf	3,6	;RP1=0, select bank0
   569     06D7  00B2               	movwf	main@delay
   570     06D8  3000               	movlw	0
   571     06D9  00B3               	movwf	main@delay+1
   572     06DA                     l884:
   573     06DA  01B9               	clrf	main@count
   574     06DB  01BA               	clrf	main@count+1
   575     06DC                     l886:
   576     06DC  01B7               	clrf	main@flag
   577     06DD  01B8               	clrf	main@flag+1
   578     06DE                     l888:
   579     06DE  01B0               	clrf	main@s_flag
   580     06DF  01B1               	clrf	main@s_flag+1
   581     06E0                     l890:
   582     06E0  01B4               	clrf	main@stop_flag
   583     06E1  01B5               	clrf	main@stop_flag+1
   584     06E2                     l892:
   585                           
   586                           ;main.c: 25:         };main.c: 26:         if(key == 0x3B){
   587     06E2  120A  118A  25CE  120A  118A  	fcall	_init_config
   588     06E7                     l894:
   589                           
   590                           ;main.c: 30:             }
   591     06E7  3001               	movlw	1
   592     06E8  120A  118A  2605  120A  118A  	fcall	_read_digital_keypad
   593     06ED  1283               	bcf	3,5	;RP0=0, select bank0
   594     06EE  1303               	bcf	3,6	;RP1=0, select bank0
   595     06EF  00B6               	movwf	main@key
   596     06F0                     l896:
   597                           
   598                           ;main.c: 33:             }
   599     06F0  303E               	movlw	62
   600     06F1  0636               	xorwf	main@key,w
   601     06F2  1D03               	btfss	3,2
   602     06F3  2EF5               	goto	u451
   603     06F4  2EF6               	goto	u450
   604     06F5                     u451:
   605     06F5  2EFA               	goto	l900
   606     06F6                     u450:
   607     06F6                     l898:
   608                           
   609                           ;main.c: 34:         }
   610     06F6  3001               	movlw	1
   611     06F7  00B7               	movwf	main@flag
   612     06F8  3000               	movlw	0
   613     06F9  00B8               	movwf	main@flag+1
   614     06FA                     l900:
   615                           
   616                           ;main.c: 36:         if(stop_flag == 0){
   617     06FA  303D               	movlw	61
   618     06FB  0636               	xorwf	main@key,w
   619     06FC  1D03               	btfss	3,2
   620     06FD  2EFF               	goto	u461
   621     06FE  2F00               	goto	u460
   622     06FF                     u461:
   623     06FF  2F04               	goto	l904
   624     0700                     u460:
   625     0700                     l902:
   626                           
   627                           ;main.c: 37: 
   628     0700  3002               	movlw	2
   629     0701  00B7               	movwf	main@flag
   630     0702  3000               	movlw	0
   631     0703  00B8               	movwf	main@flag+1
   632     0704                     l904:
   633                           
   634                           ;main.c: 39: 
   635     0704  303B               	movlw	59
   636     0705  0636               	xorwf	main@key,w
   637     0706  1D03               	btfss	3,2
   638     0707  2F09               	goto	u471
   639     0708  2F0A               	goto	u470
   640     0709                     u471:
   641     0709  2F25               	goto	l912
   642     070A                     u470:
   643     070A                     l906:
   644                           
   645                           ;main.c: 40:                 if(delay-- == 0){
   646     070A  0830               	movf	main@s_flag,w
   647     070B  0431               	iorwf	main@s_flag+1,w
   648     070C  1903               	btfsc	3,2
   649     070D  2F0F               	goto	u481
   650     070E  2F11               	goto	u480
   651     070F                     u481:
   652     070F  3001               	movlw	1
   653     0710  2F12               	goto	u490
   654     0711                     u480:
   655     0711  3000               	movlw	0
   656     0712                     u490:
   657     0712  00FA               	movwf	??_main
   658     0713  01FB               	clrf	??_main+1
   659     0714  087A               	movf	??_main,w
   660     0715  00B0               	movwf	main@s_flag
   661     0716  087B               	movf	??_main+1,w
   662     0717  00B1               	movwf	main@s_flag+1
   663                           
   664                           ;main.c: 41:                     delay = 50;
   665     0718  0330               	decf	main@s_flag,w
   666     0719  0431               	iorwf	main@s_flag+1,w
   667     071A  1D03               	btfss	3,2
   668     071B  2F1D               	goto	u501
   669     071C  2F1E               	goto	u500
   670     071D                     u501:
   671     071D  2F23               	goto	l910
   672     071E                     u500:
   673     071E                     l908:
   674                           
   675                           ;main.c: 42: 
   676     071E  3001               	movlw	1
   677     071F  00B4               	movwf	main@stop_flag
   678     0720  3000               	movlw	0
   679     0721  00B5               	movwf	main@stop_flag+1
   680                           
   681                           ;main.c: 43:                     if(++count == 13)
   682     0722  2F25               	goto	l912
   683     0723                     l910:
   684                           
   685                           ;main.c: 45:                 }
   686     0723  01B4               	clrf	main@stop_flag
   687     0724  01B5               	clrf	main@stop_flag+1
   688     0725                     l912:
   689                           
   690                           ;main.c: 49:                 if(delay-- == 0){
   691     0725  0834               	movf	main@stop_flag,w
   692     0726  0435               	iorwf	main@stop_flag+1,w
   693     0727  1D03               	btfss	3,2
   694     0728  2F2A               	goto	u511
   695     0729  2F2B               	goto	u510
   696     072A                     u511:
   697     072A  2F84               	goto	l938
   698     072B                     u510:
   699     072B                     l914:
   700                           
   701                           ;main.c: 51: 
   702     072B  0837               	movf	main@flag,w
   703     072C  0438               	iorwf	main@flag+1,w
   704     072D  1903               	btfsc	3,2
   705     072E  2F30               	goto	u521
   706     072F  2F31               	goto	u520
   707     0730                     u521:
   708     0730  2F37               	goto	l918
   709     0731                     u520:
   710     0731                     l916:
   711     0731  0337               	decf	main@flag,w
   712     0732  0438               	iorwf	main@flag+1,w
   713     0733  1D03               	btfss	3,2
   714     0734  2F36               	goto	u531
   715     0735  2F37               	goto	u530
   716     0736                     u531:
   717     0736  2F58               	goto	l926
   718     0737                     u530:
   719     0737                     l918:
   720                           
   721                           ;main.c: 53:                         count=12;
   722     0737  3001               	movlw	1
   723     0738  02B2               	subwf	main@delay,f
   724     0739  3000               	movlw	0
   725     073A  1C03               	skipc
   726     073B  03B3               	decf	main@delay+1,f
   727     073C  02B3               	subwf	main@delay+1,f
   728     073D  0A32               	incf	main@delay,w
   729     073E  1D03               	skipz
   730     073F  2F44               	goto	u541
   731     0740  0A33               	incf	main@delay+1,w
   732     0741  1D03               	btfss	3,2
   733     0742  2F44               	goto	u541
   734     0743  2F45               	goto	u540
   735     0744                     u541:
   736     0744  2F58               	goto	l926
   737     0745                     u540:
   738     0745                     l920:
   739                           
   740                           ;main.c: 54:                 }
   741     0745  3032               	movlw	50
   742     0746  00B2               	movwf	main@delay
   743     0747  3000               	movlw	0
   744     0748  00B3               	movwf	main@delay+1
   745     0749                     l922:
   746                           
   747                           ;main.c: 56:         }
   748     0749  3001               	movlw	1
   749     074A  07B9               	addwf	main@count,f
   750     074B  1803               	skipnc
   751     074C  0ABA               	incf	main@count+1,f
   752     074D  3000               	movlw	0
   753     074E  07BA               	addwf	main@count+1,f
   754     074F  300D               	movlw	13
   755     0750  0639               	xorwf	main@count,w
   756     0751  043A               	iorwf	main@count+1,w
   757     0752  1D03               	btfss	3,2
   758     0753  2F55               	goto	u551
   759     0754  2F56               	goto	u550
   760     0755                     u551:
   761     0755  2F58               	goto	l926
   762     0756                     u550:
   763     0756                     l924:
   764                           
   765                           ;main.c: 57: 
   766     0756  01B9               	clrf	main@count
   767     0757  01BA               	clrf	main@count+1
   768     0758                     l926:
   769                           
   770                           ;main.c: 61: 
   771     0758  3002               	movlw	2
   772     0759  0637               	xorwf	main@flag,w
   773     075A  0438               	iorwf	main@flag+1,w
   774     075B  1D03               	btfss	3,2
   775     075C  2F5E               	goto	u561
   776     075D  2F5F               	goto	u560
   777     075E                     u561:
   778     075E  2F84               	goto	l938
   779     075F                     u560:
   780     075F                     l928:
   781                           
   782                           ;main.c: 62: 
   783     075F  3001               	movlw	1
   784     0760  02B2               	subwf	main@delay,f
   785     0761  3000               	movlw	0
   786     0762  1C03               	skipc
   787     0763  03B3               	decf	main@delay+1,f
   788     0764  02B3               	subwf	main@delay+1,f
   789     0765  0A32               	incf	main@delay,w
   790     0766  1D03               	skipz
   791     0767  2F6C               	goto	u571
   792     0768  0A33               	incf	main@delay+1,w
   793     0769  1D03               	btfss	3,2
   794     076A  2F6C               	goto	u571
   795     076B  2F6D               	goto	u570
   796     076C                     u571:
   797     076C  2F84               	goto	l938
   798     076D                     u570:
   799     076D                     l930:
   800                           
   801                           ;main.c: 63:         ssd[0] = digits[count % 12];
   802     076D  3032               	movlw	50
   803     076E  00B2               	movwf	main@delay
   804     076F  3000               	movlw	0
   805     0770  00B3               	movwf	main@delay+1
   806     0771                     l932:
   807                           
   808                           ;main.c: 65:         ssd[2] = digits[((count + 2) % 12)];
   809     0771  3001               	movlw	1
   810     0772  02B9               	subwf	main@count,f
   811     0773  3000               	movlw	0
   812     0774  1C03               	skipc
   813     0775  03BA               	decf	main@count+1,f
   814     0776  02BA               	subwf	main@count+1,f
   815     0777  0A39               	incf	main@count,w
   816     0778  1D03               	skipz
   817     0779  2F7E               	goto	u581
   818     077A  0A3A               	incf	main@count+1,w
   819     077B  1D03               	btfss	3,2
   820     077C  2F7E               	goto	u581
   821     077D  2F7F               	goto	u580
   822     077E                     u581:
   823     077E  2F84               	goto	l43
   824     077F                     u580:
   825     077F                     l934:
   826                           
   827                           ;main.c: 66:         ssd[3] = digits[((count + 3) % 12)];
   828     077F  300C               	movlw	12
   829     0780  00B9               	movwf	main@count
   830     0781  3000               	movlw	0
   831     0782  00BA               	movwf	main@count+1
   832     0783  2F84               	goto	l938
   833     0784                     l43:	
   834                           ;main.c: 69:     }
   835                           
   836     0784                     l938:
   837     0784  300C               	movlw	12
   838     0785  00F0               	movwf	___lwmod@divisor
   839     0786  3000               	movlw	0
   840     0787  00F1               	movwf	___lwmod@divisor+1
   841     0788  083A               	movf	main@count+1,w
   842     0789  00F3               	movwf	___lwmod@dividend+1
   843     078A  0839               	movf	main@count,w
   844     078B  00F2               	movwf	___lwmod@dividend
   845     078C  120A  118A  262F  120A  118A  	fcall	___lwmod
   846     0791  0870               	movf	?___lwmod,w
   847     0792  3E20               	addlw	(low (main@digits| 0))& (0+255)
   848     0793  0084               	movwf	4
   849     0794  1383               	bcf	3,7	;select IRP bank0
   850     0795  0800               	movf	0,w
   851     0796  1283               	bcf	3,5	;RP0=0, select bank0
   852     0797  1303               	bcf	3,6	;RP1=0, select bank0
   853     0798  00AC               	movwf	main@ssd
   854     0799  300C               	movlw	12
   855     079A  00F0               	movwf	___lwmod@divisor
   856     079B  3000               	movlw	0
   857     079C  00F1               	movwf	___lwmod@divisor+1
   858     079D  0839               	movf	main@count,w
   859     079E  3E01               	addlw	1
   860     079F  00F2               	movwf	___lwmod@dividend
   861     07A0  083A               	movf	main@count+1,w
   862     07A1  1803               	skipnc
   863     07A2  3E01               	addlw	1
   864     07A3  3E00               	addlw	0
   865     07A4  00F3               	movwf	___lwmod@dividend+1
   866     07A5  120A  118A  262F  120A  118A  	fcall	___lwmod
   867     07AA  0870               	movf	?___lwmod,w
   868     07AB  3E20               	addlw	(low (main@digits| 0))& (0+255)
   869     07AC  0084               	movwf	4
   870     07AD  1383               	bcf	3,7	;select IRP bank0
   871     07AE  0800               	movf	0,w
   872     07AF  1283               	bcf	3,5	;RP0=0, select bank0
   873     07B0  1303               	bcf	3,6	;RP1=0, select bank0
   874     07B1  00AD               	movwf	main@ssd+1
   875     07B2  300C               	movlw	12
   876     07B3  00F0               	movwf	___lwmod@divisor
   877     07B4  3000               	movlw	0
   878     07B5  00F1               	movwf	___lwmod@divisor+1
   879     07B6  0839               	movf	main@count,w
   880     07B7  3E02               	addlw	2
   881     07B8  00F2               	movwf	___lwmod@dividend
   882     07B9  083A               	movf	main@count+1,w
   883     07BA  1803               	skipnc
   884     07BB  3E01               	addlw	1
   885     07BC  3E00               	addlw	0
   886     07BD  00F3               	movwf	___lwmod@dividend+1
   887     07BE  120A  118A  262F  120A  118A  	fcall	___lwmod
   888     07C3  0870               	movf	?___lwmod,w
   889     07C4  3E20               	addlw	(low (main@digits| 0))& (0+255)
   890     07C5  0084               	movwf	4
   891     07C6  1383               	bcf	3,7	;select IRP bank0
   892     07C7  0800               	movf	0,w
   893     07C8  1283               	bcf	3,5	;RP0=0, select bank0
   894     07C9  1303               	bcf	3,6	;RP1=0, select bank0
   895     07CA  00AE               	movwf	main@ssd+2
   896     07CB  300C               	movlw	12
   897     07CC  00F0               	movwf	___lwmod@divisor
   898     07CD  3000               	movlw	0
   899     07CE  00F1               	movwf	___lwmod@divisor+1
   900     07CF  0839               	movf	main@count,w
   901     07D0  3E03               	addlw	3
   902     07D1  00F2               	movwf	___lwmod@dividend
   903     07D2  083A               	movf	main@count+1,w
   904     07D3  1803               	skipnc
   905     07D4  3E01               	addlw	1
   906     07D5  3E00               	addlw	0
   907     07D6  00F3               	movwf	___lwmod@dividend+1
   908     07D7  120A  118A  262F  120A  118A  	fcall	___lwmod
   909     07DC  0870               	movf	?___lwmod,w
   910     07DD  3E20               	addlw	(low (main@digits| 0))& (0+255)
   911     07DE  0084               	movwf	4
   912     07DF  1383               	bcf	3,7	;select IRP bank0
   913     07E0  0800               	movf	0,w
   914     07E1  1283               	bcf	3,5	;RP0=0, select bank0
   915     07E2  1303               	bcf	3,6	;RP1=0, select bank0
   916     07E3  00AF               	movwf	main@ssd+3
   917     07E4  302C               	movlw	(low (main@ssd| 0))& (0+255)
   918     07E5  120A  118A  2669  120A  118A  	fcall	_display
   919     07EA  2EE7               	goto	l894
   920     07EB  120A  118A  2800   	ljmp	start
   921     07EE                     __end_of_main:
   922                           
   923                           	psect	text1
   924     0605                     __ptext1:	
   925 ;; *************** function _read_digital_keypad *****************
   926 ;; Defined at:
   927 ;;		line 16 in file "digital_keypad.c"
   928 ;; Parameters:    Size  Location     Type
   929 ;;  mode            1    wreg     unsigned char 
   930 ;; Auto vars:     Size  Location     Type
   931 ;;  mode            1    1[COMMON] unsigned char 
   932 ;; Return value:  Size  Location     Type
   933 ;;                  1    wreg      unsigned char 
   934 ;; Registers used:
   935 ;;		wreg, status,2, status,0
   936 ;; Tracked objects:
   937 ;;		On entry : 0/0
   938 ;;		On exit  : 0/0
   939 ;;		Unchanged: 0/0
   940 ;; Data sizes:     COMMON   BANK0   BANK1   BANK3   BANK2
   941 ;;      Params:         0       0       0       0       0
   942 ;;      Locals:         1       0       0       0       0
   943 ;;      Temps:          1       0       0       0       0
   944 ;;      Totals:         2       0       0       0       0
   945 ;;Total ram usage:        2 bytes
   946 ;; Hardware stack levels used: 1
   947 ;; This function calls:
   948 ;;		Nothing
   949 ;; This function is called by:
   950 ;;		_main
   951 ;; This function uses a non-reentrant model
   952 ;;
   953                           
   954     0605                     _read_digital_keypad:	
   955                           ;psect for function _read_digital_keypad
   956                           
   957                           
   958                           ;incstack = 0
   959                           ; Regs used in _read_digital_keypad: [wreg+status,2+status,0]
   960                           ;read_digital_keypad@mode stored from wreg
   961     0605  00F1               	movwf	read_digital_keypad@mode
   962     0606                     l830:
   963                           
   964                           ;digital_keypad.c: 16: unsigned char read_digital_keypad(unsigned char mode);digital_key
      +                          pad.c: 17: {;digital_keypad.c: 18:     static unsigned char once = 1;;digital_keypad.c: 
      +                          20:     if (mode == 0)
   965     0606  0871               	movf	read_digital_keypad@mode,w
   966     0607  1D03               	btfss	3,2
   967     0608  2E0A               	goto	u341
   968     0609  2E0B               	goto	u340
   969     060A                     u341:
   970     060A  2E10               	goto	l838
   971     060B                     u340:
   972     060B                     l832:
   973                           
   974                           ;digital_keypad.c: 21:     {;digital_keypad.c: 22:         return PORTB & 0x3F;
   975     060B  1283               	bcf	3,5	;RP0=0, select bank0
   976     060C  1303               	bcf	3,6	;RP1=0, select bank0
   977     060D  0806               	movf	6,w	;volatile
   978     060E  393F               	andlw	63
   979     060F  2E2E               	goto	l68
   980     0610                     l838:
   981                           
   982                           ;digital_keypad.c: 25:     {;digital_keypad.c: 26:         if (((PORTB & 0x3F) != 0x3F) 
      +                          && once)
   983     0610  303F               	movlw	63
   984     0611  1283               	bcf	3,5	;RP0=0, select bank0
   985     0612  1303               	bcf	3,6	;RP1=0, select bank0
   986     0613  0506               	andwf	6,w	;volatile
   987     0614  00F0               	movwf	??_read_digital_keypad
   988     0615  303F               	movlw	63
   989     0616  0670               	xorwf	??_read_digital_keypad,w
   990     0617  1903               	btfsc	3,2
   991     0618  2E1A               	goto	u351
   992     0619  2E1B               	goto	u350
   993     061A                     u351:
   994     061A  2E22               	goto	l850
   995     061B                     u350:
   996     061B                     l840:
   997     061B  0847               	movf	read_digital_keypad@once,w
   998     061C  1903               	btfsc	3,2
   999     061D  2E1F               	goto	u361
  1000     061E  2E20               	goto	u360
  1001     061F                     u361:
  1002     061F  2E22               	goto	l850
  1003     0620                     u360:
  1004     0620                     l842:
  1005                           
  1006                           ;digital_keypad.c: 27:         {;digital_keypad.c: 28:             once = 0;
  1007     0620  01C7               	clrf	read_digital_keypad@once
  1008     0621  2E0B               	goto	l832
  1009     0622                     l850:
  1010     0622  303F               	movlw	63
  1011     0623  0506               	andwf	6,w	;volatile
  1012     0624  00F0               	movwf	??_read_digital_keypad
  1013     0625  303F               	movlw	63
  1014     0626  0670               	xorwf	??_read_digital_keypad,w
  1015     0627  1D03               	btfss	3,2
  1016     0628  2E2A               	goto	u371
  1017     0629  2E2B               	goto	u370
  1018     062A                     u371:
  1019     062A  2E2D               	goto	l854
  1020     062B                     u370:
  1021     062B                     l852:
  1022                           
  1023                           ;digital_keypad.c: 33:         {;digital_keypad.c: 34:             once = 1;
  1024     062B  01C7               	clrf	read_digital_keypad@once
  1025     062C  0AC7               	incf	read_digital_keypad@once,f
  1026     062D                     l854:
  1027                           
  1028                           ;digital_keypad.c: 38:     return 0x3F;
  1029     062D  303F               	movlw	63
  1030     062E                     l68:
  1031     062E  0008               	return
  1032     062F                     __end_of_read_digital_keypad:
  1033                           
  1034                           	psect	text2
  1035     05CE                     __ptext2:	
  1036 ;; *************** function _init_config *****************
  1037 ;; Defined at:
  1038 ;;		line 14 in file "main.c"
  1039 ;; Parameters:    Size  Location     Type
  1040 ;;		None
  1041 ;; Auto vars:     Size  Location     Type
  1042 ;;		None
  1043 ;; Return value:  Size  Location     Type
  1044 ;;                  1    wreg      void 
  1045 ;; Registers used:
  1046 ;;		wreg, status,2, status,0, pclath, cstack
  1047 ;; Tracked objects:
  1048 ;;		On entry : 0/0
  1049 ;;		On exit  : 0/0
  1050 ;;		Unchanged: 0/0
  1051 ;; Data sizes:     COMMON   BANK0   BANK1   BANK3   BANK2
  1052 ;;      Params:         0       0       0       0       0
  1053 ;;      Locals:         0       0       0       0       0
  1054 ;;      Temps:          0       0       0       0       0
  1055 ;;      Totals:         0       0       0       0       0
  1056 ;;Total ram usage:        0 bytes
  1057 ;; Hardware stack levels used: 1
  1058 ;; Hardware stack levels required when called: 1
  1059 ;; This function calls:
  1060 ;;		_init_digital_keypad
  1061 ;;		_init_ssd
  1062 ;; This function is called by:
  1063 ;;		_main
  1064 ;; This function uses a non-reentrant model
  1065 ;;
  1066                           
  1067     05CE                     _init_config:	
  1068                           ;psect for function _init_config
  1069                           
  1070     05CE                     l828:	
  1071                           ;incstack = 0
  1072                           ; Regs used in _init_config: [wreg+status,2+status,0+pclath+cstack]
  1073                           
  1074                           
  1075                           ;main.c: 16: 
  1076     05CE  120A  118A  25C8  120A  118A  	fcall	_init_digital_keypad
  1077                           
  1078                           ;main.c: 17:         key = read_digital_keypad(1);
  1079     05D3  120A  118A  25D9  120A  118A  	fcall	_init_ssd
  1080     05D8                     l30:
  1081     05D8  0008               	return
  1082     05D9                     __end_of_init_config:
  1083                           
  1084                           	psect	text3
  1085     05D9                     __ptext3:	
  1086 ;; *************** function _init_ssd *****************
  1087 ;; Defined at:
  1088 ;;		line 12 in file "ssd.c"
  1089 ;; Parameters:    Size  Location     Type
  1090 ;;		None
  1091 ;; Auto vars:     Size  Location     Type
  1092 ;;		None
  1093 ;; Return value:  Size  Location     Type
  1094 ;;                  1    wreg      void 
  1095 ;; Registers used:
  1096 ;;		wreg, status,2
  1097 ;; Tracked objects:
  1098 ;;		On entry : 0/0
  1099 ;;		On exit  : 0/0
  1100 ;;		Unchanged: 0/0
  1101 ;; Data sizes:     COMMON   BANK0   BANK1   BANK3   BANK2
  1102 ;;      Params:         0       0       0       0       0
  1103 ;;      Locals:         0       0       0       0       0
  1104 ;;      Temps:          0       0       0       0       0
  1105 ;;      Totals:         0       0       0       0       0
  1106 ;;Total ram usage:        0 bytes
  1107 ;; Hardware stack levels used: 1
  1108 ;; This function calls:
  1109 ;;		Nothing
  1110 ;; This function is called by:
  1111 ;;		_init_config
  1112 ;; This function uses a non-reentrant model
  1113 ;;
  1114                           
  1115     05D9                     _init_ssd:	
  1116                           ;psect for function _init_ssd
  1117                           
  1118     05D9                     l802:	
  1119                           ;incstack = 0
  1120                           ; Regs used in _init_ssd: [wreg+status,2]
  1121                           
  1122                           
  1123                           ;ssd.c: 15:     TRISD = 0x00;
  1124     05D9  1683               	bsf	3,5	;RP0=1, select bank1
  1125     05DA  1303               	bcf	3,6	;RP1=0, select bank1
  1126     05DB  0188               	clrf	8	;volatile
  1127     05DC                     l804:
  1128                           
  1129                           ;ssd.c: 18:     TRISA = TRISA & 0x03;
  1130     05DC  0805               	movf	5,w	;volatile
  1131     05DD  3903               	andlw	3
  1132     05DE  0085               	movwf	5	;volatile
  1133     05DF                     l806:
  1134                           
  1135                           ;ssd.c: 20:     PORTA = PORTA & 0x03;
  1136     05DF  1283               	bcf	3,5	;RP0=0, select bank0
  1137     05E0  1303               	bcf	3,6	;RP1=0, select bank0
  1138     05E1  0805               	movf	5,w	;volatile
  1139     05E2  3903               	andlw	3
  1140     05E3  0085               	movwf	5	;volatile
  1141     05E4                     l11:
  1142     05E4  0008               	return
  1143     05E5                     __end_of_init_ssd:
  1144                           
  1145                           	psect	text4
  1146     05C8                     __ptext4:	
  1147 ;; *************** function _init_digital_keypad *****************
  1148 ;; Defined at:
  1149 ;;		line 10 in file "digital_keypad.c"
  1150 ;; Parameters:    Size  Location     Type
  1151 ;;		None
  1152 ;; Auto vars:     Size  Location     Type
  1153 ;;		None
  1154 ;; Return value:  Size  Location     Type
  1155 ;;                  1    wreg      void 
  1156 ;; Registers used:
  1157 ;;		wreg, status,2
  1158 ;; Tracked objects:
  1159 ;;		On entry : 0/0
  1160 ;;		On exit  : 0/0
  1161 ;;		Unchanged: 0/0
  1162 ;; Data sizes:     COMMON   BANK0   BANK1   BANK3   BANK2
  1163 ;;      Params:         0       0       0       0       0
  1164 ;;      Locals:         0       0       0       0       0
  1165 ;;      Temps:          0       0       0       0       0
  1166 ;;      Totals:         0       0       0       0       0
  1167 ;;Total ram usage:        0 bytes
  1168 ;; Hardware stack levels used: 1
  1169 ;; This function calls:
  1170 ;;		Nothing
  1171 ;; This function is called by:
  1172 ;;		_init_config
  1173 ;; This function uses a non-reentrant model
  1174 ;;
  1175                           
  1176     05C8                     _init_digital_keypad:	
  1177                           ;psect for function _init_digital_keypad
  1178                           
  1179     05C8                     l808:	
  1180                           ;incstack = 0
  1181                           ; Regs used in _init_digital_keypad: [wreg+status,2]
  1182                           
  1183                           
  1184                           ;digital_keypad.c: 13:     TRISB = TRISB | 0x3F;
  1185     05C8  1683               	bsf	3,5	;RP0=1, select bank1
  1186     05C9  1303               	bcf	3,6	;RP1=0, select bank1
  1187     05CA  0806               	movf	6,w	;volatile
  1188     05CB  383F               	iorlw	63
  1189     05CC  0086               	movwf	6	;volatile
  1190     05CD                     l62:
  1191     05CD  0008               	return
  1192     05CE                     __end_of_init_digital_keypad:
  1193                           
  1194                           	psect	text5
  1195     0669                     __ptext5:	
  1196 ;; *************** function _display *****************
  1197 ;; Defined at:
  1198 ;;		line 23 in file "ssd.c"
  1199 ;; Parameters:    Size  Location     Type
  1200 ;;  data            1    wreg     PTR unsigned char 
  1201 ;;		 -> main@ssd(4), 
  1202 ;; Auto vars:     Size  Location     Type
  1203 ;;  data            1    8[COMMON] PTR unsigned char 
  1204 ;;		 -> main@ssd(4), 
  1205 ;;  wait            4    4[COMMON] unsigned long 
  1206 ;;  digit           1    9[COMMON] unsigned char 
  1207 ;; Return value:  Size  Location     Type
  1208 ;;                  1    wreg      void 
  1209 ;; Registers used:
  1210 ;;		wreg, fsr0l, fsr0h, status,2, status,0
  1211 ;; Tracked objects:
  1212 ;;		On entry : 0/0
  1213 ;;		On exit  : 0/0
  1214 ;;		Unchanged: 0/0
  1215 ;; Data sizes:     COMMON   BANK0   BANK1   BANK3   BANK2
  1216 ;;      Params:         0       0       0       0       0
  1217 ;;      Locals:         6       0       0       0       0
  1218 ;;      Temps:          4       0       0       0       0
  1219 ;;      Totals:        10       0       0       0       0
  1220 ;;Total ram usage:       10 bytes
  1221 ;; Hardware stack levels used: 1
  1222 ;; This function calls:
  1223 ;;		Nothing
  1224 ;; This function is called by:
  1225 ;;		_main
  1226 ;; This function uses a non-reentrant model
  1227 ;;
  1228                           
  1229     0669                     _display:	
  1230                           ;psect for function _display
  1231                           
  1232                           
  1233                           ;incstack = 0
  1234                           ; Regs used in _display: [wreg-fsr0h+status,2+status,0]
  1235                           ;display@data stored from wreg
  1236     0669  00F8               	movwf	display@data
  1237     066A                     l810:
  1238                           
  1239                           ;ssd.c: 23: void display(unsigned char data[]);ssd.c: 24: {;ssd.c: 25:     unsigned char
      +                           digit;;ssd.c: 27:     for (digit = 0; digit < 4; digit++)
  1240     066A  01F9               	clrf	display@digit
  1241     066B                     l816:
  1242                           
  1243                           ;ssd.c: 28:     {;ssd.c: 29:         PORTD = data[digit];
  1244     066B  0879               	movf	display@digit,w
  1245     066C  0778               	addwf	display@data,w
  1246     066D  00F0               	movwf	??_display
  1247     066E  0870               	movf	??_display,w
  1248     066F  0084               	movwf	4
  1249     0670  1383               	bcf	3,7	;select IRP bank0
  1250     0671  0800               	movf	0,w
  1251     0672  1283               	bcf	3,5	;RP0=0, select bank0
  1252     0673  1303               	bcf	3,6	;RP1=0, select bank0
  1253     0674  0088               	movwf	8	;volatile
  1254     0675                     l818:
  1255                           
  1256                           ;ssd.c: 30:         PORTA = (PORTA & 0x03) | (0x04 << digit);
  1257     0675  3004               	movlw	4
  1258     0676  00F0               	movwf	??_display
  1259     0677  0A79               	incf	display@digit,w
  1260     0678  2E7B               	goto	u304
  1261     0679                     u305:
  1262     0679  1003               	clrc
  1263     067A  0DF0               	rlf	??_display,f
  1264     067B                     u304:
  1265     067B  3EFF               	addlw	-1
  1266     067C  1D03               	skipz
  1267     067D  2E79               	goto	u305
  1268     067E  0805               	movf	5,w	;volatile
  1269     067F  3903               	andlw	3
  1270     0680  0470               	iorwf	??_display,w
  1271     0681  0085               	movwf	5	;volatile
  1272     0682                     l820:
  1273                           
  1274                           ;ssd.c: 32:        for (unsigned long int wait = 400; wait--; );
  1275     0682  3000               	movlw	0
  1276     0683  00F7               	movwf	display@wait+3
  1277     0684  3000               	movlw	0
  1278     0685  00F6               	movwf	display@wait+2
  1279     0686  3001               	movlw	1
  1280     0687  00F5               	movwf	display@wait+1
  1281     0688  3090               	movlw	144
  1282     0689  00F4               	movwf	display@wait
  1283     068A                     l822:
  1284     068A  3001               	movlw	1
  1285     068B  00F0               	movwf	??_display
  1286     068C  3000               	movlw	0
  1287     068D  00F1               	movwf	??_display+1
  1288     068E  3000               	movlw	0
  1289     068F  00F2               	movwf	??_display+2
  1290     0690  3000               	movlw	0
  1291     0691  00F3               	movwf	??_display+3
  1292     0692  0870               	movf	??_display,w
  1293     0693  02F4               	subwf	display@wait,f
  1294     0694  0871               	movf	??_display+1,w
  1295     0695  1C03               	skipc
  1296     0696  0F71               	incfsz	??_display+1,w
  1297     0697  2E99               	goto	u315
  1298     0698  2E9A               	goto	u316
  1299     0699                     u315:
  1300     0699  02F5               	subwf	display@wait+1,f
  1301     069A                     u316:
  1302     069A  0872               	movf	??_display+2,w
  1303     069B  1C03               	skipc
  1304     069C  0F72               	incfsz	??_display+2,w
  1305     069D  2E9F               	goto	u317
  1306     069E  2EA0               	goto	u318
  1307     069F                     u317:
  1308     069F  02F6               	subwf	display@wait+2,f
  1309     06A0                     u318:
  1310     06A0  0873               	movf	??_display+3,w
  1311     06A1  1C03               	skipc
  1312     06A2  0F73               	incfsz	??_display+3,w
  1313     06A3  2EA5               	goto	u319
  1314     06A4  2EA6               	goto	u310
  1315     06A5                     u319:
  1316     06A5  02F7               	subwf	display@wait+3,f
  1317     06A6                     u310:
  1318     06A6  0A74               	incf	display@wait,w
  1319     06A7  1D03               	skipz
  1320     06A8  2EB3               	goto	u321
  1321     06A9  0A75               	incf	display@wait+1,w
  1322     06AA  1D03               	skipz
  1323     06AB  2EB3               	goto	u321
  1324     06AC  0A76               	incf	display@wait+2,w
  1325     06AD  1D03               	skipz
  1326     06AE  2EB3               	goto	u321
  1327     06AF  0A77               	incf	display@wait+3,w
  1328     06B0  1D03               	btfss	3,2
  1329     06B1  2EB3               	goto	u321
  1330     06B2  2EB4               	goto	u320
  1331     06B3                     u321:
  1332     06B3  2E8A               	goto	l822
  1333     06B4                     u320:
  1334     06B4                     l824:
  1335                           
  1336                           ;ssd.c: 33:     }
  1337     06B4  3001               	movlw	1
  1338     06B5  00F0               	movwf	??_display
  1339     06B6  0870               	movf	??_display,w
  1340     06B7  07F9               	addwf	display@digit,f
  1341     06B8                     l826:
  1342     06B8  3004               	movlw	4
  1343     06B9  0279               	subwf	display@digit,w
  1344     06BA  1C03               	skipc
  1345     06BB  2EBD               	goto	u331
  1346     06BC  2EBE               	goto	u330
  1347     06BD                     u331:
  1348     06BD  2E6B               	goto	l816
  1349     06BE                     u330:
  1350     06BE                     l19:
  1351     06BE  0008               	return
  1352     06BF                     __end_of_display:
  1353                           
  1354                           	psect	text6
  1355     062F                     __ptext6:	
  1356 ;; *************** function ___lwmod *****************
  1357 ;; Defined at:
  1358 ;;		line 5 in file "C:\Program Files\Microchip\xc8\v2.40\pic\sources\c90\common\lwmod.c"
  1359 ;; Parameters:    Size  Location     Type
  1360 ;;  divisor         2    0[COMMON] unsigned int 
  1361 ;;  dividend        2    2[COMMON] unsigned int 
  1362 ;; Auto vars:     Size  Location     Type
  1363 ;;  counter         1    5[COMMON] unsigned char 
  1364 ;; Return value:  Size  Location     Type
  1365 ;;                  2    0[COMMON] unsigned int 
  1366 ;; Registers used:
  1367 ;;		wreg, status,2, status,0
  1368 ;; Tracked objects:
  1369 ;;		On entry : 0/0
  1370 ;;		On exit  : 0/0
  1371 ;;		Unchanged: 0/0
  1372 ;; Data sizes:     COMMON   BANK0   BANK1   BANK3   BANK2
  1373 ;;      Params:         4       0       0       0       0
  1374 ;;      Locals:         1       0       0       0       0
  1375 ;;      Temps:          1       0       0       0       0
  1376 ;;      Totals:         6       0       0       0       0
  1377 ;;Total ram usage:        6 bytes
  1378 ;; Hardware stack levels used: 1
  1379 ;; This function calls:
  1380 ;;		Nothing
  1381 ;; This function is called by:
  1382 ;;		_main
  1383 ;; This function uses a non-reentrant model
  1384 ;;
  1385                           
  1386     062F                     ___lwmod:	
  1387                           ;psect for function ___lwmod
  1388                           
  1389     062F                     l858:	
  1390                           ;incstack = 0
  1391                           ; Regs used in ___lwmod: [wreg+status,2+status,0]
  1392                           
  1393     062F  0870               	movf	___lwmod@divisor,w
  1394     0630  0471               	iorwf	___lwmod@divisor+1,w
  1395     0631  1903               	btfsc	3,2
  1396     0632  2E34               	goto	u381
  1397     0633  2E35               	goto	u380
  1398     0634                     u381:
  1399     0634  2E64               	goto	l876
  1400     0635                     u380:
  1401     0635                     l860:
  1402     0635  01F5               	clrf	___lwmod@counter
  1403     0636  0AF5               	incf	___lwmod@counter,f
  1404     0637  2E43               	goto	l866
  1405     0638                     l862:
  1406     0638  3001               	movlw	1
  1407     0639                     u395:
  1408     0639  1003               	clrc
  1409     063A  0DF0               	rlf	___lwmod@divisor,f
  1410     063B  0DF1               	rlf	___lwmod@divisor+1,f
  1411     063C  3EFF               	addlw	-1
  1412     063D  1D03               	skipz
  1413     063E  2E39               	goto	u395
  1414     063F                     l864:
  1415     063F  3001               	movlw	1
  1416     0640  00F4               	movwf	??___lwmod
  1417     0641  0874               	movf	??___lwmod,w
  1418     0642  07F5               	addwf	___lwmod@counter,f
  1419     0643                     l866:
  1420     0643  1FF1               	btfss	___lwmod@divisor+1,7
  1421     0644  2E46               	goto	u401
  1422     0645  2E47               	goto	u400
  1423     0646                     u401:
  1424     0646  2E38               	goto	l862
  1425     0647                     u400:
  1426     0647                     l868:
  1427     0647  0871               	movf	___lwmod@divisor+1,w
  1428     0648  0273               	subwf	___lwmod@dividend+1,w
  1429     0649  1D03               	skipz
  1430     064A  2E4D               	goto	u415
  1431     064B  0870               	movf	___lwmod@divisor,w
  1432     064C  0272               	subwf	___lwmod@dividend,w
  1433     064D                     u415:
  1434     064D  1C03               	skipc
  1435     064E  2E50               	goto	u411
  1436     064F  2E51               	goto	u410
  1437     0650                     u411:
  1438     0650  2E57               	goto	l872
  1439     0651                     u410:
  1440     0651                     l870:
  1441     0651  0870               	movf	___lwmod@divisor,w
  1442     0652  02F2               	subwf	___lwmod@dividend,f
  1443     0653  0871               	movf	___lwmod@divisor+1,w
  1444     0654  1C03               	skipc
  1445     0655  03F3               	decf	___lwmod@dividend+1,f
  1446     0656  02F3               	subwf	___lwmod@dividend+1,f
  1447     0657                     l872:
  1448     0657  3001               	movlw	1
  1449     0658                     u425:
  1450     0658  1003               	clrc
  1451     0659  0CF1               	rrf	___lwmod@divisor+1,f
  1452     065A  0CF0               	rrf	___lwmod@divisor,f
  1453     065B  3EFF               	addlw	-1
  1454     065C  1D03               	skipz
  1455     065D  2E58               	goto	u425
  1456     065E                     l874:
  1457     065E  3001               	movlw	1
  1458     065F  02F5               	subwf	___lwmod@counter,f
  1459     0660  1D03               	btfss	3,2
  1460     0661  2E63               	goto	u431
  1461     0662  2E64               	goto	u430
  1462     0663                     u431:
  1463     0663  2E47               	goto	l868
  1464     0664                     u430:
  1465     0664                     l876:
  1466     0664  0873               	movf	___lwmod@dividend+1,w
  1467     0665  00F1               	movwf	?___lwmod+1
  1468     0666  0872               	movf	___lwmod@dividend,w
  1469     0667  00F0               	movwf	?___lwmod
  1470     0668                     l440:
  1471     0668  0008               	return
  1472     0669                     __end_of___lwmod:
  1473     007E                     btemp	set	126	;btemp
  1474     007E                     wtemp0	set	126
  1475                           
  1476                           	psect	config
  1477                           
  1478                           ;Config register CONFIG @ 0x2007
  1479                           ;	Oscillator Selection bits
  1480                           ;	FOSC = 0x3, unprogrammed default
  1481                           ;	Watchdog Timer Enable bit
  1482                           ;	WDTE = OFF, WDT disabled
  1483                           ;	Power-up Timer Enable bit
  1484                           ;	PWRTE = 0x1, unprogrammed default
  1485                           ;	Brown-out Reset Enable bit
  1486                           ;	BOREN = 0x1, unprogrammed default
  1487                           ;	Low-Voltage (Single-Supply) In-Circuit Serial Programming Enable bit
  1488                           ;	LVP = 0x1, unprogrammed default
  1489                           ;	Data EEPROM Memory Code Protection bit
  1490                           ;	CPD = 0x1, unprogrammed default
  1491                           ;	Flash Program Memory Write Enable bits
  1492                           ;	WRT = 0x3, unprogrammed default
  1493                           ;	In-Circuit Debugger Mode bit
  1494                           ;	DEBUG = 0x1, unprogrammed default
  1495                           ;	Flash Program Memory Code Protection bit
  1496                           ;	CP = 0x1, unprogrammed default
  1497     2007                     	org	8199
  1498     2007  3FFB               	dw	16379

Data Sizes:
    Strings     0
    Constant    0
    Data        13
    BSS         0
    Persistent  0
    Stack       0

Auto Spaces:
    Space          Size  Autos    Used
    COMMON           14     14      14
    BANK0            80     27      40
    BANK1            80      0       0
    BANK3            96      0       0
    BANK2            96      0       0

Pointer List with Targets:

    display@data	PTR unsigned char  size(1) Largest target is 4
		 -> main@ssd(BANK0[4]), 


Critical Paths under _main in COMMON

    _main->_display

Critical Paths under _main in BANK0

    None.

Critical Paths under _main in BANK1

    None.

Critical Paths under _main in BANK3

    None.

Critical Paths under _main in BANK2

    None.

Call Graph Tables:

 ---------------------------------------------------------------------------------
 (Depth) Function   	        Calls       Base Space   Used Autos Params    Refs
 ---------------------------------------------------------------------------------
 (0) _main                                                31    31      0    1557
                                             10 COMMON     4     4      0
                                              0 BANK0     27    27      0
                            ___lwmod
                            _display
                        _init_config
                _read_digital_keypad
 ---------------------------------------------------------------------------------
 (1) _read_digital_keypad                                  2     2      0      22
                                              0 COMMON     2     2      0
 ---------------------------------------------------------------------------------
 (1) _init_config                                          0     0      0       0
                _init_digital_keypad
                           _init_ssd
 ---------------------------------------------------------------------------------
 (2) _init_ssd                                             0     0      0       0
 ---------------------------------------------------------------------------------
 (2) _init_digital_keypad                                  0     0      0       0
 ---------------------------------------------------------------------------------
 (1) _display                                             10    10      0     168
                                              0 COMMON    10    10      0
 ---------------------------------------------------------------------------------
 (1) ___lwmod                                              6     2      4     767
                                              0 COMMON     6     2      4
 ---------------------------------------------------------------------------------
 Estimated maximum stack depth 2
 ---------------------------------------------------------------------------------

 Call Graph Graphs:

 _main (ROOT)
   ___lwmod
   _display
   _init_config
     _init_digital_keypad
     _init_ssd
   _read_digital_keypad

 Address spaces:
Name               Size   Autos  Total    Cost      Usage
BANK3               60      0       0       9        0.0%
BITBANK3            60      0       0       8        0.0%
SFR3                 0      0       0       4        0.0%
BITSFR3              0      0       0       4        0.0%
BANK2               60      0       0      11        0.0%
BITBANK2            60      0       0      10        0.0%
SFR2                 0      0       0       5        0.0%
BITSFR2              0      0       0       5        0.0%
BANK1               50      0       0       7        0.0%
BITBANK1            50      0       0       6        0.0%
SFR1                 0      0       0       2        0.0%
BITSFR1              0      0       0       2        0.0%
BANK0               50     1B      28       5       50.0%
BITBANK0            50      0       0       4        0.0%
SFR0                 0      0       0       1        0.0%
BITSFR0              0      0       0       1        0.0%
COMMON               E      E       E       1      100.0%
BITCOMMON            E      0       0       0        0.0%
CODE                 0      0       0       0        0.0%
DATA                 0      0      36      12        0.0%
ABS                  0      0      36       3        0.0%
NULL                 0      0       0       0        0.0%
STACK                0      0       0       2        0.0%
EEDATA             100      0       0       0        0.0%


Microchip Technology PIC Macro Assembler V2.40 build 20220703182018 
Symbol Table                                                                                   Tue Sep 13 09:24:48 2022

                          pc 0002                           l11 05E4                           l30 05D8  
                         l19 06BE                           l43 0784                           l62 05CD  
                         l68 062E                           fsr 0004                          l440 0668  
                        l810 066A                          l802 05D9                          l820 0682  
                        l804 05DC                          l900 06FA                          l822 068A  
                        l806 05DF                          l830 0606                          l910 0723  
                        l902 0700                          l824 06B4                          l816 066B  
                        l808 05C8                          l840 061B                          l832 060B  
                        l920 0745                          l912 0725                          l904 0704  
                        l826 06B8                          l818 0675                          l842 0620  
                        l850 0622                          l930 076D                          l922 0749  
                        l914 072B                          l906 070A                          l860 0635  
                        l828 05CE                          l852 062B                          l932 0771  
                        l924 0756                          l916 0731                          l908 071E  
                        l870 0651                          l862 0638                          l854 062D  
                        l838 0610                          l934 077F                          l926 0758  
                        l918 0737                          l872 0657                          l864 063F  
                        l928 075F                          l880 06BF                          l874 065E  
                        l866 0643                          l858 062F                          l938 0784  
                        l890 06E0                          l882 06D4                          l868 0647  
                        l876 0664                          l892 06E2                          l884 06DA  
                        l894 06E7                          l886 06DC                          l896 06F0  
                        l888 06DE                          l898 06F6                          u310 06A6  
                        u400 0647                          u320 06B4                          u304 067B  
                        u401 0646                          u321 06B3                          u305 0679  
                        u410 0651                          u330 06BE                          u411 0650  
                        u331 06BD                          u315 0699                          u316 069A  
                        u340 060B                          u500 071E                          u317 069F  
                        u341 060A                          u501 071D                          u430 0664  
                        u318 06A0                          u350 061B                          u510 072B  
                        u431 0663                          u415 064D                          u319 06A5  
                        u351 061A                          u511 072A                          u360 0620  
                        u520 0731                          u440 06C7                          u425 0658  
                        u361 061F                          u521 0730                          u370 062B  
                        u530 0737                          u450 06F6                          u371 062A  
                        u531 0736                          u451 06F5                          u380 0635  
                        u540 0745                          u460 0700                          u381 0634  
                        u541 0744                          u461 06FF                          u550 0756  
                        u470 070A                          u551 0755                          u471 0709  
                        u560 075F                          u480 0711                          u561 075E  
                        u481 070F                          u570 076D                          u490 0712  
                        u395 0639                          u571 076C                          u580 077F  
                        u581 077E                          fsr0 0004                          indf 0000  
      ??_read_digital_keypad 0070                  display@data 0078                  display@wait 0074  
                       _main 06BF                         btemp 007E                         start 0000  
                      ?_main 0070              __end_of___lwmod 0669                 ?_init_config 0070  
                      _PORTA 0005                        _PORTB 0006                        _PORTD 0008  
                      _TRISA 0085                        _TRISB 0086                        _TRISD 0088  
               display@digit 0079              __end_of_display 06BF                        pclath 000A  
                      status 0003                        wtemp0 007E              __initialization 07EE  
               __end_of_main 07EE                       ??_main 007A  __end_of_init_digital_keypad 05CE  
                  ??___lwmod 0074             __end_of_init_ssd 05E5                    ??_display 0070  
              main@stop_flag 0034      __end_of__initialization 07FC               __pcstackCOMMON 0070  
               __pidataBANK0 05E5                   __pmaintext 06BF  __end_of_read_digital_keypad 062F  
                  ?_init_ssd 0070                      ___lwmod 062F                      __ptext1 0605  
                    __ptext2 05CE                      __ptext3 05D9                      __ptext4 05C8  
                    __ptext5 0669                      __ptext6 062F                      _display 0669  
                    main@key 0036                      main@ssd 002C         end_of_initialization 07FC  
                 ??_init_ssd 0070                   main@digits 0020                   main@s_flag 0030  
        start_initialization 07EE                   init_fetch0 05F2                  __pdataBANK0 003B  
              ??_init_config 0070                    ___latbits 0002                __pcstackBANK0 0020  
                   ?___lwmod 0070                     ?_display 0070          __end_of_init_config 05D9  
                  main@delay 0032                    main@count 0039          _init_digital_keypad 05C8  
       ?_init_digital_keypad 0070                  _init_config 05CE                     _init_ssd 05D9  
    read_digital_keypad@mode 0071      read_digital_keypad@once 0047                     main@F859 003B  
      ??_init_digital_keypad 0070                     main@flag 0037                     init_ram0 05F6  
           ___lwmod@dividend 0072          _read_digital_keypad 0605              ___lwmod@divisor 0070  
            ___lwmod@counter 0075         ?_read_digital_keypad 0070  
