

Microchip MPLAB XC8 Assembler V2.40 build 20220703182018 
                                                                                               Fri Sep 09 22:38:41 2022

Microchip MPLAB XC8 C Compiler v2.40 (Free license) build 20220703182018 Og1 
     1                           	processor	16F877A
     2                           	pagewidth 120
     3                           	opt	flic
     4                           	psect	idataCOMMON,global,class=CODE,delta=2,noexec
     5                           	psect	cinit,global,class=CODE,merge=1,delta=2
     6                           	psect	dataCOMMON,global,class=COMMON,space=1,delta=1,noexec
     7                           	psect	cstackCOMMON,global,class=COMMON,space=1,delta=1,noexec
     8                           	psect	maintext,global,class=CODE,split=1,delta=2
     9                           	psect	text1,local,class=CODE,merge=1,delta=2
    10                           	psect	text2,local,class=CODE,merge=1,delta=2
    11                           	psect	text3,local,class=CODE,merge=1,delta=2
    12                           	psect	config,global,abs,ovrld,class=CONFIG,space=4,delta=2,noexec
    13                           	dabs	1,0x7E,2
    14     0000                     
    15                           ; Version 2.20
    16                           ; Generated 12/02/2020 GMT
    17                           ; 
    18                           ; Copyright © 2020, Microchip Technology Inc. and its subsidiaries ("Microchip")
    19                           ; All rights reserved.
    20                           ; 
    21                           ; This software is developed by Microchip Technology Inc. and its subsidiaries ("Microch
      +                          ip").
    22                           ; 
    23                           ; Redistribution and use in source and binary forms, with or without modification, are
    24                           ; permitted provided that the following conditions are met:
    25                           ; 
    26                           ;     1. Redistributions of source code must retain the above copyright notice, this lis
      +                          t of
    27                           ;        conditions and the following disclaimer.
    28                           ; 
    29                           ;     2. Redistributions in binary form must reproduce the above copyright notice, this 
      +                          list
    30                           ;        of conditions and the following disclaimer in the documentation and/or other
    31                           ;        materials provided with the distribution.
    32                           ; 
    33                           ;     3. Microchip's name may not be used to endorse or promote products derived from th
      +                          is
    34                           ;        software without specific prior written permission.
    35                           ; 
    36                           ; THIS SOFTWARE IS PROVIDED BY MICROCHIP "AS IS" AND ANY EXPRESS OR IMPLIED WARRANTIES,
    37                           ; INCLUDING, BUT NOT LIMITED TO, THE IMPLIED WARRANTIES OF MERCHANTABILITY AND FITNESS F
      +                          OR
    38                           ; PURPOSE ARE DISCLAIMED.  IN NO EVENT SHALL MICROCHIP BE LIABLE FOR ANY DIRECT, INDIREC
      +                          T,
    39                           ; INCIDENTAL, SPECIAL, EXEMPLARY, OR CONSEQUENTIAL DAMAGES (INCLUDING BUT NOT LIMITED TO
    40                           ; PROCUREMENT OF SUBSTITUTE GOODS OR SERVICES; LOSS OF USE, DATA OR PROFITS; OR BUSINESS
    41                           ; INTERRUPTION) HOWSOEVER CAUSED AND ON ANY THEORY OF LIABILITY, WHETHER IN CONTRACT, ST
      +                          RICT
    42                           ; LIABILITY, OR TORT (INCLUDING NEGLIGENCE OR OTHERWISE) ARISING IN ANY WAY OUT OF THE U
      +                          SE OF
    43                           ; THIS SOFTWARE, EVEN IF ADVISED OF THE POSSIBILITY OF SUCH DAMAGE.
    44                           ; 
    45                           ; 
    46                           ; Code-generator required, PIC16F877A Definitions
    47                           ; 
    48                           ; SFR Addresses
    49     0000                     	;# 
    50     0001                     	;# 
    51     0002                     	;# 
    52     0003                     	;# 
    53     0004                     	;# 
    54     0005                     	;# 
    55     0006                     	;# 
    56     0007                     	;# 
    57     0008                     	;# 
    58     0009                     	;# 
    59     000A                     	;# 
    60     000B                     	;# 
    61     000C                     	;# 
    62     000D                     	;# 
    63     000E                     	;# 
    64     000E                     	;# 
    65     000F                     	;# 
    66     0010                     	;# 
    67     0011                     	;# 
    68     0012                     	;# 
    69     0013                     	;# 
    70     0014                     	;# 
    71     0015                     	;# 
    72     0015                     	;# 
    73     0016                     	;# 
    74     0017                     	;# 
    75     0018                     	;# 
    76     0019                     	;# 
    77     001A                     	;# 
    78     001B                     	;# 
    79     001B                     	;# 
    80     001C                     	;# 
    81     001D                     	;# 
    82     001E                     	;# 
    83     001F                     	;# 
    84     0081                     	;# 
    85     0085                     	;# 
    86     0086                     	;# 
    87     0087                     	;# 
    88     0088                     	;# 
    89     0089                     	;# 
    90     008C                     	;# 
    91     008D                     	;# 
    92     008E                     	;# 
    93     0091                     	;# 
    94     0092                     	;# 
    95     0093                     	;# 
    96     0094                     	;# 
    97     0098                     	;# 
    98     0099                     	;# 
    99     009C                     	;# 
   100     009D                     	;# 
   101     009E                     	;# 
   102     009F                     	;# 
   103     010C                     	;# 
   104     010D                     	;# 
   105     010E                     	;# 
   106     010F                     	;# 
   107     018C                     	;# 
   108     018D                     	;# 
   109     0000                     	;# 
   110     0001                     	;# 
   111     0002                     	;# 
   112     0003                     	;# 
   113     0004                     	;# 
   114     0005                     	;# 
   115     0006                     	;# 
   116     0007                     	;# 
   117     0008                     	;# 
   118     0009                     	;# 
   119     000A                     	;# 
   120     000B                     	;# 
   121     000C                     	;# 
   122     000D                     	;# 
   123     000E                     	;# 
   124     000E                     	;# 
   125     000F                     	;# 
   126     0010                     	;# 
   127     0011                     	;# 
   128     0012                     	;# 
   129     0013                     	;# 
   130     0014                     	;# 
   131     0015                     	;# 
   132     0015                     	;# 
   133     0016                     	;# 
   134     0017                     	;# 
   135     0018                     	;# 
   136     0019                     	;# 
   137     001A                     	;# 
   138     001B                     	;# 
   139     001B                     	;# 
   140     001C                     	;# 
   141     001D                     	;# 
   142     001E                     	;# 
   143     001F                     	;# 
   144     0081                     	;# 
   145     0085                     	;# 
   146     0086                     	;# 
   147     0087                     	;# 
   148     0088                     	;# 
   149     0089                     	;# 
   150     008C                     	;# 
   151     008D                     	;# 
   152     008E                     	;# 
   153     0091                     	;# 
   154     0092                     	;# 
   155     0093                     	;# 
   156     0094                     	;# 
   157     0098                     	;# 
   158     0099                     	;# 
   159     009C                     	;# 
   160     009D                     	;# 
   161     009E                     	;# 
   162     009F                     	;# 
   163     010C                     	;# 
   164     010D                     	;# 
   165     010E                     	;# 
   166     010F                     	;# 
   167     018C                     	;# 
   168     018D                     	;# 
   169     0000                     	;# 
   170     0001                     	;# 
   171     0002                     	;# 
   172     0003                     	;# 
   173     0004                     	;# 
   174     0005                     	;# 
   175     0006                     	;# 
   176     0007                     	;# 
   177     0008                     	;# 
   178     0009                     	;# 
   179     000A                     	;# 
   180     000B                     	;# 
   181     000C                     	;# 
   182     000D                     	;# 
   183     000E                     	;# 
   184     000E                     	;# 
   185     000F                     	;# 
   186     0010                     	;# 
   187     0011                     	;# 
   188     0012                     	;# 
   189     0013                     	;# 
   190     0014                     	;# 
   191     0015                     	;# 
   192     0015                     	;# 
   193     0016                     	;# 
   194     0017                     	;# 
   195     0018                     	;# 
   196     0019                     	;# 
   197     001A                     	;# 
   198     001B                     	;# 
   199     001B                     	;# 
   200     001C                     	;# 
   201     001D                     	;# 
   202     001E                     	;# 
   203     001F                     	;# 
   204     0081                     	;# 
   205     0085                     	;# 
   206     0086                     	;# 
   207     0087                     	;# 
   208     0088                     	;# 
   209     0089                     	;# 
   210     008C                     	;# 
   211     008D                     	;# 
   212     008E                     	;# 
   213     0091                     	;# 
   214     0092                     	;# 
   215     0093                     	;# 
   216     0094                     	;# 
   217     0098                     	;# 
   218     0099                     	;# 
   219     009C                     	;# 
   220     009D                     	;# 
   221     009E                     	;# 
   222     009F                     	;# 
   223     010C                     	;# 
   224     010D                     	;# 
   225     010E                     	;# 
   226     010F                     	;# 
   227     018C                     	;# 
   228     018D                     	;# 
   229                           
   230                           	psect	idataCOMMON
   231     0681                     __pidataCOMMON:
   232                           
   233                           ;initializer for read_digital_keypad@once
   234     0681  3401               	retlw	1
   235     0006                     _PORTB	set	6
   236     0008                     _PORTD	set	8
   237     0086                     _TRISB	set	134
   238     0088                     _TRISD	set	136
   239                           
   240                           	psect	cinit
   241     07F6                     start_initialization:	
   242                           ; #config settings
   243                           
   244     07F6                     __initialization:
   245                           
   246                           ; Initialize objects allocated to COMMON
   247     07F6  120A  118A  2681  120A  118A  	fcall	__pidataCOMMON	;fetch initializer
   248     07FB  00FA               	movwf	__pdataCOMMON& (0+127)
   249     07FC                     end_of_initialization:	
   250                           ;End of C runtime variable initialization code
   251                           
   252     07FC                     __end_of__initialization:
   253     07FC  0183               	clrf	3
   254     07FD  120A  118A  2EBE   	ljmp	_main	;jump to C main() function
   255                           
   256                           	psect	dataCOMMON
   257     007A                     __pdataCOMMON:
   258     007A                     read_digital_keypad@once:
   259     007A                     	ds	1
   260                           
   261                           	psect	cstackCOMMON
   262     0070                     __pcstackCOMMON:
   263     0070                     ?_init_digital_keypad:
   264     0070                     ??_init_digital_keypad:	
   265                           ; 1 bytes @ 0x0
   266                           
   267     0070                     ?_read_digital_keypad:	
   268                           ; 1 bytes @ 0x0
   269                           
   270     0070                     ??_read_digital_keypad:	
   271                           ; 1 bytes @ 0x0
   272                           
   273     0070                     ?_init_config:	
   274                           ; 1 bytes @ 0x0
   275                           
   276     0070                     ??_init_config:	
   277                           ; 1 bytes @ 0x0
   278                           
   279     0070                     ?_main:	
   280                           ; 1 bytes @ 0x0
   281                           
   282                           
   283                           ; 1 bytes @ 0x0
   284     0070                     	ds	1
   285     0071                     read_digital_keypad@mode:
   286                           
   287                           ; 1 bytes @ 0x1
   288     0071                     	ds	1
   289     0072                     ??_main:
   290                           
   291                           ; 1 bytes @ 0x2
   292     0072                     	ds	1
   293     0073                     main@wait:
   294                           
   295                           ; 4 bytes @ 0x3
   296     0073                     	ds	4
   297     0077                     main@key:
   298                           
   299                           ; 1 bytes @ 0x7
   300     0077                     	ds	1
   301     0078                     main@flag:
   302                           
   303                           ; 1 bytes @ 0x8
   304     0078                     	ds	1
   305     0079                     main@i:
   306                           
   307                           ; 1 bytes @ 0x9
   308     0079                     	ds	1
   309                           
   310                           	psect	maintext
   311     06BE                     __pmaintext:	
   312 ;;
   313 ;;Main: autosize = 0, tempsize = 1, incstack = 0, save=0
   314 ;;
   315 ;; *************** function _main *****************
   316 ;; Defined at:
   317 ;;		line 21 in file "main.c"
   318 ;; Parameters:    Size  Location     Type
   319 ;;		None
   320 ;; Auto vars:     Size  Location     Type
   321 ;;  wait            4    3[COMMON] unsigned long 
   322 ;;  i               1    9[COMMON] unsigned char 
   323 ;;  flag            1    8[COMMON] unsigned char 
   324 ;;  key             1    7[COMMON] unsigned char 
   325 ;; Return value:  Size  Location     Type
   326 ;;                  1    wreg      void 
   327 ;; Registers used:
   328 ;;		wreg, status,2, status,0, pclath, cstack
   329 ;; Tracked objects:
   330 ;;		On entry : B00/0
   331 ;;		On exit  : 0/0
   332 ;;		Unchanged: 0/0
   333 ;; Data sizes:     COMMON   BANK0   BANK1   BANK3   BANK2
   334 ;;      Params:         0       0       0       0       0
   335 ;;      Locals:         7       0       0       0       0
   336 ;;      Temps:          1       0       0       0       0
   337 ;;      Totals:         8       0       0       0       0
   338 ;;Total ram usage:        8 bytes
   339 ;; Hardware stack levels required when called: 2
   340 ;; This function calls:
   341 ;;		_init_config
   342 ;;		_read_digital_keypad
   343 ;; This function is called by:
   344 ;;		Startup code after reset
   345 ;; This function uses a non-reentrant model
   346 ;;
   347                           
   348     06BE                     _main:	
   349                           ;psect for function _main
   350                           
   351     06BE                     l683:	
   352                           ;incstack = 0
   353                           ; Regs used in _main: [wreg+status,2+status,0+pclath+cstack]
   354                           
   355                           
   356                           ;main.c: 23:             i = 0;;main.c: 24:         }
   357     06BE  3000               	movlw	0
   358     06BF  00F6               	movwf	main@wait+3
   359     06C0  3000               	movlw	0
   360     06C1  00F5               	movwf	main@wait+2
   361     06C2  3000               	movlw	0
   362     06C3  00F4               	movwf	main@wait+1
   363     06C4  3000               	movlw	0
   364     06C5  00F3               	movwf	main@wait
   365     06C6                     l685:
   366                           
   367                           ;main.c: 25: 
   368     06C6  01F8               	clrf	main@flag
   369     06C7                     l687:
   370                           
   371                           ;main.c: 27:         {
   372     06C7  120A  118A  2688  120A  118A  	fcall	_init_config
   373     06CC                     l689:
   374                           
   375                           ;main.c: 30:             i = 0;
   376     06CC  3001               	movlw	1
   377     06CD  120A  118A  2694  120A  118A  	fcall	_read_digital_keypad
   378     06D2  00F7               	movwf	main@key
   379     06D3                     l691:
   380                           
   381                           ;main.c: 33:         if(key == 0x3B)
   382     06D3  303E               	movlw	62
   383     06D4  0677               	xorwf	main@key,w
   384     06D5  1D03               	btfss	3,2
   385     06D6  2ED8               	goto	u51
   386     06D7  2ED9               	goto	u50
   387     06D8                     u51:
   388     06D8  2EDF               	goto	l697
   389     06D9                     u50:
   390     06D9                     l693:
   391                           
   392                           ;main.c: 34:         {;main.c: 35:             PORTD = 0x00;
   393     06D9  1283               	bcf	3,5	;RP0=0, select bank0
   394     06DA  1303               	bcf	3,6	;RP1=0, select bank0
   395     06DB  0188               	clrf	8	;volatile
   396     06DC                     l695:
   397                           
   398                           ;main.c: 36:             flag = 3;
   399     06DC  01F8               	clrf	main@flag
   400     06DD  0AF8               	incf	main@flag,f
   401                           
   402                           ;main.c: 37:             i = 1;
   403     06DE  01F9               	clrf	main@i
   404     06DF                     l697:
   405                           
   406                           ;main.c: 40:         if(key == 0x37)
   407     06DF  303D               	movlw	61
   408     06E0  0677               	xorwf	main@key,w
   409     06E1  1D03               	btfss	3,2
   410     06E2  2EE4               	goto	u61
   411     06E3  2EE5               	goto	u60
   412     06E4                     u61:
   413     06E4  2EEB               	goto	l705
   414     06E5                     u60:
   415     06E5                     l699:
   416                           
   417                           ;main.c: 41:         {;main.c: 42:             PORTD = 0x00;
   418     06E5  1283               	bcf	3,5	;RP0=0, select bank0
   419     06E6  1303               	bcf	3,6	;RP1=0, select bank0
   420     06E7  0188               	clrf	8	;volatile
   421     06E8                     l701:
   422                           
   423                           ;main.c: 43:             flag = 4;
   424     06E8  3002               	movlw	2
   425     06E9  00F8               	movwf	main@flag
   426     06EA                     l703:
   427                           
   428                           ;main.c: 44:             i = 1;
   429     06EA  01F9               	clrf	main@i
   430     06EB                     l705:
   431                           
   432                           ;main.c: 47: 
   433     06EB  303B               	movlw	59
   434     06EC  0677               	xorwf	main@key,w
   435     06ED  1D03               	btfss	3,2
   436     06EE  2EF0               	goto	u71
   437     06EF  2EF1               	goto	u70
   438     06F0                     u71:
   439     06F0  2EF8               	goto	l713
   440     06F1                     u70:
   441     06F1                     l707:
   442                           
   443                           ;main.c: 48:         if (wait++ == 50000);main.c: 49:         {
   444     06F1  1283               	bcf	3,5	;RP0=0, select bank0
   445     06F2  1303               	bcf	3,6	;RP1=0, select bank0
   446     06F3  0188               	clrf	8	;volatile
   447     06F4                     l709:
   448                           
   449                           ;main.c: 50:             wait = 0;
   450     06F4  3003               	movlw	3
   451     06F5  00F8               	movwf	main@flag
   452     06F6                     l711:
   453                           
   454                           ;main.c: 51: 
   455     06F6  01F9               	clrf	main@i
   456     06F7  0AF9               	incf	main@i,f
   457     06F8                     l713:
   458                           
   459                           ;main.c: 54:             {
   460     06F8  3037               	movlw	55
   461     06F9  0677               	xorwf	main@key,w
   462     06FA  1D03               	btfss	3,2
   463     06FB  2EFD               	goto	u81
   464     06FC  2EFE               	goto	u80
   465     06FD                     u81:
   466     06FD  2F05               	goto	l721
   467     06FE                     u80:
   468     06FE                     l715:
   469                           
   470                           ;main.c: 55: ;main.c: 56:                 if(i <= 8)
   471     06FE  1283               	bcf	3,5	;RP0=0, select bank0
   472     06FF  1303               	bcf	3,6	;RP1=0, select bank0
   473     0700  0188               	clrf	8	;volatile
   474     0701                     l717:
   475                           
   476                           ;main.c: 57:                 {
   477     0701  3004               	movlw	4
   478     0702  00F8               	movwf	main@flag
   479     0703                     l719:
   480                           
   481                           ;main.c: 58:                     PORTD = (PORTD << 1) | 0x01;
   482     0703  01F9               	clrf	main@i
   483     0704  0AF9               	incf	main@i,f
   484     0705                     l721:
   485                           
   486                           ;main.c: 62:                 if(i > 8 && i <= 17 )
   487     0705  3001               	movlw	1
   488     0706  07F3               	addwf	main@wait,f
   489     0707  3000               	movlw	0
   490     0708  1803               	skipnc
   491     0709  3001               	movlw	1
   492     070A  07F4               	addwf	main@wait+1,f
   493     070B  3000               	movlw	0
   494     070C  1803               	skipnc
   495     070D  3001               	movlw	1
   496     070E  07F5               	addwf	main@wait+2,f
   497     070F  3000               	movlw	0
   498     0710  1803               	skipnc
   499     0711  3001               	movlw	1
   500     0712  07F6               	addwf	main@wait+3,f
   501     0713  3051               	movlw	81
   502     0714  0673               	xorwf	main@wait,w
   503     0715  30C3               	movlw	195
   504     0716  1903               	skipnz
   505     0717  0674               	xorwf	main@wait+1,w
   506     0718  0475               	iorwf	main@wait+2,w
   507     0719  0476               	iorwf	main@wait+3,w
   508     071A  1D03               	btfss	3,2
   509     071B  2F1D               	goto	u91
   510     071C  2F1E               	goto	u90
   511     071D                     u91:
   512     071D  2ECC               	goto	l689
   513     071E                     u90:
   514     071E                     l723:
   515                           
   516                           ;main.c: 63:                 {;main.c: 64:                     PORTD = PORTD << 1;
   517     071E  3000               	movlw	0
   518     071F  00F6               	movwf	main@wait+3
   519     0720  3000               	movlw	0
   520     0721  00F5               	movwf	main@wait+2
   521     0722  3000               	movlw	0
   522     0723  00F4               	movwf	main@wait+1
   523     0724  3000               	movlw	0
   524     0725  00F3               	movwf	main@wait
   525     0726                     l725:
   526                           
   527                           ;main.c: 67: 
   528     0726  0378               	decf	main@flag,w
   529     0727  1D03               	btfss	3,2
   530     0728  2F2A               	goto	u101
   531     0729  2F2B               	goto	u100
   532     072A                     u101:
   533     072A  2F85               	goto	l751
   534     072B                     u100:
   535     072B                     l727:
   536                           
   537                           ;main.c: 68:                 if(i > 17 && i <= 26);main.c: 70:                     PORTD
      +                           = (PORTD >> 1) | 0x80;
   538     072B  3009               	movlw	9
   539     072C  0279               	subwf	main@i,w
   540     072D  1803               	skipnc
   541     072E  2F30               	goto	u111
   542     072F  2F31               	goto	u110
   543     0730                     u111:
   544     0730  2F39               	goto	l23
   545     0731                     u110:
   546     0731                     l729:
   547                           
   548                           ;main.c: 71:                     i++;;main.c: 72:                 }
   549     0731  1403               	setc
   550     0732  1283               	bcf	3,5	;RP0=0, select bank0
   551     0733  1303               	bcf	3,6	;RP1=0, select bank0
   552     0734  0D88               	rlf	8,f	;volatile
   553     0735                     l731:
   554                           
   555                           ;main.c: 73: 
   556     0735  3001               	movlw	1
   557     0736  00F2               	movwf	??_main
   558     0737  0872               	movf	??_main,w
   559     0738  07F9               	addwf	main@i,f
   560     0739                     l23:	
   561                           ;main.c: 74:                 if(i > 26 && i <= 35)
   562                           
   563                           
   564                           ;main.c: 76:                     PORTD = PORTD >> 1;
   565     0739  3009               	movlw	9
   566     073A  0279               	subwf	main@i,w
   567     073B  1C03               	skipc
   568     073C  2F3E               	goto	u121
   569     073D  2F3F               	goto	u120
   570     073E                     u121:
   571     073E  2F4F               	goto	l737
   572     073F                     u120:
   573     073F                     l733:
   574     073F  3012               	movlw	18
   575     0740  0279               	subwf	main@i,w
   576     0741  1803               	skipnc
   577     0742  2F44               	goto	u131
   578     0743  2F45               	goto	u130
   579     0744                     u131:
   580     0744  2F4F               	goto	l737
   581     0745                     u130:
   582     0745                     l735:
   583                           
   584                           ;main.c: 77:                     i++;;main.c: 78: 
   585     0745  1283               	bcf	3,5	;RP0=0, select bank0
   586     0746  1303               	bcf	3,6	;RP1=0, select bank0
   587     0747  0808               	movf	8,w	;volatile
   588     0748  00F2               	movwf	??_main
   589     0749  0772               	addwf	??_main,w
   590     074A  0088               	movwf	8	;volatile
   591                           
   592                           ;main.c: 79:                     if(i == 36)
   593     074B  3001               	movlw	1
   594     074C  00F2               	movwf	??_main
   595     074D  0872               	movf	??_main,w
   596     074E  07F9               	addwf	main@i,f
   597     074F                     l737:
   598                           
   599                           ;main.c: 82:                     }
   600     074F  3012               	movlw	18
   601     0750  0279               	subwf	main@i,w
   602     0751  1C03               	skipc
   603     0752  2F54               	goto	u141
   604     0753  2F55               	goto	u140
   605     0754                     u141:
   606     0754  2F67               	goto	l743
   607     0755                     u140:
   608     0755                     l739:
   609     0755  301B               	movlw	27
   610     0756  0279               	subwf	main@i,w
   611     0757  1803               	skipnc
   612     0758  2F5A               	goto	u151
   613     0759  2F5B               	goto	u150
   614     075A                     u151:
   615     075A  2F67               	goto	l743
   616     075B                     u150:
   617     075B                     l741:
   618                           
   619                           ;main.c: 83:                 };main.c: 84:             }
   620     075B  1283               	bcf	3,5	;RP0=0, select bank0
   621     075C  1303               	bcf	3,6	;RP1=0, select bank0
   622     075D  0808               	movf	8,w	;volatile
   623     075E  00F2               	movwf	??_main
   624     075F  1003               	clrc
   625     0760  0C72               	rrf	??_main,w
   626     0761  3880               	iorlw	128
   627     0762  0088               	movwf	8	;volatile
   628                           
   629                           ;main.c: 85: 
   630     0763  3001               	movlw	1
   631     0764  00F2               	movwf	??_main
   632     0765  0872               	movf	??_main,w
   633     0766  07F9               	addwf	main@i,f
   634     0767                     l743:
   635                           
   636                           ;main.c: 88:             {
   637     0767  301B               	movlw	27
   638     0768  0279               	subwf	main@i,w
   639     0769  1C03               	skipc
   640     076A  2F6C               	goto	u161
   641     076B  2F6D               	goto	u160
   642     076C                     u161:
   643     076C  2F85               	goto	l751
   644     076D                     u160:
   645     076D                     l745:
   646     076D  3024               	movlw	36
   647     076E  0279               	subwf	main@i,w
   648     076F  1803               	skipnc
   649     0770  2F72               	goto	u171
   650     0771  2F73               	goto	u170
   651     0772                     u171:
   652     0772  2F85               	goto	l751
   653     0773                     u170:
   654     0773                     l747:
   655                           
   656                           ;main.c: 89: ;main.c: 90:                 if(i <= 8)
   657     0773  1283               	bcf	3,5	;RP0=0, select bank0
   658     0774  1303               	bcf	3,6	;RP1=0, select bank0
   659     0775  0808               	movf	8,w	;volatile
   660     0776  00F2               	movwf	??_main
   661     0777  1003               	clrc
   662     0778  0C72               	rrf	??_main,w
   663     0779  0088               	movwf	8	;volatile
   664                           
   665                           ;main.c: 91:                 {
   666     077A  3001               	movlw	1
   667     077B  00F2               	movwf	??_main
   668     077C  0872               	movf	??_main,w
   669     077D  07F9               	addwf	main@i,f
   670                           
   671                           ;main.c: 93:                     i++;
   672     077E  3024               	movlw	36
   673     077F  0679               	xorwf	main@i,w
   674     0780  1D03               	btfss	3,2
   675     0781  2F83               	goto	u181
   676     0782  2F84               	goto	u180
   677     0783                     u181:
   678     0783  2F85               	goto	l751
   679     0784                     u180:
   680     0784                     l749:
   681                           
   682                           ;main.c: 94:                 };main.c: 95: 
   683     0784  01F9               	clrf	main@i
   684     0785                     l751:
   685                           
   686                           ;main.c: 101:                     {
   687     0785  3002               	movlw	2
   688     0786  0678               	xorwf	main@flag,w
   689     0787  1D03               	btfss	3,2
   690     0788  2F8A               	goto	u191
   691     0789  2F8B               	goto	u190
   692     078A                     u191:
   693     078A  2FB6               	goto	l765
   694     078B                     u190:
   695     078B                     l753:
   696                           
   697                           ;main.c: 102:                         i = 0;;main.c: 104:                 }
   698     078B  3009               	movlw	9
   699     078C  0279               	subwf	main@i,w
   700     078D  1803               	skipnc
   701     078E  2F90               	goto	u201
   702     078F  2F91               	goto	u200
   703     0790                     u201:
   704     0790  2F99               	goto	l29
   705     0791                     u200:
   706     0791                     l755:
   707                           
   708                           ;main.c: 105:             };main.c: 106: 
   709     0791  1403               	setc
   710     0792  1283               	bcf	3,5	;RP0=0, select bank0
   711     0793  1303               	bcf	3,6	;RP1=0, select bank0
   712     0794  0D88               	rlf	8,f	;volatile
   713     0795                     l757:
   714                           
   715                           ;main.c: 107: 
   716     0795  3001               	movlw	1
   717     0796  00F2               	movwf	??_main
   718     0797  0872               	movf	??_main,w
   719     0798  07F9               	addwf	main@i,f
   720     0799                     l29:	
   721                           ;main.c: 108:             if(flag == 3)
   722                           
   723                           
   724                           ;main.c: 110:                 if(i == 1)
   725     0799  3009               	movlw	9
   726     079A  0279               	subwf	main@i,w
   727     079B  1C03               	skipc
   728     079C  2F9E               	goto	u211
   729     079D  2F9F               	goto	u210
   730     079E                     u211:
   731     079E  2FB6               	goto	l765
   732     079F                     u210:
   733     079F                     l759:
   734     079F  3012               	movlw	18
   735     07A0  0279               	subwf	main@i,w
   736     07A1  1803               	skipnc
   737     07A2  2FA4               	goto	u221
   738     07A3  2FA5               	goto	u220
   739     07A4                     u221:
   740     07A4  2FB6               	goto	l765
   741     07A5                     u220:
   742     07A5                     l761:
   743                           
   744                           ;main.c: 111:                 {;main.c: 112:                     PORTD = 0xAA;
   745     07A5  1283               	bcf	3,5	;RP0=0, select bank0
   746     07A6  1303               	bcf	3,6	;RP1=0, select bank0
   747     07A7  0808               	movf	8,w	;volatile
   748     07A8  00F2               	movwf	??_main
   749     07A9  0772               	addwf	??_main,w
   750     07AA  0088               	movwf	8	;volatile
   751                           
   752                           ;main.c: 113:                 }
   753     07AB  3001               	movlw	1
   754     07AC  00F2               	movwf	??_main
   755     07AD  0872               	movf	??_main,w
   756     07AE  07F9               	addwf	main@i,f
   757                           
   758                           ;main.c: 114:                 if(i == 2)
   759     07AF  3012               	movlw	18
   760     07B0  0679               	xorwf	main@i,w
   761     07B1  1D03               	btfss	3,2
   762     07B2  2FB4               	goto	u231
   763     07B3  2FB5               	goto	u230
   764     07B4                     u231:
   765     07B4  2FB6               	goto	l765
   766     07B5                     u230:
   767     07B5                     l763:
   768                           
   769                           ;main.c: 115:                 {;main.c: 116:                     PORTD = 0x55;
   770     07B5  01F9               	clrf	main@i
   771     07B6                     l765:
   772                           
   773                           ;main.c: 122: 
   774     07B6  3003               	movlw	3
   775     07B7  0678               	xorwf	main@flag,w
   776     07B8  1D03               	btfss	3,2
   777     07B9  2FBB               	goto	u241
   778     07BA  2FBC               	goto	u240
   779     07BB                     u241:
   780     07BB  2FD4               	goto	l779
   781     07BC                     u240:
   782     07BC                     l767:
   783                           
   784                           ;main.c: 123:             if(flag == 4);main.c: 124:             {
   785     07BC  0379               	decf	main@i,w
   786     07BD  1D03               	btfss	3,2
   787     07BE  2FC0               	goto	u251
   788     07BF  2FC1               	goto	u250
   789     07C0                     u251:
   790     07C0  2FC5               	goto	l771
   791     07C1                     u250:
   792     07C1                     l769:
   793                           
   794                           ;main.c: 125:                 if(i == 1);main.c: 126:                 {
   795     07C1  30AA               	movlw	170
   796     07C2  1283               	bcf	3,5	;RP0=0, select bank0
   797     07C3  1303               	bcf	3,6	;RP1=0, select bank0
   798     07C4  0088               	movwf	8	;volatile
   799     07C5                     l771:
   800                           
   801                           ;main.c: 128:                 }
   802     07C5  3002               	movlw	2
   803     07C6  0679               	xorwf	main@i,w
   804     07C7  1D03               	btfss	3,2
   805     07C8  2FCA               	goto	u261
   806     07C9  2FCB               	goto	u260
   807     07CA                     u261:
   808     07CA  2FD0               	goto	l777
   809     07CB                     u260:
   810     07CB                     l773:
   811                           
   812                           ;main.c: 129:                 if(i == 2);main.c: 130:                 {
   813     07CB  3055               	movlw	85
   814     07CC  1283               	bcf	3,5	;RP0=0, select bank0
   815     07CD  1303               	bcf	3,6	;RP1=0, select bank0
   816     07CE  0088               	movwf	8	;volatile
   817     07CF                     l775:
   818                           
   819                           ;main.c: 131:                     PORTD = 0xF0;
   820     07CF  01F9               	clrf	main@i
   821     07D0                     l777:
   822                           
   823                           ;main.c: 133:                 }
   824     07D0  3001               	movlw	1
   825     07D1  00F2               	movwf	??_main
   826     07D2  0872               	movf	??_main,w
   827     07D3  07F9               	addwf	main@i,f
   828     07D4                     l779:
   829                           
   830                           ;main.c: 137:     }
   831     07D4  3004               	movlw	4
   832     07D5  0678               	xorwf	main@flag,w
   833     07D6  1D03               	btfss	3,2
   834     07D7  2FD9               	goto	u271
   835     07D8  2FDA               	goto	u270
   836     07D9                     u271:
   837     07D9  2ECC               	goto	l689
   838     07DA                     u270:
   839     07DA                     l781:
   840                           
   841                           ;main.c: 138:     return;;main.c: 139: }
   842     07DA  0379               	decf	main@i,w
   843     07DB  1D03               	btfss	3,2
   844     07DC  2FDE               	goto	u281
   845     07DD  2FDF               	goto	u280
   846     07DE                     u281:
   847     07DE  2FE3               	goto	l785
   848     07DF                     u280:
   849     07DF                     l783:
   850     07DF  300F               	movlw	15
   851     07E0  1283               	bcf	3,5	;RP0=0, select bank0
   852     07E1  1303               	bcf	3,6	;RP1=0, select bank0
   853     07E2  0088               	movwf	8	;volatile
   854     07E3                     l785:
   855     07E3  3002               	movlw	2
   856     07E4  0679               	xorwf	main@i,w
   857     07E5  1D03               	btfss	3,2
   858     07E6  2FE8               	goto	u291
   859     07E7  2FE9               	goto	u290
   860     07E8                     u291:
   861     07E8  2FEE               	goto	l791
   862     07E9                     u290:
   863     07E9                     l787:
   864     07E9  30F0               	movlw	240
   865     07EA  1283               	bcf	3,5	;RP0=0, select bank0
   866     07EB  1303               	bcf	3,6	;RP1=0, select bank0
   867     07EC  0088               	movwf	8	;volatile
   868     07ED                     l789:
   869     07ED  01F9               	clrf	main@i
   870     07EE                     l791:
   871     07EE  3001               	movlw	1
   872     07EF  00F2               	movwf	??_main
   873     07F0  0872               	movf	??_main,w
   874     07F1  07F9               	addwf	main@i,f
   875     07F2  2ECC               	goto	l689
   876     07F3  120A  118A  2800   	ljmp	start
   877     07F6                     __end_of_main:
   878                           
   879                           	psect	text1
   880     0694                     __ptext1:	
   881 ;; *************** function _read_digital_keypad *****************
   882 ;; Defined at:
   883 ;;		line 18 in file "digital_keypad.c"
   884 ;; Parameters:    Size  Location     Type
   885 ;;  mode            1    wreg     unsigned char 
   886 ;; Auto vars:     Size  Location     Type
   887 ;;  mode            1    1[COMMON] unsigned char 
   888 ;; Return value:  Size  Location     Type
   889 ;;                  1    wreg      unsigned char 
   890 ;; Registers used:
   891 ;;		wreg, status,2, status,0
   892 ;; Tracked objects:
   893 ;;		On entry : 0/0
   894 ;;		On exit  : 0/0
   895 ;;		Unchanged: 0/0
   896 ;; Data sizes:     COMMON   BANK0   BANK1   BANK3   BANK2
   897 ;;      Params:         0       0       0       0       0
   898 ;;      Locals:         1       0       0       0       0
   899 ;;      Temps:          1       0       0       0       0
   900 ;;      Totals:         2       0       0       0       0
   901 ;;Total ram usage:        2 bytes
   902 ;; Hardware stack levels used: 1
   903 ;; This function calls:
   904 ;;		Nothing
   905 ;; This function is called by:
   906 ;;		_main
   907 ;; This function uses a non-reentrant model
   908 ;;
   909                           
   910     0694                     _read_digital_keypad:	
   911                           ;psect for function _read_digital_keypad
   912                           
   913                           
   914                           ;incstack = 0
   915                           ; Regs used in _read_digital_keypad: [wreg+status,2+status,0]
   916                           ;read_digital_keypad@mode stored from wreg
   917     0694  00F1               	movwf	read_digital_keypad@mode
   918     0695                     l655:
   919                           
   920                           ;digital_keypad.c: 18: unsigned char read_digital_keypad(unsigned char mode);digital_key
      +                          pad.c: 19: {;digital_keypad.c: 20:     static unsigned char once = 1;;digital_keypad.c: 
      +                          21:     if(mode == 0)
   921     0695  0871               	movf	read_digital_keypad@mode,w
   922     0696  1D03               	btfss	3,2
   923     0697  2E99               	goto	u11
   924     0698  2E9A               	goto	u10
   925     0699                     u11:
   926     0699  2E9F               	goto	l663
   927     069A                     u10:
   928     069A                     l657:
   929                           
   930                           ;digital_keypad.c: 22:     {;digital_keypad.c: 23:         return (PORTB & 0x3F);
   931     069A  1283               	bcf	3,5	;RP0=0, select bank0
   932     069B  1303               	bcf	3,6	;RP1=0, select bank0
   933     069C  0806               	movf	6,w	;volatile
   934     069D  393F               	andlw	63
   935     069E  2EBD               	goto	l53
   936     069F                     l663:
   937                           
   938                           ;digital_keypad.c: 26:     {;digital_keypad.c: 27:         if(((PORTB & 0x3F) != 0x3F) &
      +                          & once)
   939     069F  303F               	movlw	63
   940     06A0  1283               	bcf	3,5	;RP0=0, select bank0
   941     06A1  1303               	bcf	3,6	;RP1=0, select bank0
   942     06A2  0506               	andwf	6,w	;volatile
   943     06A3  00F0               	movwf	??_read_digital_keypad
   944     06A4  303F               	movlw	63
   945     06A5  0670               	xorwf	??_read_digital_keypad,w
   946     06A6  1903               	btfsc	3,2
   947     06A7  2EA9               	goto	u21
   948     06A8  2EAA               	goto	u20
   949     06A9                     u21:
   950     06A9  2EB1               	goto	l675
   951     06AA                     u20:
   952     06AA                     l665:
   953     06AA  087A               	movf	read_digital_keypad@once,w
   954     06AB  1903               	btfsc	3,2
   955     06AC  2EAE               	goto	u31
   956     06AD  2EAF               	goto	u30
   957     06AE                     u31:
   958     06AE  2EB1               	goto	l675
   959     06AF                     u30:
   960     06AF                     l667:
   961                           
   962                           ;digital_keypad.c: 28:         {;digital_keypad.c: 29:             once = 0;
   963     06AF  01FA               	clrf	read_digital_keypad@once
   964     06B0  2E9A               	goto	l657
   965     06B1                     l675:
   966     06B1  303F               	movlw	63
   967     06B2  0506               	andwf	6,w	;volatile
   968     06B3  00F0               	movwf	??_read_digital_keypad
   969     06B4  303F               	movlw	63
   970     06B5  0670               	xorwf	??_read_digital_keypad,w
   971     06B6  1D03               	btfss	3,2
   972     06B7  2EB9               	goto	u41
   973     06B8  2EBA               	goto	u40
   974     06B9                     u41:
   975     06B9  2EBC               	goto	l679
   976     06BA                     u40:
   977     06BA                     l677:
   978                           
   979                           ;digital_keypad.c: 33:         {;digital_keypad.c: 34:             once = 1;
   980     06BA  01FA               	clrf	read_digital_keypad@once
   981     06BB  0AFA               	incf	read_digital_keypad@once,f
   982     06BC                     l679:
   983                           
   984                           ;digital_keypad.c: 37:     return 0x3F;
   985     06BC  303F               	movlw	63
   986     06BD                     l53:
   987     06BD  0008               	return
   988     06BE                     __end_of_read_digital_keypad:
   989                           
   990                           	psect	text2
   991     0688                     __ptext2:	
   992 ;; *************** function _init_config *****************
   993 ;; Defined at:
   994 ;;		line 14 in file "main.c"
   995 ;; Parameters:    Size  Location     Type
   996 ;;		None
   997 ;; Auto vars:     Size  Location     Type
   998 ;;		None
   999 ;; Return value:  Size  Location     Type
  1000 ;;                  1    wreg      void 
  1001 ;; Registers used:
  1002 ;;		wreg, status,2, status,0, pclath, cstack
  1003 ;; Tracked objects:
  1004 ;;		On entry : 0/0
  1005 ;;		On exit  : 0/0
  1006 ;;		Unchanged: 0/0
  1007 ;; Data sizes:     COMMON   BANK0   BANK1   BANK3   BANK2
  1008 ;;      Params:         0       0       0       0       0
  1009 ;;      Locals:         0       0       0       0       0
  1010 ;;      Temps:          0       0       0       0       0
  1011 ;;      Totals:         0       0       0       0       0
  1012 ;;Total ram usage:        0 bytes
  1013 ;; Hardware stack levels used: 1
  1014 ;; Hardware stack levels required when called: 1
  1015 ;; This function calls:
  1016 ;;		_init_digital_keypad
  1017 ;; This function is called by:
  1018 ;;		_main
  1019 ;; This function uses a non-reentrant model
  1020 ;;
  1021                           
  1022     0688                     _init_config:	
  1023                           ;psect for function _init_config
  1024                           
  1025     0688                     l651:	
  1026                           ;incstack = 0
  1027                           ; Regs used in _init_config: [wreg+status,2+status,0+pclath+cstack]
  1028                           
  1029                           
  1030                           ;main.c: 15: 
  1031     0688  1283               	bcf	3,5	;RP0=0, select bank0
  1032     0689  1303               	bcf	3,6	;RP1=0, select bank0
  1033     068A  0188               	clrf	8	;volatile
  1034                           
  1035                           ;main.c: 16:         key = read_digital_keypad(1);
  1036     068B  1683               	bsf	3,5	;RP0=1, select bank1
  1037     068C  1303               	bcf	3,6	;RP1=0, select bank1
  1038     068D  0188               	clrf	8	;volatile
  1039     068E                     l653:
  1040                           
  1041                           ;main.c: 18: 
  1042     068E  120A  118A  2682  120A  118A  	fcall	_init_digital_keypad
  1043     0693                     l11:
  1044     0693  0008               	return
  1045     0694                     __end_of_init_config:
  1046                           
  1047                           	psect	text3
  1048     0682                     __ptext3:	
  1049 ;; *************** function _init_digital_keypad *****************
  1050 ;; Defined at:
  1051 ;;		line 11 in file "digital_keypad.c"
  1052 ;; Parameters:    Size  Location     Type
  1053 ;;		None
  1054 ;; Auto vars:     Size  Location     Type
  1055 ;;		None
  1056 ;; Return value:  Size  Location     Type
  1057 ;;                  1    wreg      void 
  1058 ;; Registers used:
  1059 ;;		wreg, status,2
  1060 ;; Tracked objects:
  1061 ;;		On entry : 0/0
  1062 ;;		On exit  : 0/0
  1063 ;;		Unchanged: 0/0
  1064 ;; Data sizes:     COMMON   BANK0   BANK1   BANK3   BANK2
  1065 ;;      Params:         0       0       0       0       0
  1066 ;;      Locals:         0       0       0       0       0
  1067 ;;      Temps:          0       0       0       0       0
  1068 ;;      Totals:         0       0       0       0       0
  1069 ;;Total ram usage:        0 bytes
  1070 ;; Hardware stack levels used: 1
  1071 ;; This function calls:
  1072 ;;		Nothing
  1073 ;; This function is called by:
  1074 ;;		_init_config
  1075 ;; This function uses a non-reentrant model
  1076 ;;
  1077                           
  1078     0682                     _init_digital_keypad:	
  1079                           ;psect for function _init_digital_keypad
  1080                           
  1081     0682                     l649:	
  1082                           ;incstack = 0
  1083                           ; Regs used in _init_digital_keypad: [wreg+status,2]
  1084                           
  1085                           
  1086                           ;digital_keypad.c: 13:         TRISB = TRISB | 0x3F;
  1087     0682  1683               	bsf	3,5	;RP0=1, select bank1
  1088     0683  1303               	bcf	3,6	;RP1=0, select bank1
  1089     0684  0806               	movf	6,w	;volatile
  1090     0685  383F               	iorlw	63
  1091     0686  0086               	movwf	6	;volatile
  1092     0687                     l47:
  1093     0687  0008               	return
  1094     0688                     __end_of_init_digital_keypad:
  1095     007E                     btemp	set	126	;btemp
  1096     007E                     wtemp0	set	126
  1097                           
  1098                           	psect	config
  1099                           
  1100                           ;Config register CONFIG @ 0x2007
  1101                           ;	Oscillator Selection bits
  1102                           ;	FOSC = 0x3, unprogrammed default
  1103                           ;	Watchdog Timer Enable bit
  1104                           ;	WDTE = OFF, WDT disabled
  1105                           ;	Power-up Timer Enable bit
  1106                           ;	PWRTE = 0x1, unprogrammed default
  1107                           ;	Brown-out Reset Enable bit
  1108                           ;	BOREN = 0x1, unprogrammed default
  1109                           ;	Low-Voltage (Single-Supply) In-Circuit Serial Programming Enable bit
  1110                           ;	LVP = 0x1, unprogrammed default
  1111                           ;	Data EEPROM Memory Code Protection bit
  1112                           ;	CPD = 0x1, unprogrammed default
  1113                           ;	Flash Program Memory Write Enable bits
  1114                           ;	WRT = 0x3, unprogrammed default
  1115                           ;	In-Circuit Debugger Mode bit
  1116                           ;	DEBUG = 0x1, unprogrammed default
  1117                           ;	Flash Program Memory Code Protection bit
  1118                           ;	CP = 0x1, unprogrammed default
  1119     2007                     	org	8199
  1120     2007  3FFB               	dw	16379

Data Sizes:
    Strings     0
    Constant    0
    Data        1
    BSS         0
    Persistent  0
    Stack       0

Auto Spaces:
    Space          Size  Autos    Used
    COMMON           14     10      11
    BANK0            80      0       0
    BANK1            80      0       0
    BANK3            96      0       0
    BANK2            96      0       0

Pointer List with Targets:

    None.

Critical Paths under _main in COMMON

    _main->_read_digital_keypad

Critical Paths under _main in BANK0

    None.

Critical Paths under _main in BANK1

    None.

Critical Paths under _main in BANK3

    None.

Critical Paths under _main in BANK2

    None.

Call Graph Tables:

 ---------------------------------------------------------------------------------
 (Depth) Function   	        Calls       Base Space   Used Autos Params    Refs
 ---------------------------------------------------------------------------------
 (0) _main                                                 8     8      0     390
                                              2 COMMON     8     8      0
                        _init_config
                _read_digital_keypad
 ---------------------------------------------------------------------------------
 (1) _read_digital_keypad                                  2     2      0      15
                                              0 COMMON     2     2      0
 ---------------------------------------------------------------------------------
 (1) _init_config                                          0     0      0       0
                _init_digital_keypad
 ---------------------------------------------------------------------------------
 (2) _init_digital_keypad                                  0     0      0       0
 ---------------------------------------------------------------------------------
 Estimated maximum stack depth 2
 ---------------------------------------------------------------------------------

 Call Graph Graphs:

 _main (ROOT)
   _init_config
     _init_digital_keypad
   _read_digital_keypad

 Address spaces:
Name               Size   Autos  Total    Cost      Usage
BANK3               60      0       0       9        0.0%
BITBANK3            60      0       0       8        0.0%
SFR3                 0      0       0       4        0.0%
BITSFR3              0      0       0       4        0.0%
BANK2               60      0       0      11        0.0%
BITBANK2            60      0       0      10        0.0%
SFR2                 0      0       0       5        0.0%
BITSFR2              0      0       0       5        0.0%
BANK1               50      0       0       7        0.0%
BITBANK1            50      0       0       6        0.0%
SFR1                 0      0       0       2        0.0%
BITSFR1              0      0       0       2        0.0%
BANK0               50      0       0       5        0.0%
BITBANK0            50      0       0       4        0.0%
SFR0                 0      0       0       1        0.0%
BITSFR0              0      0       0       1        0.0%
COMMON               E      A       B       1       78.6%
BITCOMMON            E      0       0       0        0.0%
CODE                 0      0       0       0        0.0%
DATA                 0      0       B      12        0.0%
ABS                  0      0       B       3        0.0%
NULL                 0      0       0       0        0.0%
STACK                0      0       0       2        0.0%
EEDATA             100      0       0       0        0.0%


Microchip Technology PIC Macro Assembler V2.40 build 20220703182018 
Symbol Table                                                                                   Fri Sep 09 22:38:41 2022

                         l11 0693                           l23 0739                           l53 06BD  
                         l29 0799                           l47 0687                           u10 069A  
                         u11 0699                           u20 06AA                           u21 06A9  
                         u30 06AF                           u31 06AE                           u40 06BA  
                         u41 06B9                           u50 06D9                           u51 06D8  
                         u60 06E5                           u61 06E4                           u70 06F1  
                         u71 06F0                           u80 06FE                           u81 06FD  
                         u90 071E                           u91 071D                          l701 06E8  
                        l711 06F6                          l703 06EA                          l721 0705  
                        l713 06F8                          l705 06EB                          l651 0688  
                        l731 0735                          l723 071E                          l715 06FE  
                        l707 06F1                          l653 068E                          l741 075B  
                        l733 073F                          l725 0726                          l717 0701  
                        l709 06F4                          l663 069F                          l655 0695  
                        l743 0767                          l735 0745                          l727 072B  
                        l751 0785                          l719 0703                          l649 0682  
                        l665 06AA                          l657 069A                          l761 07A5  
                        l753 078B                          l745 076D                          l737 074F  
                        l729 0731                          l667 06AF                          l675 06B1  
                        l771 07C5                          l763 07B5                          l755 0791  
                        l747 0773                          l739 0755                          l691 06D3  
                        l683 06BE                          l677 06BA                          l781 07DA  
                        l773 07CB                          l757 0795                          l765 07B6  
                        l749 0784                          l693 06D9                          l685 06C6  
                        l679 06BC                          l791 07EE                          l783 07DF  
                        l775 07CF                          l767 07BC                          l759 079F  
                        l695 06DC                          l687 06C7                          l785 07E3  
                        l777 07D0                          l769 07C1                          l697 06DF  
                        l689 06CC                          l787 07E9                          l779 07D4  
                        l699 06E5                          l789 07ED                          u100 072B  
                        u101 072A                          u110 0731                          u111 0730  
                        u200 0791                          u120 073F                          u201 0790  
                        u121 073E                          u210 079F                          u130 0745  
                        u211 079E                          u131 0744                          u220 07A5  
                        u140 0755                          u221 07A4                          u141 0754  
                        u230 07B5                          u150 075B                          u231 07B4  
                        u151 075A                          u240 07BC                          u160 076D  
                        u241 07BB                          u161 076C                          u250 07C1  
                        u170 0773                          u251 07C0                          u171 0772  
                        u260 07CB                          u180 0784                          u261 07CA  
                        u181 0783                          u270 07DA                          u190 078B  
                        u271 07D9                          u191 078A                          u280 07DF  
                        u281 07DE                          u290 07E9                          u291 07E8  
      ??_read_digital_keypad 0070                         _main 06BE                         btemp 007E  
                       start 0000                        ?_main 0070                 ?_init_config 0070  
                      _PORTB 0006                        _PORTD 0008                        _TRISB 0086  
                      _TRISD 0088                        main@i 0079                        status 0003  
                      wtemp0 007E              __initialization 07F6                 __end_of_main 07F6  
                     ??_main 0072  __end_of_init_digital_keypad 0688                 __pdataCOMMON 007A  
    __end_of__initialization 07FC               __pcstackCOMMON 0070                   __pmaintext 06BE  
__end_of_read_digital_keypad 06BE                      __ptext1 0694                      __ptext2 0688  
                    __ptext3 0682                      main@key 0077         end_of_initialization 07FC  
              __pidataCOMMON 0681          start_initialization 07F6                ??_init_config 0070  
                  ___latbits 0002          __end_of_init_config 0694          _init_digital_keypad 0682  
       ?_init_digital_keypad 0070                  _init_config 0688      read_digital_keypad@mode 0071  
    read_digital_keypad@once 007A        ??_init_digital_keypad 0070                     main@flag 0078  
                   main@wait 0073          _read_digital_keypad 0694         ?_read_digital_keypad 0070  
